ASxxxx Linker V03.00 + NoICE + sdld,  page 1.
Hexadecimal  [32-Bits]

Area                                    Addr        Size        Decimal Bytes (Attributes)
--------------------------------        ----        ----        ------- ----- ------------
.  .ABS.                            00000000    00000000 =           0. bytes (ABS,CON)

      Value  Global                              Global Defined In Module
      -----  --------------------------------   ------------------------
     00000000  .__.ABS.                           
     00000000  l__BSEG                         
     00000000  l__BSS                          
     00000000  l__CABS                         
     00000000  l__DABS                         
     00000000  l__HEADER                       
     00000000  l__HEAP                         
     00000000  s__CABS                         
     00000000  s__CABS0                        
     00000000  s__CABS1                        
     00000000  s__CABS2                        
     00000000  s__CABS3                        
     00000000  s__CABS4                        
     00000000  s__DABS                         
     00000000  s__HEADER                       
     00000000  s__HEADER0                      
     00000000  s__HEADER1                      
     00000000  s__HEADER2                      
     00000000  s__HEADER3                      
     00000000  s__HEADER4                      
     00000000  s__HEADER5                      
     00000001  l__GSFINAL                      
     00000003  l__HEADER3                      
     00000003  l__HEADER4                      
     00000006  l__HEADER0                      
     00000009  l__HEADER1                      
     0000000A  l__HEADER2                      
     0000000B  l__CABS2                        
     0000000E  l__CABS1                        
     0000000F  l__GSINIT                       
     00000010  l__CABS0                        
     00000010  l__CABS4                        
     00000028  l__CABS3                        
     0000012A  l__HEADER5                      
     0000017C  l__HOME                         
     00000200  s__CODE                         
     00000256  l__INITIALIZED                  
     00000256  l__INITIALIZER                  
     00000267  l__DATA                         
     00003815  l__BANK15                       
     00003C2B  l__BANK11                       
     00003F51  l__BANK12                       
     00003F7E  l__BANK9                        
     00003FA9  l__BANK8                        
     00003FB1  l__BANK6                        
     00003FB3  l__BANK14                       
     00003FB5  l__BANK2                        
     00003FBD  l__BANK4                        
     00003FD0  l__BANK7                        
     00003FDB  l__BANK5                        
ASxxxx Linker V03.00 + NoICE + sdld,  page 2.
Hexadecimal  [32-Bits]

Area                                    Addr        Size        Decimal Bytes (Attributes)
--------------------------------        ----        ----        ------- ----- ------------
.  .ABS.                            00000000    00000000 =           0. bytes (ABS,CON)

      Value  Global                              Global Defined In Module
      -----  --------------------------------   ------------------------
     00003FE2  l__BANK10                       
     00003FEA  l__BANK13                       
     00003FED  l__BANK3                        
     0000438F  l__CODE                         
     0000458F  s__HOME                         
     0000470B  s__INITIALIZER                  
     00004961  s__GSINIT                       
     00004970  s__GSFINAL                      
     00008000  G$SMS_SRAM$0$0                     _sms_manager
     00008000  _SMS_SRAM                          SMSlib_PSGaiden
     00008000  s__BANK10                       
     00008000  s__BANK11                       
     00008000  s__BANK12                       
     00008000  s__BANK13                       
     00008000  s__BANK14                       
     00008000  s__BANK15                       
     00008000  s__BANK2                        
     00008000  s__BANK3                        
     00008000  s__BANK4                        
     00008000  s__BANK5                        
     00008000  s__BANK6                        
     00008000  s__BANK7                        
     00008000  s__BANK8                        
     00008000  s__BANK9                        
     0000C000  s__DATA                         
     0000C267  s__INITIALIZED                  
     0000C4BD  s__BSEG                         
     0000C4BD  s__BSS                          
     0000C4BD  s__HEAP                         
     0000FFFC  G$SRAM_bank_to_be_mapped_on_slot   _sms_manager
     0000FFFC  _SRAM_bank_to_be_mapped_on_slot2   SMSlib_PSGaiden
     0000FFFF  G$ROM_bank_to_be_mapped_on_slot2   _sms_manager
     0000FFFF  _ROM_bank_to_be_mapped_on_slot2    SMSlib_PSGaiden

ASxxxx Linker V03.00 + NoICE + sdld,  page 3.
Hexadecimal  [32-Bits]

Area                                    Addr        Size        Decimal Bytes (Attributes)
--------------------------------        ----        ----        ------- ----- ------------
_CODE                               00000200    0000438F =       17295. bytes (REL,CON)

      Value  Global                              Global Defined In Module
      -----  --------------------------------   ------------------------
     00000200  __clock                            crt0
     00000204  _exit                              crt0
     0000020A  A$main$58                          main
     0000020A  C$main.c$3$0$0                     main
     0000020A  C$main.c$5$1$118                   main
     0000020A  G$main$0$0                         main
     0000020A  _main                              main
     0000020D  A$main$62                          main
     0000020D  C$main.c$7$1$118                   main
     00000210  A$main$63                          main
     00000212  A$main$67                          main
     00000212  C$main.c$8$1$118                   main
     00000215  A$main$68                          main
     00000217  A$main$76                          main
     00000217  C$main.c$10$1$118                  main
     00000217  C$main.c$24$2$119                  main
     0000021A  A$main$77                          main
     0000021B  A$main$78                          main
     0000021D  A$main$82                          main
     0000021D  C$main.c$26$3$120                  main
     00000220  A$main$87                          main
     00000220  C$main.c$30$2$119                  main
     00000223  A$main$88                          main
     00000225  A$main$92                          main
     00000225  C$main.c$31$2$119                  main
     00000228  A$main$93                          main
     0000022B  A$main$97                          main
     0000022B  C$main.c$37$2$119                  main
     0000022E  A$main$102                         main
     0000022E  C$main.c$40$2$119                  main
     00000232  A$main$103                         main
     00000235  A$main$104                         main
     00000237  A$main$105                         main
     00000239  A$main$109                         main
     00000239  C$main.c$42$3$121                  main
     0000023C  A$main$110                         main
     0000023D  A$main$111                         main
     0000023F  A$main$115                         main
     0000023F  C$main.c$46$3$121                  main
     00000242  A$main$116                         main
     00000244  A$main$117                         main
     00000246  A$main$121                         main
     00000246  C$main.c$53$4$124                  main
     00000249  A$main$126                         main
     00000249  C$main.c$57$1$118                  main
     00000249  XG$main$0$0                        main
     0000024B  _PSGStop                           PSGlib
     00000272  _PSGResume                         PSGlib
     000002BE  _PSGPlay                           PSGlib
     000002EB  _PSGCancelLoop                     PSGlib
ASxxxx Linker V03.00 + NoICE + sdld,  page 4.
Hexadecimal  [32-Bits]

Area                                    Addr        Size        Decimal Bytes (Attributes)
--------------------------------        ----        ----        ------- ----- ------------
_CODE                               00000200    0000438F =       17295. bytes (REL,CON)

      Value  Global                              Global Defined In Module
      -----  --------------------------------   ------------------------
     000002F1  _PSGPlayNoRepeat                   PSGlib
     00000300  _PSGGetStatus                      PSGlib
     00000308  _PSGSilenceChannels                PSGlib
     00000319  _PSGRestoreVolumes                 PSGlib
     000003EA  _PSGSetMusicVolumeAttenuation      PSGlib
     000004AF  _PSGSFXStop                        PSGlib
     00000568  _PSGSFXPlay                        PSGlib
     000005B5  _PSGSFXCancelLoop                  PSGlib
     000005BB  _PSGSFXGetStatus                   PSGlib
     000005C3  _PSGSFXPlayLoop                    PSGlib
     000005DD  _PSGFrame                          PSGlib
     000006F6  _PSGSFXFrame                       PSGlib
     0000077C  A$_sms_manager$161                 _sms_manager
     0000077C  C$_sms_manager.c$11$0$0            _sms_manager
     0000077C  C$_sms_manager.c$13$1$83           _sms_manager
     0000077C  C$_sms_manager.c$14$1$83           _sms_manager
     0000077C  G$devkit_SMS_init$0$0              _sms_manager
     0000077C  XG$devkit_SMS_init$0$0             _sms_manager
     0000077C  _devkit_SMS_init                   _sms_manager
     0000077F  A$_sms_manager$174                 _sms_manager
     0000077F  C$_sms_manager.c$15$1$83           _sms_manager
     0000077F  C$_sms_manager.c$17$1$84           _sms_manager
     0000077F  G$devkit_SMS_displayOn$0$0         _sms_manager
     0000077F  _devkit_SMS_displayOn              _sms_manager
     00000782  A$_sms_manager$179                 _sms_manager
     00000782  C$_sms_manager.c$18$1$84           _sms_manager
     00000782  XG$devkit_SMS_displayOn$0$0        _sms_manager
     00000785  A$_sms_manager$192                 _sms_manager
     00000785  C$_sms_manager.c$19$1$84           _sms_manager
     00000785  C$_sms_manager.c$21$1$85           _sms_manager
     00000785  G$devkit_SMS_displayOff$0$0        _sms_manager
     00000785  _devkit_SMS_displayOff             _sms_manager
     00000788  A$_sms_manager$197                 _sms_manager
     00000788  C$_sms_manager.c$22$1$85           _sms_manager
     00000788  XG$devkit_SMS_displayOff$0$0       _sms_manager
     0000078B  A$_sms_manager$210                 _sms_manager
     0000078B  C$_sms_manager.c$24$1$85           _sms_manager
     0000078B  C$_sms_manager.c$26$1$87           _sms_manager
     0000078B  G$devkit_SMS_setBGScrollX$0$0      _sms_manager
     0000078B  _devkit_SMS_setBGScrollX           _sms_manager
     0000078F  A$_sms_manager$211                 _sms_manager
     00000791  A$_sms_manager$212                 _sms_manager
     00000794  A$_sms_manager$217                 _sms_manager
     00000794  C$_sms_manager.c$27$1$87           _sms_manager
     00000794  XG$devkit_SMS_setBGScrollX$0$0     _sms_manager
     00000797  A$_sms_manager$230                 _sms_manager
     00000797  C$_sms_manager.c$28$1$87           _sms_manager
     00000797  C$_sms_manager.c$30$1$89           _sms_manager
     00000797  G$devkit_SMS_setBGScrollY$0$0      _sms_manager
     00000797  _devkit_SMS_setBGScrollY           _sms_manager
     0000079B  A$_sms_manager$231                 _sms_manager
ASxxxx Linker V03.00 + NoICE + sdld,  page 5.
Hexadecimal  [32-Bits]

Area                                    Addr        Size        Decimal Bytes (Attributes)
--------------------------------        ----        ----        ------- ----- ------------
_CODE                               00000200    0000438F =       17295. bytes (REL,CON)

      Value  Global                              Global Defined In Module
      -----  --------------------------------   ------------------------
     0000079D  A$_sms_manager$232                 _sms_manager
     000007A0  A$_sms_manager$237                 _sms_manager
     000007A0  C$_sms_manager.c$31$1$89           _sms_manager
     000007A0  XG$devkit_SMS_setBGScrollY$0$0     _sms_manager
     000007A3  A$_sms_manager$250                 _sms_manager
     000007A3  C$_sms_manager.c$32$1$89           _sms_manager
     000007A3  C$_sms_manager.c$34$1$91           _sms_manager
     000007A3  G$devkit_SMS_setBackdropColor$0$   _sms_manager
     000007A3  _devkit_SMS_setBackdropColor       _sms_manager
     000007A7  A$_sms_manager$251                 _sms_manager
     000007A9  A$_sms_manager$252                 _sms_manager
     000007AC  A$_sms_manager$257                 _sms_manager
     000007AC  C$_sms_manager.c$35$1$91           _sms_manager
     000007AC  XG$devkit_SMS_setBackdropColor$0   _sms_manager
     000007AF  A$_sms_manager$270                 _sms_manager
     000007AF  C$_sms_manager.c$36$1$91           _sms_manager
     000007AF  C$_sms_manager.c$38$1$92           _sms_manager
     000007AF  G$devkit_SMS_useFirstHalfTilesfo   _sms_manager
     000007AF  _devkit_SMS_useFirstHalfTilesfor   _sms_manager
     000007B1  A$_sms_manager$275                 _sms_manager
     000007B1  C$_sms_manager.c$39$1$92           _sms_manager
     000007B1  XG$devkit_SMS_useFirstHalfTilesf   _sms_manager
     000007B4  A$_sms_manager$288                 _sms_manager
     000007B4  C$_sms_manager.c$40$1$92           _sms_manager
     000007B4  C$_sms_manager.c$42$1$93           _sms_manager
     000007B4  G$devkit_SMS_useFirstHalfTilesfo   _sms_manager
     000007B4  _devkit_SMS_useFirstHalfTilesfor   _sms_manager
     000007B6  A$_sms_manager$293                 _sms_manager
     000007B6  C$_sms_manager.c$43$1$93           _sms_manager
     000007B6  XG$devkit_SMS_useFirstHalfTilesf   _sms_manager
     000007B9  A$_sms_manager$306                 _sms_manager
     000007B9  C$_sms_manager.c$44$1$93           _sms_manager
     000007B9  C$_sms_manager.c$46$1$95           _sms_manager
     000007B9  G$devkit_SMS_setSpriteMode$0$0     _sms_manager
     000007B9  _devkit_SMS_setSpriteMode          _sms_manager
     000007BD  A$_sms_manager$307                 _sms_manager
     000007BF  A$_sms_manager$308                 _sms_manager
     000007C2  A$_sms_manager$313                 _sms_manager
     000007C2  C$_sms_manager.c$47$1$95           _sms_manager
     000007C2  XG$devkit_SMS_setSpriteMode$0$0    _sms_manager
     000007C5  A$_sms_manager$326                 _sms_manager
     000007C5  C$_sms_manager.c$49$1$95           _sms_manager
     000007C5  C$_sms_manager.c$51$1$97           _sms_manager
     000007C5  G$devkit_SMS_mapROMBank$0$0        _sms_manager
     000007C5  _devkit_SMS_mapROMBank             _sms_manager
     000007C8  A$_sms_manager$327                 _sms_manager
     000007C9  A$_sms_manager$328                 _sms_manager
     000007CA  A$_sms_manager$329                 _sms_manager
     000007CD  A$_sms_manager$334                 _sms_manager
     000007CD  C$_sms_manager.c$52$1$97           _sms_manager
     000007CD  XG$devkit_SMS_mapROMBank$0$0       _sms_manager
ASxxxx Linker V03.00 + NoICE + sdld,  page 6.
Hexadecimal  [32-Bits]

Area                                    Addr        Size        Decimal Bytes (Attributes)
--------------------------------        ----        ----        ------- ----- ------------
_CODE                               00000200    0000438F =       17295. bytes (REL,CON)

      Value  Global                              Global Defined In Module
      -----  --------------------------------   ------------------------
     000007CE  A$_sms_manager$347                 _sms_manager
     000007CE  C$_sms_manager.c$53$1$97           _sms_manager
     000007CE  C$_sms_manager.c$55$1$99           _sms_manager
     000007CE  G$devkit_SMS_VDPturnOnFeature$0$   _sms_manager
     000007CE  _devkit_SMS_VDPturnOnFeature       _sms_manager
     000007CF  A$_sms_manager$348                 _sms_manager
     000007D0  A$_sms_manager$349                 _sms_manager
     000007D1  A$_sms_manager$350                 _sms_manager
     000007D2  A$_sms_manager$355                 _sms_manager
     000007D2  C$_sms_manager.c$56$1$99           _sms_manager
     000007D2  XG$devkit_SMS_VDPturnOnFeature$0   _sms_manager
     000007D5  A$_sms_manager$365                 _sms_manager
     000007D5  C$_sms_manager.c$58$1$99           _sms_manager
     000007D5  G$devkit_SMS_loadTileMap$0$0       _sms_manager
     000007D5  _devkit_SMS_loadTileMap            _sms_manager
     000007D7  A$_sms_manager$366                 _sms_manager
     000007DB  A$_sms_manager$367                 _sms_manager
     000007DD  A$_sms_manager$371                 _sms_manager
     000007DD  C$_sms_manager.c$60$1$101          _sms_manager
     000007E0  A$_sms_manager$372                 _sms_manager
     000007E3  A$_sms_manager$373                 _sms_manager
     000007E6  A$_sms_manager$374                 _sms_manager
     000007E8  A$_sms_manager$375                 _sms_manager
     000007E9  A$_sms_manager$376                 _sms_manager
     000007EA  A$_sms_manager$377                 _sms_manager
     000007EB  A$_sms_manager$378                 _sms_manager
     000007EC  A$_sms_manager$379                 _sms_manager
     000007ED  A$_sms_manager$380                 _sms_manager
     000007EE  A$_sms_manager$381                 _sms_manager
     000007EF  A$_sms_manager$382                 _sms_manager
     000007F0  A$_sms_manager$383                 _sms_manager
     000007F2  A$_sms_manager$384                 _sms_manager
     000007F3  A$_sms_manager$385                 _sms_manager
     000007F6  A$_sms_manager$386                 _sms_manager
     000007F8  A$_sms_manager$387                 _sms_manager
     000007F9  A$_sms_manager$388                 _sms_manager
     000007FA  A$_sms_manager$389                 _sms_manager
     000007FB  A$_sms_manager$390                 _sms_manager
     000007FC  A$_sms_manager$391                 _sms_manager
     000007FD  A$_sms_manager$392                 _sms_manager
     000007FE  A$_sms_manager$393                 _sms_manager
     000007FF  A$_sms_manager$394                 _sms_manager
     00000802  A$_sms_manager$395                 _sms_manager
     00000805  A$_sms_manager$396                 _sms_manager
     00000806  A$_sms_manager$397                 _sms_manager
     00000807  A$_sms_manager$398                 _sms_manager
     00000808  A$_sms_manager$399                 _sms_manager
     0000080B  A$_sms_manager$400                 _sms_manager
     0000080E  A$_sms_manager$401                 _sms_manager
     0000080F  A$_sms_manager$402                 _sms_manager
     00000810  A$_sms_manager$403                 _sms_manager
ASxxxx Linker V03.00 + NoICE + sdld,  page 7.
Hexadecimal  [32-Bits]

Area                                    Addr        Size        Decimal Bytes (Attributes)
--------------------------------        ----        ----        ------- ----- ------------
_CODE                               00000200    0000438F =       17295. bytes (REL,CON)

      Value  Global                              Global Defined In Module
      -----  --------------------------------   ------------------------
     00000812  A$_sms_manager$408                 _sms_manager
     00000812  C$_sms_manager.c$61$1$101          _sms_manager
     00000812  XG$devkit_SMS_loadTileMap$0$0      _sms_manager
     00000813  A$_sms_manager$421                 _sms_manager
     00000813  C$_sms_manager.c$63$1$101          _sms_manager
     00000813  C$_sms_manager.c$65$1$103          _sms_manager
     00000813  G$devkit_SMS_loadPSGaidencompres   _sms_manager
     00000813  _devkit_SMS_loadPSGaidencompress   _sms_manager
     00000816  A$_sms_manager$422                 _sms_manager
     00000817  A$_sms_manager$423                 _sms_manager
     00000818  A$_sms_manager$424                 _sms_manager
     00000819  A$_sms_manager$425                 _sms_manager
     0000081A  A$_sms_manager$426                 _sms_manager
     0000081B  A$_sms_manager$427                 _sms_manager
     0000081E  A$_sms_manager$428                 _sms_manager
     0000081F  A$_sms_manager$429                 _sms_manager
     00000820  A$_sms_manager$430                 _sms_manager
     00000821  A$_sms_manager$431                 _sms_manager
     00000822  A$_sms_manager$432                 _sms_manager
     00000823  A$_sms_manager$433                 _sms_manager
     00000826  A$_sms_manager$434                 _sms_manager
     00000827  A$_sms_manager$435                 _sms_manager
     00000828  A$_sms_manager$440                 _sms_manager
     00000828  C$_sms_manager.c$66$1$103          _sms_manager
     00000828  XG$devkit_SMS_loadPSGaidencompre   _sms_manager
     00000829  A$_sms_manager$453                 _sms_manager
     00000829  C$_sms_manager.c$67$1$103          _sms_manager
     00000829  C$_sms_manager.c$69$1$105          _sms_manager
     00000829  G$devkit_SMS_loadSTMcompressedTi   _sms_manager
     00000829  _devkit_SMS_loadSTMcompressedTil   _sms_manager
     0000082B  A$_sms_manager$454                 _sms_manager
     0000082C  A$_sms_manager$455                 _sms_manager
     0000082D  A$_sms_manager$456                 _sms_manager
     00000830  A$_sms_manager$457                 _sms_manager
     00000831  A$_sms_manager$458                 _sms_manager
     00000832  A$_sms_manager$459                 _sms_manager
     00000833  A$_sms_manager$460                 _sms_manager
     00000834  A$_sms_manager$461                 _sms_manager
     00000835  A$_sms_manager$462                 _sms_manager
     00000838  A$_sms_manager$463                 _sms_manager
     00000839  A$_sms_manager$464                 _sms_manager
     0000083A  A$_sms_manager$465                 _sms_manager
     0000083B  A$_sms_manager$466                 _sms_manager
     0000083C  A$_sms_manager$467                 _sms_manager
     0000083F  A$_sms_manager$468                 _sms_manager
     00000840  A$_sms_manager$469                 _sms_manager
     00000841  A$_sms_manager$470                 _sms_manager
     00000842  A$_sms_manager$471                 _sms_manager
     00000843  A$_sms_manager$472                 _sms_manager
     00000846  A$_sms_manager$473                 _sms_manager
     00000847  A$_sms_manager$474                 _sms_manager
ASxxxx Linker V03.00 + NoICE + sdld,  page 8.
Hexadecimal  [32-Bits]

Area                                    Addr        Size        Decimal Bytes (Attributes)
--------------------------------        ----        ----        ------- ----- ------------
_CODE                               00000200    0000438F =       17295. bytes (REL,CON)

      Value  Global                              Global Defined In Module
      -----  --------------------------------   ------------------------
     00000848  A$_sms_manager$475                 _sms_manager
     00000849  A$_sms_manager$480                 _sms_manager
     00000849  C$_sms_manager.c$70$1$105          _sms_manager
     00000849  XG$devkit_SMS_loadSTMcompressedT   _sms_manager
     0000084A  A$_sms_manager$493                 _sms_manager
     0000084A  C$_sms_manager.c$72$1$105          _sms_manager
     0000084A  C$_sms_manager.c$74$1$107          _sms_manager
     0000084A  G$devkit_SMS_setBGPaletteColor$0   _sms_manager
     0000084A  _devkit_SMS_setBGPaletteColor      _sms_manager
     0000084D  A$_sms_manager$494                 _sms_manager
     0000084E  A$_sms_manager$495                 _sms_manager
     0000084F  A$_sms_manager$496                 _sms_manager
     00000850  A$_sms_manager$497                 _sms_manager
     00000851  A$_sms_manager$498                 _sms_manager
     00000854  A$_sms_manager$499                 _sms_manager
     00000855  A$_sms_manager$500                 _sms_manager
     00000856  A$_sms_manager$501                 _sms_manager
     00000857  A$_sms_manager$502                 _sms_manager
     00000858  A$_sms_manager$503                 _sms_manager
     0000085B  A$_sms_manager$504                 _sms_manager
     0000085C  A$_sms_manager$509                 _sms_manager
     0000085C  C$_sms_manager.c$75$1$107          _sms_manager
     0000085C  XG$devkit_SMS_setBGPaletteColor$   _sms_manager
     0000085D  A$_sms_manager$522                 _sms_manager
     0000085D  C$_sms_manager.c$76$1$107          _sms_manager
     0000085D  C$_sms_manager.c$78$1$109          _sms_manager
     0000085D  G$devkit_SMS_setSpritePaletteCol   _sms_manager
     0000085D  _devkit_SMS_setSpritePaletteColo   _sms_manager
     00000860  A$_sms_manager$523                 _sms_manager
     00000861  A$_sms_manager$524                 _sms_manager
     00000862  A$_sms_manager$525                 _sms_manager
     00000863  A$_sms_manager$526                 _sms_manager
     00000864  A$_sms_manager$527                 _sms_manager
     00000867  A$_sms_manager$528                 _sms_manager
     00000868  A$_sms_manager$529                 _sms_manager
     00000869  A$_sms_manager$530                 _sms_manager
     0000086A  A$_sms_manager$531                 _sms_manager
     0000086D  A$_sms_manager$532                 _sms_manager
     0000086E  A$_sms_manager$533                 _sms_manager
     0000086F  A$_sms_manager$534                 _sms_manager
     00000870  A$_sms_manager$535                 _sms_manager
     00000871  A$_sms_manager$536                 _sms_manager
     00000872  A$_sms_manager$537                 _sms_manager
     00000873  A$_sms_manager$538                 _sms_manager
     00000875  A$_sms_manager$539                 _sms_manager
     00000876  A$_sms_manager$540                 _sms_manager
     00000877  A$_sms_manager$544                 _sms_manager
     00000877  C$_sms_manager.c$79$1$109          _sms_manager
     00000878  A$_sms_manager$545                 _sms_manager
     00000879  A$_sms_manager$546                 _sms_manager
     0000087C  A$_sms_manager$547                 _sms_manager
ASxxxx Linker V03.00 + NoICE + sdld,  page 9.
Hexadecimal  [32-Bits]

Area                                    Addr        Size        Decimal Bytes (Attributes)
--------------------------------        ----        ----        ------- ----- ------------
_CODE                               00000200    0000438F =       17295. bytes (REL,CON)

      Value  Global                              Global Defined In Module
      -----  --------------------------------   ------------------------
     0000087D  A$_sms_manager$548                 _sms_manager
     0000087E  A$_sms_manager$549                 _sms_manager
     0000087F  A$_sms_manager$550                 _sms_manager
     00000880  A$_sms_manager$551                 _sms_manager
     00000883  A$_sms_manager$552                 _sms_manager
     00000884  A$_sms_manager$557                 _sms_manager
     00000884  C$_sms_manager.c$80$1$109          _sms_manager
     00000884  XG$devkit_SMS_setSpritePaletteCo   _sms_manager
     00000885  A$_sms_manager$570                 _sms_manager
     00000885  C$_sms_manager.c$81$1$109          _sms_manager
     00000885  C$_sms_manager.c$83$1$111          _sms_manager
     00000885  G$devkit_SMS_loadBGPalette$0$0     _sms_manager
     00000885  _devkit_SMS_loadBGPalette          _sms_manager
     00000886  A$_sms_manager$571                 _sms_manager
     00000887  A$_sms_manager$572                 _sms_manager
     00000888  A$_sms_manager$573                 _sms_manager
     00000889  A$_sms_manager$578                 _sms_manager
     00000889  C$_sms_manager.c$84$1$111          _sms_manager
     00000889  XG$devkit_SMS_loadBGPalette$0$0    _sms_manager
     0000088C  A$_sms_manager$591                 _sms_manager
     0000088C  C$_sms_manager.c$85$1$111          _sms_manager
     0000088C  C$_sms_manager.c$87$1$113          _sms_manager
     0000088C  G$devkit_SMS_loadSpritePalette$0   _sms_manager
     0000088C  _devkit_SMS_loadSpritePalette      _sms_manager
     0000088D  A$_sms_manager$592                 _sms_manager
     0000088E  A$_sms_manager$593                 _sms_manager
     0000088F  A$_sms_manager$594                 _sms_manager
     00000890  A$_sms_manager$599                 _sms_manager
     00000890  C$_sms_manager.c$88$1$113          _sms_manager
     00000890  XG$devkit_SMS_loadSpritePalette$   _sms_manager
     00000893  A$_sms_manager$609                 _sms_manager
     00000893  C$_sms_manager.c$90$1$113          _sms_manager
     00000893  G$devkit_SMS_setNextTileatXY$0$0   _sms_manager
     00000893  _devkit_SMS_setNextTileatXY        _sms_manager
     00000895  A$_sms_manager$610                 _sms_manager
     00000899  A$_sms_manager$611                 _sms_manager
     0000089B  A$_sms_manager$615                 _sms_manager
     0000089B  C$_sms_manager.c$92$1$115          _sms_manager
     0000089E  A$_sms_manager$616                 _sms_manager
     000008A0  A$_sms_manager$617                 _sms_manager
     000008A1  A$_sms_manager$618                 _sms_manager
     000008A2  A$_sms_manager$619                 _sms_manager
     000008A3  A$_sms_manager$620                 _sms_manager
     000008A4  A$_sms_manager$621                 _sms_manager
     000008A5  A$_sms_manager$622                 _sms_manager
     000008A6  A$_sms_manager$623                 _sms_manager
     000008A7  A$_sms_manager$624                 _sms_manager
     000008A8  A$_sms_manager$625                 _sms_manager
     000008AA  A$_sms_manager$626                 _sms_manager
     000008AB  A$_sms_manager$627                 _sms_manager
     000008AE  A$_sms_manager$628                 _sms_manager
ASxxxx Linker V03.00 + NoICE + sdld,  page 10.
Hexadecimal  [32-Bits]

Area                                    Addr        Size        Decimal Bytes (Attributes)
--------------------------------        ----        ----        ------- ----- ------------
_CODE                               00000200    0000438F =       17295. bytes (REL,CON)

      Value  Global                              Global Defined In Module
      -----  --------------------------------   ------------------------
     000008B0  A$_sms_manager$629                 _sms_manager
     000008B1  A$_sms_manager$630                 _sms_manager
     000008B2  A$_sms_manager$631                 _sms_manager
     000008B3  A$_sms_manager$632                 _sms_manager
     000008B4  A$_sms_manager$633                 _sms_manager
     000008B5  A$_sms_manager$634                 _sms_manager
     000008B6  A$_sms_manager$635                 _sms_manager
     000008B7  A$_sms_manager$640                 _sms_manager
     000008B7  C$_sms_manager.c$93$1$115          _sms_manager
     000008B7  XG$devkit_SMS_setNextTileatXY$0$   _sms_manager
     000008B9  A$_sms_manager$641                 _sms_manager
     000008BC  A$_sms_manager$654                 _sms_manager
     000008BC  C$_sms_manager.c$94$1$115          _sms_manager
     000008BC  C$_sms_manager.c$96$1$117          _sms_manager
     000008BC  G$devkit_SMS_setTile$0$0           _sms_manager
     000008BC  _devkit_SMS_setTile                _sms_manager
     000008C0  A$_sms_manager$655                 _sms_manager
     000008C2  A$_sms_manager$656                 _sms_manager
     000008C5  A$_sms_manager$657                 _sms_manager
     000008C7  A$_sms_manager$662                 _sms_manager
     000008C7  C$_sms_manager.c$97$1$117          _sms_manager
     000008C7  XG$devkit_SMS_setTile$0$0          _sms_manager
     000008CA  A$_sms_manager$675                 _sms_manager
     000008CA  C$_sms_manager.c$101$1$119         _sms_manager
     000008CA  C$_sms_manager.c$99$1$117          _sms_manager
     000008CA  G$devkit_SMS_addSprite$0$0         _sms_manager
     000008CA  _devkit_SMS_addSprite              _sms_manager
     000008CD  A$_sms_manager$676                 _sms_manager
     000008CE  A$_sms_manager$677                 _sms_manager
     000008CF  A$_sms_manager$678                 _sms_manager
     000008D0  A$_sms_manager$679                 _sms_manager
     000008D1  A$_sms_manager$680                 _sms_manager
     000008D4  A$_sms_manager$681                 _sms_manager
     000008D5  A$_sms_manager$682                 _sms_manager
     000008D6  A$_sms_manager$683                 _sms_manager
     000008D7  A$_sms_manager$684                 _sms_manager
     000008D8  A$_sms_manager$685                 _sms_manager
     000008DB  A$_sms_manager$686                 _sms_manager
     000008DC  A$_sms_manager$687                 _sms_manager
     000008DD  A$_sms_manager$688                 _sms_manager
     000008DE  A$_sms_manager$689                 _sms_manager
     000008DF  A$_sms_manager$690                 _sms_manager
     000008E2  A$_sms_manager$691                 _sms_manager
     000008E3  A$_sms_manager$692                 _sms_manager
     000008E4  A$_sms_manager$697                 _sms_manager
     000008E4  C$_sms_manager.c$102$1$119         _sms_manager
     000008E4  XG$devkit_SMS_addSprite$0$0        _sms_manager
     000008E5  A$_sms_manager$714                 _sms_manager
     000008E5  C$_sms_manager.c$104$1$119         _sms_manager
     000008E5  C$_sms_manager.c$106$1$120         _sms_manager
     000008E5  C$_sms_manager.c$107$1$120         _sms_manager
ASxxxx Linker V03.00 + NoICE + sdld,  page 11.
Hexadecimal  [32-Bits]

Area                                    Addr        Size        Decimal Bytes (Attributes)
--------------------------------        ----        ----        ------- ----- ------------
_CODE                               00000200    0000438F =       17295. bytes (REL,CON)

      Value  Global                              Global Defined In Module
      -----  --------------------------------   ------------------------
     000008E5  G$devkit_SMS_initSprites$0$0       _sms_manager
     000008E5  XG$devkit_SMS_initSprites$0$0      _sms_manager
     000008E5  _devkit_SMS_initSprites            _sms_manager
     000008E8  A$_sms_manager$731                 _sms_manager
     000008E8  C$_sms_manager.c$108$1$120         _sms_manager
     000008E8  C$_sms_manager.c$110$1$121         _sms_manager
     000008E8  C$_sms_manager.c$111$1$121         _sms_manager
     000008E8  G$devkit_SMS_finalizeSprites$0$0   _sms_manager
     000008E8  XG$devkit_SMS_finalizeSprites$0$   _sms_manager
     000008E8  _devkit_SMS_finalizeSprites        _sms_manager
     000008EB  A$_sms_manager$748                 _sms_manager
     000008EB  C$_sms_manager.c$112$1$121         _sms_manager
     000008EB  C$_sms_manager.c$114$1$122         _sms_manager
     000008EB  C$_sms_manager.c$115$1$122         _sms_manager
     000008EB  G$devkit_SMS_waitForVBlank$0$0     _sms_manager
     000008EB  XG$devkit_SMS_waitForVBlank$0$0    _sms_manager
     000008EB  _devkit_SMS_waitForVBlank          _sms_manager
     000008EE  A$_sms_manager$765                 _sms_manager
     000008EE  C$_sms_manager.c$116$1$122         _sms_manager
     000008EE  C$_sms_manager.c$118$1$123         _sms_manager
     000008EE  C$_sms_manager.c$119$1$123         _sms_manager
     000008EE  G$devkit_SMS_copySpritestoSAT$0$   _sms_manager
     000008EE  XG$devkit_SMS_copySpritestoSAT$0   _sms_manager
     000008EE  _devkit_SMS_copySpritestoSAT       _sms_manager
     000008F1  A$_sms_manager$782                 _sms_manager
     000008F1  C$_sms_manager.c$120$1$123         _sms_manager
     000008F1  C$_sms_manager.c$122$1$124         _sms_manager
     000008F1  C$_sms_manager.c$123$1$124         _sms_manager
     000008F1  G$devkit_UNSAFE_SMS_copySpritest   _sms_manager
     000008F1  XG$devkit_UNSAFE_SMS_copySprites   _sms_manager
     000008F1  _devkit_UNSAFE_SMS_copySpritesto   _sms_manager
     000008F4  A$_sms_manager$795                 _sms_manager
     000008F4  C$_sms_manager.c$124$1$124         _sms_manager
     000008F4  C$_sms_manager.c$126$1$126         _sms_manager
     000008F4  G$devkit_UNSAFE_SMS_VRAMmemcpy32   _sms_manager
     000008F4  _devkit_UNSAFE_SMS_VRAMmemcpy32    _sms_manager
     000008F7  A$_sms_manager$796                 _sms_manager
     000008F8  A$_sms_manager$797                 _sms_manager
     000008F9  A$_sms_manager$798                 _sms_manager
     000008FA  A$_sms_manager$799                 _sms_manager
     000008FB  A$_sms_manager$800                 _sms_manager
     000008FC  A$_sms_manager$801                 _sms_manager
     000008FF  A$_sms_manager$802                 _sms_manager
     00000900  A$_sms_manager$803                 _sms_manager
     00000901  A$_sms_manager$804                 _sms_manager
     00000902  A$_sms_manager$805                 _sms_manager
     00000903  A$_sms_manager$806                 _sms_manager
     00000904  A$_sms_manager$807                 _sms_manager
     00000907  A$_sms_manager$808                 _sms_manager
     00000908  A$_sms_manager$809                 _sms_manager
     00000909  A$_sms_manager$814                 _sms_manager
ASxxxx Linker V03.00 + NoICE + sdld,  page 12.
Hexadecimal  [32-Bits]

Area                                    Addr        Size        Decimal Bytes (Attributes)
--------------------------------        ----        ----        ------- ----- ------------
_CODE                               00000200    0000438F =       17295. bytes (REL,CON)

      Value  Global                              Global Defined In Module
      -----  --------------------------------   ------------------------
     00000909  C$_sms_manager.c$127$1$126         _sms_manager
     00000909  XG$devkit_UNSAFE_SMS_VRAMmemcpy3   _sms_manager
     0000090A  A$_sms_manager$827                 _sms_manager
     0000090A  C$_sms_manager.c$128$1$126         _sms_manager
     0000090A  C$_sms_manager.c$130$1$128         _sms_manager
     0000090A  G$devkit_UNSAFE_SMS_VRAMmemcpy64   _sms_manager
     0000090A  _devkit_UNSAFE_SMS_VRAMmemcpy64    _sms_manager
     0000090D  A$_sms_manager$828                 _sms_manager
     0000090E  A$_sms_manager$829                 _sms_manager
     0000090F  A$_sms_manager$830                 _sms_manager
     00000910  A$_sms_manager$831                 _sms_manager
     00000911  A$_sms_manager$832                 _sms_manager
     00000912  A$_sms_manager$833                 _sms_manager
     00000915  A$_sms_manager$834                 _sms_manager
     00000916  A$_sms_manager$835                 _sms_manager
     00000917  A$_sms_manager$836                 _sms_manager
     00000918  A$_sms_manager$837                 _sms_manager
     00000919  A$_sms_manager$838                 _sms_manager
     0000091A  A$_sms_manager$839                 _sms_manager
     0000091D  A$_sms_manager$840                 _sms_manager
     0000091E  A$_sms_manager$841                 _sms_manager
     0000091F  A$_sms_manager$846                 _sms_manager
     0000091F  C$_sms_manager.c$131$1$128         _sms_manager
     0000091F  XG$devkit_UNSAFE_SMS_VRAMmemcpy6   _sms_manager
     00000920  A$_sms_manager$859                 _sms_manager
     00000920  C$_sms_manager.c$132$1$128         _sms_manager
     00000920  C$_sms_manager.c$134$1$130         _sms_manager
     00000920  G$devkit_UNSAFE_SMS_VRAMmemcpy12   _sms_manager
     00000920  _devkit_UNSAFE_SMS_VRAMmemcpy128   _sms_manager
     00000923  A$_sms_manager$860                 _sms_manager
     00000924  A$_sms_manager$861                 _sms_manager
     00000925  A$_sms_manager$862                 _sms_manager
     00000926  A$_sms_manager$863                 _sms_manager
     00000927  A$_sms_manager$864                 _sms_manager
     00000928  A$_sms_manager$865                 _sms_manager
     0000092B  A$_sms_manager$866                 _sms_manager
     0000092C  A$_sms_manager$867                 _sms_manager
     0000092D  A$_sms_manager$868                 _sms_manager
     0000092E  A$_sms_manager$869                 _sms_manager
     0000092F  A$_sms_manager$870                 _sms_manager
     00000930  A$_sms_manager$871                 _sms_manager
     00000933  A$_sms_manager$872                 _sms_manager
     00000934  A$_sms_manager$873                 _sms_manager
     00000935  A$_sms_manager$878                 _sms_manager
     00000935  C$_sms_manager.c$135$1$130         _sms_manager
     00000935  XG$devkit_UNSAFE_SMS_VRAMmemcpy1   _sms_manager
     00000936  A$_sms_manager$895                 _sms_manager
     00000936  C$_sms_manager.c$137$1$130         _sms_manager
     00000936  C$_sms_manager.c$139$1$131         _sms_manager
     00000936  C$_sms_manager.c$140$1$131         _sms_manager
     00000936  G$devkit_SMS_queryPauseRequested   _sms_manager
ASxxxx Linker V03.00 + NoICE + sdld,  page 13.
Hexadecimal  [32-Bits]

Area                                    Addr        Size        Decimal Bytes (Attributes)
--------------------------------        ----        ----        ------- ----- ------------
_CODE                               00000200    0000438F =       17295. bytes (REL,CON)

      Value  Global                              Global Defined In Module
      -----  --------------------------------   ------------------------
     00000936  XG$devkit_SMS_queryPauseRequeste   _sms_manager
     00000936  _devkit_SMS_queryPauseRequested    _sms_manager
     00000939  A$_sms_manager$912                 _sms_manager
     00000939  C$_sms_manager.c$141$1$131         _sms_manager
     00000939  C$_sms_manager.c$143$1$132         _sms_manager
     00000939  C$_sms_manager.c$144$1$132         _sms_manager
     00000939  G$devkit_SMS_resetPauseRequest$0   _sms_manager
     00000939  XG$devkit_SMS_resetPauseRequest$   _sms_manager
     00000939  _devkit_SMS_resetPauseRequest      _sms_manager
     0000093C  A$_sms_manager$929                 _sms_manager
     0000093C  C$_sms_manager.c$147$1$132         _sms_manager
     0000093C  C$_sms_manager.c$149$1$133         _sms_manager
     0000093C  C$_sms_manager.c$150$1$133         _sms_manager
     0000093C  G$devkit_SMS_getKeysStatus$0$0     _sms_manager
     0000093C  XG$devkit_SMS_getKeysStatus$0$0    _sms_manager
     0000093C  _devkit_SMS_getKeysStatus          _sms_manager
     0000093F  A$_sms_manager$946                 _sms_manager
     0000093F  C$_sms_manager.c$151$1$133         _sms_manager
     0000093F  C$_sms_manager.c$153$1$134         _sms_manager
     0000093F  C$_sms_manager.c$154$1$134         _sms_manager
     0000093F  G$devkit_SMS_getKeysPressed$0$0    _sms_manager
     0000093F  XG$devkit_SMS_getKeysPressed$0$0   _sms_manager
     0000093F  _devkit_SMS_getKeysPressed         _sms_manager
     00000942  A$_sms_manager$963                 _sms_manager
     00000942  C$_sms_manager.c$155$1$134         _sms_manager
     00000942  C$_sms_manager.c$157$1$135         _sms_manager
     00000942  C$_sms_manager.c$158$1$135         _sms_manager
     00000942  G$devkit_SMS_getKeysHeld$0$0       _sms_manager
     00000942  XG$devkit_SMS_getKeysHeld$0$0      _sms_manager
     00000942  _devkit_SMS_getKeysHeld            _sms_manager
     00000945  A$_sms_manager$980                 _sms_manager
     00000945  C$_sms_manager.c$159$1$135         _sms_manager
     00000945  C$_sms_manager.c$161$1$136         _sms_manager
     00000945  C$_sms_manager.c$162$1$136         _sms_manager
     00000945  G$devkit_SMS_getKeysReleased$0$0   _sms_manager
     00000945  XG$devkit_SMS_getKeysReleased$0$   _sms_manager
     00000945  _devkit_SMS_getKeysReleased        _sms_manager
     00000948  A$_sms_manager$993                 _sms_manager
     00000948  C$_sms_manager.c$164$1$136         _sms_manager
     00000948  C$_sms_manager.c$166$1$137         _sms_manager
     00000948  G$devkit_PORT_A_KEY_UP$0$0         _sms_manager
     00000948  _devkit_PORT_A_KEY_UP              _sms_manager
     0000094B  A$_sms_manager$998                 _sms_manager
     0000094B  C$_sms_manager.c$167$1$137         _sms_manager
     0000094B  XG$devkit_PORT_A_KEY_UP$0$0        _sms_manager
     0000094C  A$_sms_manager$1011                _sms_manager
     0000094C  C$_sms_manager.c$168$1$137         _sms_manager
     0000094C  C$_sms_manager.c$170$1$138         _sms_manager
     0000094C  G$devkit_PORT_A_KEY_DOWN$0$0       _sms_manager
     0000094C  _devkit_PORT_A_KEY_DOWN            _sms_manager
     0000094F  A$_sms_manager$1016                _sms_manager
ASxxxx Linker V03.00 + NoICE + sdld,  page 14.
Hexadecimal  [32-Bits]

Area                                    Addr        Size        Decimal Bytes (Attributes)
--------------------------------        ----        ----        ------- ----- ------------
_CODE                               00000200    0000438F =       17295. bytes (REL,CON)

      Value  Global                              Global Defined In Module
      -----  --------------------------------   ------------------------
     0000094F  C$_sms_manager.c$171$1$138         _sms_manager
     0000094F  XG$devkit_PORT_A_KEY_DOWN$0$0      _sms_manager
     00000950  A$_sms_manager$1029                _sms_manager
     00000950  C$_sms_manager.c$172$1$138         _sms_manager
     00000950  C$_sms_manager.c$174$1$139         _sms_manager
     00000950  G$devkit_PORT_A_KEY_LEFT$0$0       _sms_manager
     00000950  _devkit_PORT_A_KEY_LEFT            _sms_manager
     00000953  A$_sms_manager$1034                _sms_manager
     00000953  C$_sms_manager.c$175$1$139         _sms_manager
     00000953  XG$devkit_PORT_A_KEY_LEFT$0$0      _sms_manager
     00000954  A$_sms_manager$1047                _sms_manager
     00000954  C$_sms_manager.c$176$1$139         _sms_manager
     00000954  C$_sms_manager.c$178$1$140         _sms_manager
     00000954  G$devkit_PORT_A_KEY_RIGHT$0$0      _sms_manager
     00000954  _devkit_PORT_A_KEY_RIGHT           _sms_manager
     00000957  A$_sms_manager$1052                _sms_manager
     00000957  C$_sms_manager.c$179$1$140         _sms_manager
     00000957  XG$devkit_PORT_A_KEY_RIGHT$0$0     _sms_manager
     00000958  A$_sms_manager$1065                _sms_manager
     00000958  C$_sms_manager.c$180$1$140         _sms_manager
     00000958  C$_sms_manager.c$182$1$141         _sms_manager
     00000958  G$devkit_PORT_A_KEY_1$0$0          _sms_manager
     00000958  _devkit_PORT_A_KEY_1               _sms_manager
     0000095B  A$_sms_manager$1070                _sms_manager
     0000095B  C$_sms_manager.c$183$1$141         _sms_manager
     0000095B  XG$devkit_PORT_A_KEY_1$0$0         _sms_manager
     0000095C  A$_sms_manager$1083                _sms_manager
     0000095C  C$_sms_manager.c$184$1$141         _sms_manager
     0000095C  C$_sms_manager.c$186$1$142         _sms_manager
     0000095C  G$devkit_PORT_A_KEY_2$0$0          _sms_manager
     0000095C  _devkit_PORT_A_KEY_2               _sms_manager
     0000095F  A$_sms_manager$1088                _sms_manager
     0000095F  C$_sms_manager.c$187$1$142         _sms_manager
     0000095F  XG$devkit_PORT_A_KEY_2$0$0         _sms_manager
     00000960  A$_sms_manager$1101                _sms_manager
     00000960  C$_sms_manager.c$190$1$142         _sms_manager
     00000960  C$_sms_manager.c$192$1$144         _sms_manager
     00000960  G$devkit_SMS_VRAMmemcpy$0$0        _sms_manager
     00000960  _devkit_SMS_VRAMmemcpy             _sms_manager
     00000963  A$_sms_manager$1102                _sms_manager
     00000964  A$_sms_manager$1103                _sms_manager
     00000965  A$_sms_manager$1104                _sms_manager
     00000966  A$_sms_manager$1105                _sms_manager
     00000967  A$_sms_manager$1106                _sms_manager
     00000968  A$_sms_manager$1107                _sms_manager
     0000096B  A$_sms_manager$1108                _sms_manager
     0000096C  A$_sms_manager$1109                _sms_manager
     0000096D  A$_sms_manager$1110                _sms_manager
     0000096E  A$_sms_manager$1111                _sms_manager
     0000096F  A$_sms_manager$1112                _sms_manager
     00000970  A$_sms_manager$1113                _sms_manager
ASxxxx Linker V03.00 + NoICE + sdld,  page 15.
Hexadecimal  [32-Bits]

Area                                    Addr        Size        Decimal Bytes (Attributes)
--------------------------------        ----        ----        ------- ----- ------------
_CODE                               00000200    0000438F =       17295. bytes (REL,CON)

      Value  Global                              Global Defined In Module
      -----  --------------------------------   ------------------------
     00000973  A$_sms_manager$1114                _sms_manager
     00000974  A$_sms_manager$1115                _sms_manager
     00000975  A$_sms_manager$1116                _sms_manager
     00000976  A$_sms_manager$1117                _sms_manager
     00000977  A$_sms_manager$1118                _sms_manager
     00000978  A$_sms_manager$1119                _sms_manager
     0000097B  A$_sms_manager$1120                _sms_manager
     0000097E  A$_sms_manager$1121                _sms_manager
     0000097F  A$_sms_manager$1122                _sms_manager
     00000980  A$_sms_manager$1127                _sms_manager
     00000980  C$_sms_manager.c$193$1$144         _sms_manager
     00000980  XG$devkit_SMS_VRAMmemcpy$0$0       _sms_manager
     00000981  A$_sms_manager$1140                _sms_manager
     00000981  C$_sms_manager.c$194$1$144         _sms_manager
     00000981  C$_sms_manager.c$196$1$146         _sms_manager
     00000981  G$devkit_SMS_VRAMmemcpy_brief$0$   _sms_manager
     00000981  _devkit_SMS_VRAMmemcpy_brief       _sms_manager
     00000984  A$_sms_manager$1141                _sms_manager
     00000985  A$_sms_manager$1142                _sms_manager
     00000986  A$_sms_manager$1143                _sms_manager
     00000987  A$_sms_manager$1144                _sms_manager
     00000988  A$_sms_manager$1145                _sms_manager
     0000098B  A$_sms_manager$1146                _sms_manager
     0000098C  A$_sms_manager$1147                _sms_manager
     0000098D  A$_sms_manager$1148                _sms_manager
     0000098E  A$_sms_manager$1149                _sms_manager
     0000098F  A$_sms_manager$1150                _sms_manager
     00000990  A$_sms_manager$1151                _sms_manager
     00000993  A$_sms_manager$1152                _sms_manager
     00000994  A$_sms_manager$1153                _sms_manager
     00000995  A$_sms_manager$1154                _sms_manager
     00000996  A$_sms_manager$1155                _sms_manager
     00000997  A$_sms_manager$1156                _sms_manager
     00000998  A$_sms_manager$1157                _sms_manager
     0000099B  A$_sms_manager$1158                _sms_manager
     0000099C  A$_sms_manager$1159                _sms_manager
     0000099D  A$_sms_manager$1160                _sms_manager
     0000099E  A$_sms_manager$1165                _sms_manager
     0000099E  C$_sms_manager.c$197$1$146         _sms_manager
     0000099E  XG$devkit_SMS_VRAMmemcpy_brief$0   _sms_manager
     0000099F  A$_sms_manager$1178                _sms_manager
     0000099F  C$_sms_manager.c$198$1$146         _sms_manager
     0000099F  C$_sms_manager.c$200$1$148         _sms_manager
     0000099F  G$devkit_SMS_VRAMmemset$0$0        _sms_manager
     0000099F  _devkit_SMS_VRAMmemset             _sms_manager
     000009A2  A$_sms_manager$1179                _sms_manager
     000009A3  A$_sms_manager$1180                _sms_manager
     000009A4  A$_sms_manager$1181                _sms_manager
     000009A5  A$_sms_manager$1182                _sms_manager
     000009A6  A$_sms_manager$1183                _sms_manager
     000009A7  A$_sms_manager$1184                _sms_manager
ASxxxx Linker V03.00 + NoICE + sdld,  page 16.
Hexadecimal  [32-Bits]

Area                                    Addr        Size        Decimal Bytes (Attributes)
--------------------------------        ----        ----        ------- ----- ------------
_CODE                               00000200    0000438F =       17295. bytes (REL,CON)

      Value  Global                              Global Defined In Module
      -----  --------------------------------   ------------------------
     000009AA  A$_sms_manager$1185                _sms_manager
     000009AB  A$_sms_manager$1186                _sms_manager
     000009AC  A$_sms_manager$1187                _sms_manager
     000009AD  A$_sms_manager$1188                _sms_manager
     000009AE  A$_sms_manager$1189                _sms_manager
     000009B1  A$_sms_manager$1190                _sms_manager
     000009B2  A$_sms_manager$1191                _sms_manager
     000009B3  A$_sms_manager$1192                _sms_manager
     000009B4  A$_sms_manager$1193                _sms_manager
     000009B5  A$_sms_manager$1194                _sms_manager
     000009B6  A$_sms_manager$1195                _sms_manager
     000009B9  A$_sms_manager$1196                _sms_manager
     000009BA  A$_sms_manager$1197                _sms_manager
     000009BB  A$_sms_manager$1198                _sms_manager
     000009BC  A$_sms_manager$1203                _sms_manager
     000009BC  C$_sms_manager.c$201$1$148         _sms_manager
     000009BC  XG$devkit_SMS_VRAMmemset$0$0       _sms_manager
     000009BD  A$_sms_manager$1216                _sms_manager
     000009BD  C$_sms_manager.c$202$1$148         _sms_manager
     000009BD  C$_sms_manager.c$204$1$150         _sms_manager
     000009BD  G$devkit_SMS_VRAMmemsetW$0$0       _sms_manager
     000009BD  _devkit_SMS_VRAMmemsetW            _sms_manager
     000009C0  A$_sms_manager$1217                _sms_manager
     000009C1  A$_sms_manager$1218                _sms_manager
     000009C2  A$_sms_manager$1219                _sms_manager
     000009C3  A$_sms_manager$1220                _sms_manager
     000009C4  A$_sms_manager$1221                _sms_manager
     000009C5  A$_sms_manager$1222                _sms_manager
     000009C8  A$_sms_manager$1223                _sms_manager
     000009C9  A$_sms_manager$1224                _sms_manager
     000009CA  A$_sms_manager$1225                _sms_manager
     000009CB  A$_sms_manager$1226                _sms_manager
     000009CC  A$_sms_manager$1227                _sms_manager
     000009CD  A$_sms_manager$1228                _sms_manager
     000009D0  A$_sms_manager$1229                _sms_manager
     000009D1  A$_sms_manager$1230                _sms_manager
     000009D2  A$_sms_manager$1231                _sms_manager
     000009D3  A$_sms_manager$1232                _sms_manager
     000009D4  A$_sms_manager$1233                _sms_manager
     000009D5  A$_sms_manager$1234                _sms_manager
     000009D8  A$_sms_manager$1235                _sms_manager
     000009DB  A$_sms_manager$1236                _sms_manager
     000009DC  A$_sms_manager$1237                _sms_manager
     000009DD  A$_sms_manager$1242                _sms_manager
     000009DD  C$_sms_manager.c$205$1$150         _sms_manager
     000009DD  XG$devkit_SMS_VRAMmemsetW$0$0      _sms_manager
     000009DE  A$_sms_manager$1255                _sms_manager
     000009DE  C$_sms_manager.c$208$1$150         _sms_manager
     000009DE  C$_sms_manager.c$210$1$153         _sms_manager
     000009DE  G$devkit_SMS_setLineInterruptHan   _sms_manager
     000009DE  _devkit_SMS_setLineInterruptHand   _sms_manager
ASxxxx Linker V03.00 + NoICE + sdld,  page 17.
Hexadecimal  [32-Bits]

Area                                    Addr        Size        Decimal Bytes (Attributes)
--------------------------------        ----        ----        ------- ----- ------------
_CODE                               00000200    0000438F =       17295. bytes (REL,CON)

      Value  Global                              Global Defined In Module
      -----  --------------------------------   ------------------------
     000009DF  A$_sms_manager$1256                _sms_manager
     000009E0  A$_sms_manager$1257                _sms_manager
     000009E1  A$_sms_manager$1258                _sms_manager
     000009E2  A$_sms_manager$1259                _sms_manager
     000009E3  A$_sms_manager$1260                _sms_manager
     000009E6  A$_sms_manager$1261                _sms_manager
     000009E7  A$_sms_manager$1266                _sms_manager
     000009E7  C$_sms_manager.c$211$1$153         _sms_manager
     000009E7  XG$devkit_SMS_setLineInterruptHa   _sms_manager
     000009E8  A$_sms_manager$1279                _sms_manager
     000009E8  C$_sms_manager.c$212$1$153         _sms_manager
     000009E8  C$_sms_manager.c$214$1$155         _sms_manager
     000009E8  G$devkit_SMS_setLineCounter$0$0    _sms_manager
     000009E8  _devkit_SMS_setLineCounter         _sms_manager
     000009EB  A$_sms_manager$1280                _sms_manager
     000009EC  A$_sms_manager$1281                _sms_manager
     000009ED  A$_sms_manager$1282                _sms_manager
     000009EE  A$_sms_manager$1283                _sms_manager
     000009EF  A$_sms_manager$1284                _sms_manager
     000009F2  A$_sms_manager$1285                _sms_manager
     000009F3  A$_sms_manager$1290                _sms_manager
     000009F3  C$_sms_manager.c$215$1$155         _sms_manager
     000009F3  XG$devkit_SMS_setLineCounter$0$0   _sms_manager
     000009F4  A$_sms_manager$1303                _sms_manager
     000009F4  C$_sms_manager.c$216$1$155         _sms_manager
     000009F4  C$_sms_manager.c$218$1$156         _sms_manager
     000009F4  G$devkit_SMS_enableLineInterrupt   _sms_manager
     000009F4  _devkit_SMS_enableLineInterrupt    _sms_manager
     000009F7  A$_sms_manager$1308                _sms_manager
     000009F7  C$_sms_manager.c$219$1$156         _sms_manager
     000009F7  XG$devkit_SMS_enableLineInterrup   _sms_manager
     000009FA  A$_sms_manager$1321                _sms_manager
     000009FA  C$_sms_manager.c$220$1$156         _sms_manager
     000009FA  C$_sms_manager.c$222$1$157         _sms_manager
     000009FA  G$devkit_SMS_disableLineInterrup   _sms_manager
     000009FA  _devkit_SMS_disableLineInterrupt   _sms_manager
     000009FD  A$_sms_manager$1326                _sms_manager
     000009FD  C$_sms_manager.c$223$1$157         _sms_manager
     000009FD  XG$devkit_SMS_disableLineInterru   _sms_manager
     00000A00  A$_sms_manager$1339                _sms_manager
     00000A00  C$_sms_manager.c$226$1$157         _sms_manager
     00000A00  C$_sms_manager.c$228$1$158         _sms_manager
     00000A00  G$devkit_VDPFEATURE_HIDEFIRSTCOL   _sms_manager
     00000A00  _devkit_VDPFEATURE_HIDEFIRSTCOL    _sms_manager
     00000A03  A$_sms_manager$1344                _sms_manager
     00000A03  C$_sms_manager.c$229$1$158         _sms_manager
     00000A03  XG$devkit_VDPFEATURE_HIDEFIRSTCO   _sms_manager
     00000A04  A$_sms_manager$1357                _sms_manager
     00000A04  C$_sms_manager.c$230$1$158         _sms_manager
     00000A04  C$_sms_manager.c$232$1$159         _sms_manager
     00000A04  G$devkit_VDPFEATURE_LEFTCOLBLANK   _sms_manager
ASxxxx Linker V03.00 + NoICE + sdld,  page 18.
Hexadecimal  [32-Bits]

Area                                    Addr        Size        Decimal Bytes (Attributes)
--------------------------------        ----        ----        ------- ----- ------------
_CODE                               00000200    0000438F =       17295. bytes (REL,CON)

      Value  Global                              Global Defined In Module
      -----  --------------------------------   ------------------------
     00000A04  _devkit_VDPFEATURE_LEFTCOLBLANK    _sms_manager
     00000A07  A$_sms_manager$1362                _sms_manager
     00000A07  C$_sms_manager.c$233$1$159         _sms_manager
     00000A07  XG$devkit_VDPFEATURE_LEFTCOLBLAN   _sms_manager
     00000A08  A$_sms_manager$1375                _sms_manager
     00000A08  C$_sms_manager.c$234$1$159         _sms_manager
     00000A08  C$_sms_manager.c$236$1$160         _sms_manager
     00000A08  G$devkit_SPRITEMODE_NORMAL$0$0     _sms_manager
     00000A08  _devkit_SPRITEMODE_NORMAL          _sms_manager
     00000A0A  A$_sms_manager$1380                _sms_manager
     00000A0A  C$_sms_manager.c$237$1$160         _sms_manager
     00000A0A  XG$devkit_SPRITEMODE_NORMAL$0$0    _sms_manager
     00000A0B  F_sms_manager$__str_0$0$0          _sms_manager
     00000A19  F_sms_manager$__str_1$0$0          _sms_manager
     00000A24  F_sms_manager$__str_2$0$0          _sms_manager
     00000A4C  A$_snd_manager$89                  _snd_manager
     00000A4C  C$_snd_manager.c$11$1$34           _snd_manager
     00000A4C  C$_snd_manager.c$9$0$0             _snd_manager
     00000A4C  G$devkit_PSGPlay$0$0               _snd_manager
     00000A4C  _devkit_PSGPlay                    _snd_manager
     00000A4D  A$_snd_manager$90                  _snd_manager
     00000A4E  A$_snd_manager$91                  _snd_manager
     00000A4F  A$_snd_manager$92                  _snd_manager
     00000A50  A$_snd_manager$93                  _snd_manager
     00000A51  A$_snd_manager$94                  _snd_manager
     00000A54  A$_snd_manager$95                  _snd_manager
     00000A55  A$_snd_manager$100                 _snd_manager
     00000A55  C$_snd_manager.c$12$1$34           _snd_manager
     00000A55  XG$devkit_PSGPlay$0$0              _snd_manager
     00000A56  A$_snd_manager$117                 _snd_manager
     00000A56  C$_snd_manager.c$13$1$34           _snd_manager
     00000A56  C$_snd_manager.c$15$1$36           _snd_manager
     00000A56  C$_snd_manager.c$16$1$36           _snd_manager
     00000A56  G$devkit_PSGCancelLoop$0$0         _snd_manager
     00000A56  XG$devkit_PSGCancelLoop$0$0        _snd_manager
     00000A56  _devkit_PSGCancelLoop              _snd_manager
     00000A59  A$_snd_manager$130                 _snd_manager
     00000A59  C$_snd_manager.c$17$1$36           _snd_manager
     00000A59  C$_snd_manager.c$19$1$38           _snd_manager
     00000A59  G$devkit_PSGPlayNoRepeat$0$0       _snd_manager
     00000A59  _devkit_PSGPlayNoRepeat            _snd_manager
     00000A5A  A$_snd_manager$131                 _snd_manager
     00000A5B  A$_snd_manager$132                 _snd_manager
     00000A5C  A$_snd_manager$133                 _snd_manager
     00000A5D  A$_snd_manager$134                 _snd_manager
     00000A5E  A$_snd_manager$135                 _snd_manager
     00000A61  A$_snd_manager$136                 _snd_manager
     00000A62  A$_snd_manager$141                 _snd_manager
     00000A62  C$_snd_manager.c$20$1$38           _snd_manager
     00000A62  XG$devkit_PSGPlayNoRepeat$0$0      _snd_manager
     00000A63  A$_snd_manager$158                 _snd_manager
ASxxxx Linker V03.00 + NoICE + sdld,  page 19.
Hexadecimal  [32-Bits]

Area                                    Addr        Size        Decimal Bytes (Attributes)
--------------------------------        ----        ----        ------- ----- ------------
_CODE                               00000200    0000438F =       17295. bytes (REL,CON)

      Value  Global                              Global Defined In Module
      -----  --------------------------------   ------------------------
     00000A63  C$_snd_manager.c$21$1$38           _snd_manager
     00000A63  C$_snd_manager.c$23$1$40           _snd_manager
     00000A63  C$_snd_manager.c$24$1$40           _snd_manager
     00000A63  G$devkit_PSGStop$0$0               _snd_manager
     00000A63  XG$devkit_PSGStop$0$0              _snd_manager
     00000A63  _devkit_PSGStop                    _snd_manager
     00000A66  A$_snd_manager$175                 _snd_manager
     00000A66  C$_snd_manager.c$25$1$40           _snd_manager
     00000A66  C$_snd_manager.c$27$1$42           _snd_manager
     00000A66  C$_snd_manager.c$28$1$42           _snd_manager
     00000A66  G$devkit_PSGResume$0$0             _snd_manager
     00000A66  XG$devkit_PSGResume$0$0            _snd_manager
     00000A66  _devkit_PSGResume                  _snd_manager
     00000A69  A$_snd_manager$192                 _snd_manager
     00000A69  C$_snd_manager.c$29$1$42           _snd_manager
     00000A69  C$_snd_manager.c$31$1$44           _snd_manager
     00000A69  C$_snd_manager.c$32$1$44           _snd_manager
     00000A69  G$devkit_PSGGetStatus$0$0          _snd_manager
     00000A69  XG$devkit_PSGGetStatus$0$0         _snd_manager
     00000A69  _devkit_PSGGetStatus               _snd_manager
     00000A6C  A$_snd_manager$205                 _snd_manager
     00000A6C  C$_snd_manager.c$33$1$44           _snd_manager
     00000A6C  C$_snd_manager.c$35$1$46           _snd_manager
     00000A6C  G$devkit_PSGSetMusicVolumeAttenu   _snd_manager
     00000A6C  _devkit_PSGSetMusicVolumeAttenua   _snd_manager
     00000A6F  A$_snd_manager$206                 _snd_manager
     00000A70  A$_snd_manager$207                 _snd_manager
     00000A71  A$_snd_manager$208                 _snd_manager
     00000A72  A$_snd_manager$209                 _snd_manager
     00000A73  A$_snd_manager$210                 _snd_manager
     00000A76  A$_snd_manager$211                 _snd_manager
     00000A77  A$_snd_manager$216                 _snd_manager
     00000A77  C$_snd_manager.c$36$1$46           _snd_manager
     00000A77  XG$devkit_PSGSetMusicVolumeAtten   _snd_manager
     00000A78  A$_snd_manager$229                 _snd_manager
     00000A78  C$_snd_manager.c$38$1$46           _snd_manager
     00000A78  C$_snd_manager.c$40$1$48           _snd_manager
     00000A78  G$devkit_PSGSFXPlay$0$0            _snd_manager
     00000A78  _devkit_PSGSFXPlay                 _snd_manager
     00000A7B  A$_snd_manager$230                 _snd_manager
     00000A7C  A$_snd_manager$231                 _snd_manager
     00000A7D  A$_snd_manager$232                 _snd_manager
     00000A7E  A$_snd_manager$233                 _snd_manager
     00000A7F  A$_snd_manager$234                 _snd_manager
     00000A82  A$_snd_manager$235                 _snd_manager
     00000A83  A$_snd_manager$236                 _snd_manager
     00000A84  A$_snd_manager$237                 _snd_manager
     00000A85  A$_snd_manager$238                 _snd_manager
     00000A86  A$_snd_manager$239                 _snd_manager
     00000A87  A$_snd_manager$240                 _snd_manager
     00000A8A  A$_snd_manager$241                 _snd_manager
ASxxxx Linker V03.00 + NoICE + sdld,  page 20.
Hexadecimal  [32-Bits]

Area                                    Addr        Size        Decimal Bytes (Attributes)
--------------------------------        ----        ----        ------- ----- ------------
_CODE                               00000200    0000438F =       17295. bytes (REL,CON)

      Value  Global                              Global Defined In Module
      -----  --------------------------------   ------------------------
     00000A8B  A$_snd_manager$242                 _snd_manager
     00000A8C  A$_snd_manager$247                 _snd_manager
     00000A8C  C$_snd_manager.c$41$1$48           _snd_manager
     00000A8C  XG$devkit_PSGSFXPlay$0$0           _snd_manager
     00000A8D  A$_snd_manager$260                 _snd_manager
     00000A8D  C$_snd_manager.c$42$1$48           _snd_manager
     00000A8D  C$_snd_manager.c$44$1$50           _snd_manager
     00000A8D  G$devkit_PSGSFXPlayLoop$0$0        _snd_manager
     00000A8D  _devkit_PSGSFXPlayLoop             _snd_manager
     00000A90  A$_snd_manager$261                 _snd_manager
     00000A91  A$_snd_manager$262                 _snd_manager
     00000A92  A$_snd_manager$263                 _snd_manager
     00000A93  A$_snd_manager$264                 _snd_manager
     00000A94  A$_snd_manager$265                 _snd_manager
     00000A97  A$_snd_manager$266                 _snd_manager
     00000A98  A$_snd_manager$267                 _snd_manager
     00000A99  A$_snd_manager$268                 _snd_manager
     00000A9A  A$_snd_manager$269                 _snd_manager
     00000A9B  A$_snd_manager$270                 _snd_manager
     00000A9C  A$_snd_manager$271                 _snd_manager
     00000A9F  A$_snd_manager$272                 _snd_manager
     00000AA0  A$_snd_manager$273                 _snd_manager
     00000AA1  A$_snd_manager$278                 _snd_manager
     00000AA1  C$_snd_manager.c$45$1$50           _snd_manager
     00000AA1  XG$devkit_PSGSFXPlayLoop$0$0       _snd_manager
     00000AA2  A$_snd_manager$295                 _snd_manager
     00000AA2  C$_snd_manager.c$46$1$50           _snd_manager
     00000AA2  C$_snd_manager.c$48$1$52           _snd_manager
     00000AA2  C$_snd_manager.c$49$1$52           _snd_manager
     00000AA2  G$devkit_PSGSFXCancelLoop$0$0      _snd_manager
     00000AA2  XG$devkit_PSGSFXCancelLoop$0$0     _snd_manager
     00000AA2  _devkit_PSGSFXCancelLoop           _snd_manager
     00000AA5  A$_snd_manager$312                 _snd_manager
     00000AA5  C$_snd_manager.c$50$1$52           _snd_manager
     00000AA5  C$_snd_manager.c$52$1$54           _snd_manager
     00000AA5  C$_snd_manager.c$53$1$54           _snd_manager
     00000AA5  G$devkit_PSGSFXStop$0$0            _snd_manager
     00000AA5  XG$devkit_PSGSFXStop$0$0           _snd_manager
     00000AA5  _devkit_PSGSFXStop                 _snd_manager
     00000AA8  A$_snd_manager$329                 _snd_manager
     00000AA8  C$_snd_manager.c$54$1$54           _snd_manager
     00000AA8  C$_snd_manager.c$56$1$56           _snd_manager
     00000AA8  C$_snd_manager.c$57$1$56           _snd_manager
     00000AA8  G$devkit_PSGSFXGetStatus$0$0       _snd_manager
     00000AA8  XG$devkit_PSGSFXGetStatus$0$0      _snd_manager
     00000AA8  _devkit_PSGSFXGetStatus            _snd_manager
     00000AAB  A$_snd_manager$346                 _snd_manager
     00000AAB  C$_snd_manager.c$59$1$56           _snd_manager
     00000AAB  C$_snd_manager.c$61$1$58           _snd_manager
     00000AAB  C$_snd_manager.c$62$1$58           _snd_manager
     00000AAB  G$devkit_PSGSilenceChannels$0$0    _snd_manager
ASxxxx Linker V03.00 + NoICE + sdld,  page 21.
Hexadecimal  [32-Bits]

Area                                    Addr        Size        Decimal Bytes (Attributes)
--------------------------------        ----        ----        ------- ----- ------------
_CODE                               00000200    0000438F =       17295. bytes (REL,CON)

      Value  Global                              Global Defined In Module
      -----  --------------------------------   ------------------------
     00000AAB  XG$devkit_PSGSilenceChannels$0$0   _snd_manager
     00000AAB  _devkit_PSGSilenceChannels         _snd_manager
     00000AAE  A$_snd_manager$363                 _snd_manager
     00000AAE  C$_snd_manager.c$63$1$58           _snd_manager
     00000AAE  C$_snd_manager.c$65$1$60           _snd_manager
     00000AAE  C$_snd_manager.c$66$1$60           _snd_manager
     00000AAE  G$devkit_PSGRestoreVolumes$0$0     _snd_manager
     00000AAE  XG$devkit_PSGRestoreVolumes$0$0    _snd_manager
     00000AAE  _devkit_PSGRestoreVolumes          _snd_manager
     00000AB1  A$_snd_manager$380                 _snd_manager
     00000AB1  C$_snd_manager.c$68$1$60           _snd_manager
     00000AB1  C$_snd_manager.c$70$1$62           _snd_manager
     00000AB1  C$_snd_manager.c$71$1$62           _snd_manager
     00000AB1  G$devkit_PSGFrame$0$0              _snd_manager
     00000AB1  XG$devkit_PSGFrame$0$0             _snd_manager
     00000AB1  _devkit_PSGFrame                   _snd_manager
     00000AB4  A$_snd_manager$397                 _snd_manager
     00000AB4  C$_snd_manager.c$72$1$62           _snd_manager
     00000AB4  C$_snd_manager.c$74$1$64           _snd_manager
     00000AB4  C$_snd_manager.c$75$1$64           _snd_manager
     00000AB4  G$devkit_PSGSFXFrame$0$0           _snd_manager
     00000AB4  XG$devkit_PSGSFXFrame$0$0          _snd_manager
     00000AB4  _devkit_PSGSFXFrame                _snd_manager
     00000AB7  A$_snd_manager$410                 _snd_manager
     00000AB7  C$_snd_manager.c$78$1$64           _snd_manager
     00000AB7  C$_snd_manager.c$80$1$65           _snd_manager
     00000AB7  G$devkit_SFX_CHANNEL2$0$0          _snd_manager
     00000AB7  _devkit_SFX_CHANNEL2               _snd_manager
     00000AB9  A$_snd_manager$415                 _snd_manager
     00000AB9  C$_snd_manager.c$81$1$65           _snd_manager
     00000AB9  XG$devkit_SFX_CHANNEL2$0$0         _snd_manager
     00000ABA  A$_snd_manager$428                 _snd_manager
     00000ABA  C$_snd_manager.c$82$1$65           _snd_manager
     00000ABA  C$_snd_manager.c$84$1$66           _snd_manager
     00000ABA  G$devkit_SFX_CHANNEL3$0$0          _snd_manager
     00000ABA  _devkit_SFX_CHANNEL3               _snd_manager
     00000ABC  A$_snd_manager$433                 _snd_manager
     00000ABC  C$_snd_manager.c$85$1$66           _snd_manager
     00000ABC  XG$devkit_SFX_CHANNEL3$0$0         _snd_manager
     00000ABD  A$_snd_manager$446                 _snd_manager
     00000ABD  C$_snd_manager.c$86$1$66           _snd_manager
     00000ABD  C$_snd_manager.c$88$1$67           _snd_manager
     00000ABD  G$devkit_SFX_CHANNELS2AND3$0$0     _snd_manager
     00000ABD  _devkit_SFX_CHANNELS2AND3          _snd_manager
     00000ABF  A$_snd_manager$451                 _snd_manager
     00000ABF  C$_snd_manager.c$89$1$67           _snd_manager
     00000ABF  XG$devkit_SFX_CHANNELS2AND3$0$0    _snd_manager
     00000AC0  A$enemy$65                         enemy
     00000AC0  C$enemy.c$9$0$0                    enemy
     00000AC0  G$checkEnemyPlayerShoot$0$0        enemy
     00000AC0  _checkEnemyPlayerShoot             enemy
ASxxxx Linker V03.00 + NoICE + sdld,  page 22.
Hexadecimal  [32-Bits]

Area                                    Addr        Size        Decimal Bytes (Attributes)
--------------------------------        ----        ----        ------- ----- ------------
_CODE                               00000200    0000438F =       17295. bytes (REL,CON)

      Value  Global                              Global Defined In Module
      -----  --------------------------------   ------------------------
     00000AC2  A$enemy$66                         enemy
     00000AC6  A$enemy$67                         enemy
     00000AC8  A$enemy$68                         enemy
     00000AC9  A$enemy$69                         enemy
     00000ACA  A$enemy$73                         enemy
     00000ACA  C$enemy.c$11$1$53                  enemy
     00000ACD  A$enemy$74                         enemy
     00000AD0  A$enemy$75                         enemy
     00000AD3  A$enemy$76                         enemy
     00000AD6  A$enemy$77                         enemy
     00000AD7  A$enemy$78                         enemy
     00000AD8  A$enemy$79                         enemy
     00000AD9  A$enemy$80                         enemy
     00000ADA  A$enemy$81                         enemy
     00000ADD  A$enemy$82                         enemy
     00000AE0  A$enemy$83                         enemy
     00000AE3  A$enemy$84                         enemy
     00000AE6  A$enemy$85                         enemy
     00000AE7  A$enemy$86                         enemy
     00000AE8  A$enemy$87                         enemy
     00000AE9  A$enemy$88                         enemy
     00000AEA  A$enemy$89                         enemy
     00000AEB  A$enemy$90                         enemy
     00000AEC  A$enemy$91                         enemy
     00000AEE  A$enemy$92                         enemy
     00000AF1  A$enemy$93                         enemy
     00000AF2  A$enemy$94                         enemy
     00000AF4  A$enemy$95                         enemy
     00000AF5  A$enemy$96                         enemy
     00000AF6  A$enemy$97                         enemy
     00000AF7  A$enemy$98                         enemy
     00000AF8  A$enemy$99                         enemy
     00000AFB  A$enemy$100                        enemy
     00000AFD  A$enemy$102                        enemy
     00000B00  A$enemy$106                        enemy
     00000B00  C$enemy.c$12$1$53                  enemy
     00000B01  A$enemy$107                        enemy
     00000B02  A$enemy$108                        enemy
     00000B03  A$enemy$109                        enemy
     00000B06  A$enemy$110                        enemy
     00000B07  A$enemy$111                        enemy
     00000B08  A$enemy$112                        enemy
     00000B09  A$enemy$113                        enemy
     00000B0B  A$enemy$114                        enemy
     00000B0C  A$enemy$115                        enemy
     00000B0D  A$enemy$116                        enemy
     00000B0E  A$enemy$117                        enemy
     00000B0F  A$enemy$118                        enemy
     00000B10  A$enemy$119                        enemy
     00000B13  A$enemy$120                        enemy
     00000B15  A$enemy$122                        enemy
ASxxxx Linker V03.00 + NoICE + sdld,  page 23.
Hexadecimal  [32-Bits]

Area                                    Addr        Size        Decimal Bytes (Attributes)
--------------------------------        ----        ----        ------- ----- ------------
_CODE                               00000200    0000438F =       17295. bytes (REL,CON)

      Value  Global                              Global Defined In Module
      -----  --------------------------------   ------------------------
     00000B18  A$enemy$126                        enemy
     00000B18  C$enemy.c$13$1$53                  enemy
     00000B19  A$enemy$127                        enemy
     00000B1A  A$enemy$128                        enemy
     00000B1B  A$enemy$129                        enemy
     00000B1E  A$enemy$130                        enemy
     00000B21  A$enemy$131                        enemy
     00000B22  A$enemy$132                        enemy
     00000B24  A$enemy$133                        enemy
     00000B27  A$enemy$134                        enemy
     00000B28  A$enemy$135                        enemy
     00000B2A  A$enemy$136                        enemy
     00000B2B  A$enemy$137                        enemy
     00000B2C  A$enemy$138                        enemy
     00000B2D  A$enemy$139                        enemy
     00000B2E  A$enemy$140                        enemy
     00000B31  A$enemy$141                        enemy
     00000B33  A$enemy$143                        enemy
     00000B36  A$enemy$147                        enemy
     00000B36  C$enemy.c$14$1$53                  enemy
     00000B37  A$enemy$148                        enemy
     00000B38  A$enemy$149                        enemy
     00000B39  A$enemy$150                        enemy
     00000B3C  A$enemy$151                        enemy
     00000B3D  A$enemy$152                        enemy
     00000B3E  A$enemy$153                        enemy
     00000B3F  A$enemy$154                        enemy
     00000B41  A$enemy$155                        enemy
     00000B42  A$enemy$156                        enemy
     00000B43  A$enemy$157                        enemy
     00000B44  A$enemy$158                        enemy
     00000B45  A$enemy$159                        enemy
     00000B46  A$enemy$160                        enemy
     00000B49  A$enemy$161                        enemy
     00000B4B  A$enemy$163                        enemy
     00000B4E  A$enemy$167                        enemy
     00000B4E  C$enemy.c$15$1$53                  enemy
     00000B50  A$enemy$168                        enemy
     00000B52  A$enemy$173                        enemy
     00000B52  C$enemy.c$16$1$53                  enemy
     00000B54  A$enemy$175                        enemy
     00000B56  A$enemy$176                        enemy
     00000B58  A$enemy$181                        enemy
     00000B58  C$enemy.c$17$1$53                  enemy
     00000B58  XG$checkEnemyPlayerShoot$0$0       enemy
     00000B59  A$enemy$191                        enemy
     00000B59  C$enemy.c$20$1$53                  enemy
     00000B59  G$GetEnemyDirection$0$0            enemy
     00000B59  _GetEnemyDirection                 enemy
     00000B5B  A$enemy$192                        enemy
     00000B5F  A$enemy$193                        enemy
ASxxxx Linker V03.00 + NoICE + sdld,  page 24.
Hexadecimal  [32-Bits]

Area                                    Addr        Size        Decimal Bytes (Attributes)
--------------------------------        ----        ----        ------- ----- ------------
_CODE                               00000200    0000438F =       17295. bytes (REL,CON)

      Value  Global                              Global Defined In Module
      -----  --------------------------------   ------------------------
     00000B61  A$enemy$194                        enemy
     00000B62  A$enemy$195                        enemy
     00000B63  A$enemy$199                        enemy
     00000B63  C$enemy.c$25$1$55                  enemy
     00000B66  A$enemy$200                        enemy
     00000B67  A$enemy$201                        enemy
     00000B69  A$enemy$202                        enemy
     00000B6C  A$enemy$203                        enemy
     00000B6F  A$enemy$204                        enemy
     00000B72  A$enemy$205                        enemy
     00000B75  A$enemy$206                        enemy
     00000B76  A$enemy$207                        enemy
     00000B77  A$enemy$208                        enemy
     00000B78  A$enemy$209                        enemy
     00000B7A  A$enemy$210                        enemy
     00000B7B  A$enemy$211                        enemy
     00000B7C  A$enemy$212                        enemy
     00000B7D  A$enemy$213                        enemy
     00000B7E  A$enemy$214                        enemy
     00000B7F  A$enemy$215                        enemy
     00000B80  A$enemy$219                        enemy
     00000B80  C$enemy.c$26$1$55                  enemy
     00000B83  A$enemy$220                        enemy
     00000B84  A$enemy$221                        enemy
     00000B86  A$enemy$222                        enemy
     00000B87  A$enemy$223                        enemy
     00000B88  A$enemy$224                        enemy
     00000B89  A$enemy$225                        enemy
     00000B8A  A$enemy$226                        enemy
     00000B8C  A$enemy$227                        enemy
     00000B8D  A$enemy$228                        enemy
     00000B8E  A$enemy$229                        enemy
     00000B91  A$enemy$230                        enemy
     00000B92  A$enemy$231                        enemy
     00000B93  A$enemy$232                        enemy
     00000B96  A$enemy$236                        enemy
     00000B96  C$enemy.c$27$1$55                  enemy
     00000B97  A$enemy$237                        enemy
     00000B9A  A$enemy$238                        enemy
     00000B9B  A$enemy$239                        enemy
     00000B9E  A$enemy$240                        enemy
     00000BA1  A$enemy$241                        enemy
     00000BA2  A$enemy$242                        enemy
     00000BA5  A$enemy$243                        enemy
     00000BA6  A$enemy$244                        enemy
     00000BA7  A$enemy$245                        enemy
     00000BA8  A$enemy$246                        enemy
     00000BA9  A$enemy$250                        enemy
     00000BA9  C$enemy.c$28$1$55                  enemy
     00000BAA  A$enemy$251                        enemy
     00000BAB  A$enemy$252                        enemy
ASxxxx Linker V03.00 + NoICE + sdld,  page 25.
Hexadecimal  [32-Bits]

Area                                    Addr        Size        Decimal Bytes (Attributes)
--------------------------------        ----        ----        ------- ----- ------------
_CODE                               00000200    0000438F =       17295. bytes (REL,CON)

      Value  Global                              Global Defined In Module
      -----  --------------------------------   ------------------------
     00000BAC  A$enemy$253                        enemy
     00000BAD  A$enemy$254                        enemy
     00000BAE  A$enemy$255                        enemy
     00000BAF  A$enemy$259                        enemy
     00000BAF  C$enemy.c$29$1$55                  enemy
     00000BB0  A$enemy$260                        enemy
     00000BB3  A$enemy$261                        enemy
     00000BB6  A$enemy$262                        enemy
     00000BB7  A$enemy$263                        enemy
     00000BB8  A$enemy$264                        enemy
     00000BB9  A$enemy$265                        enemy
     00000BBA  A$enemy$266                        enemy
     00000BBB  A$enemy$270                        enemy
     00000BBB  C$enemy.c$30$1$55                  enemy
     00000BBC  A$enemy$271                        enemy
     00000BBD  A$enemy$272                        enemy
     00000BBE  A$enemy$273                        enemy
     00000BBF  A$enemy$274                        enemy
     00000BC2  A$enemy$275                        enemy
     00000BC3  A$enemy$276                        enemy
     00000BC4  A$enemy$277                        enemy
     00000BC5  A$enemy$278                        enemy
     00000BC6  A$enemy$279                        enemy
     00000BC7  A$enemy$280                        enemy
     00000BC8  A$enemy$284                        enemy
     00000BC8  C$enemy.c$31$1$55                  enemy
     00000BC9  A$enemy$285                        enemy
     00000BCA  A$enemy$286                        enemy
     00000BCB  A$enemy$287                        enemy
     00000BCE  A$enemy$288                        enemy
     00000BCF  A$enemy$289                        enemy
     00000BD0  A$enemy$290                        enemy
     00000BD1  A$enemy$291                        enemy
     00000BD2  A$enemy$295                        enemy
     00000BD2  C$enemy.c$33$1$55                  enemy
     00000BD5  A$enemy$296                        enemy
     00000BD7  A$enemy$297                        enemy
     00000BD8  A$enemy$298                        enemy
     00000BDB  A$enemy$299                        enemy
     00000BDD  A$enemy$300                        enemy
     00000BDE  A$enemy$301                        enemy
     00000BDF  A$enemy$305                        enemy
     00000BDF  C$enemy.c$34$1$55                  enemy
     00000BE2  A$enemy$306                        enemy
     00000BE4  A$enemy$307                        enemy
     00000BE5  A$enemy$308                        enemy
     00000BE8  A$enemy$309                        enemy
     00000BEA  A$enemy$310                        enemy
     00000BEB  A$enemy$311                        enemy
     00000BEC  A$enemy$312                        enemy
     00000BEE  A$enemy$313                        enemy
ASxxxx Linker V03.00 + NoICE + sdld,  page 26.
Hexadecimal  [32-Bits]

Area                                    Addr        Size        Decimal Bytes (Attributes)
--------------------------------        ----        ----        ------- ----- ------------
_CODE                               00000200    0000438F =       17295. bytes (REL,CON)

      Value  Global                              Global Defined In Module
      -----  --------------------------------   ------------------------
     00000BF0  A$enemy$318                        enemy
     00000BF0  C$enemy.c$35$1$55                  enemy
     00000BF0  XG$GetEnemyDirection$0$0           enemy
     00000BF1  A$enemy$328                        enemy
     00000BF1  C$enemy.c$38$1$55                  enemy
     00000BF1  G$RemoveEnemy$0$0                  enemy
     00000BF1  _RemoveEnemy                       enemy
     00000BF3  A$enemy$329                        enemy
     00000BF7  A$enemy$330                        enemy
     00000BF9  A$enemy$334                        enemy
     00000BF9  C$enemy.c$43$1$57                  enemy
     00000BFC  A$enemy$335                        enemy
     00000BFD  A$enemy$336                        enemy
     00000BFF  A$enemy$337                        enemy
     00000C00  A$enemy$338                        enemy
     00000C03  A$enemy$339                        enemy
     00000C06  A$enemy$340                        enemy
     00000C07  A$enemy$341                        enemy
     00000C08  A$enemy$342                        enemy
     00000C09  A$enemy$343                        enemy
     00000C0A  A$enemy$344                        enemy
     00000C0B  A$enemy$345                        enemy
     00000C0C  A$enemy$346                        enemy
     00000C0D  A$enemy$347                        enemy
     00000C10  A$enemy$348                        enemy
     00000C12  A$enemy$350                        enemy
     00000C15  A$enemy$354                        enemy
     00000C15  C$enemy.c$45$2$58                  enemy
     00000C18  A$enemy$355                        enemy
     00000C1B  A$enemy$356                        enemy
     00000C1C  A$enemy$357                        enemy
     00000C1E  A$enemy$358                        enemy
     00000C1F  A$enemy$359                        enemy
     00000C20  A$enemy$360                        enemy
     00000C21  A$enemy$361                        enemy
     00000C22  A$enemy$362                        enemy
     00000C23  A$enemy$363                        enemy
     00000C24  A$enemy$364                        enemy
     00000C25  A$enemy$365                        enemy
     00000C26  A$enemy$366                        enemy
     00000C27  A$enemy$367                        enemy
     00000C28  A$enemy$368                        enemy
     00000C29  A$enemy$372                        enemy
     00000C29  C$enemy.c$46$2$58                  enemy
     00000C2C  A$enemy$373                        enemy
     00000C2E  A$enemy$374                        enemy
     00000C2F  A$enemy$375                        enemy
     00000C30  A$enemy$376                        enemy
     00000C32  A$enemy$377                        enemy
     00000C33  A$enemy$378                        enemy
     00000C34  A$enemy$379                        enemy
ASxxxx Linker V03.00 + NoICE + sdld,  page 27.
Hexadecimal  [32-Bits]

Area                                    Addr        Size        Decimal Bytes (Attributes)
--------------------------------        ----        ----        ------- ----- ------------
_CODE                               00000200    0000438F =       17295. bytes (REL,CON)

      Value  Global                              Global Defined In Module
      -----  --------------------------------   ------------------------
     00000C35  A$enemy$380                        enemy
     00000C36  A$enemy$381                        enemy
     00000C37  A$enemy$382                        enemy
     00000C38  A$enemy$383                        enemy
     00000C39  A$enemy$384                        enemy
     00000C3A  A$enemy$385                        enemy
     00000C3B  A$enemy$386                        enemy
     00000C3D  A$enemy$390                        enemy
     00000C3D  C$enemy.c$48$2$58                  enemy
     00000C40  A$enemy$391                        enemy
     00000C41  A$enemy$395                        enemy
     00000C41  C$enemy.c$49$2$58                  enemy
     00000C42  A$enemy$396                        enemy
     00000C43  A$enemy$397                        enemy
     00000C44  A$enemy$398                        enemy
     00000C46  A$enemy$399                        enemy
     00000C47  A$enemy$400                        enemy
     00000C48  A$enemy$401                        enemy
     00000C49  A$enemy$402                        enemy
     00000C4A  A$enemy$406                        enemy
     00000C4A  C$enemy.c$50$2$58                  enemy
     00000C4B  A$enemy$407                        enemy
     00000C4C  A$enemy$408                        enemy
     00000C4D  A$enemy$409                        enemy
     00000C4E  A$enemy$410                        enemy
     00000C50  A$enemy$411                        enemy
     00000C51  A$enemy$412                        enemy
     00000C52  A$enemy$413                        enemy
     00000C53  A$enemy$414                        enemy
     00000C54  A$enemy$415                        enemy
     00000C55  A$enemy$419                        enemy
     00000C55  C$enemy.c$51$2$58                  enemy
     00000C56  A$enemy$420                        enemy
     00000C57  A$enemy$421                        enemy
     00000C58  A$enemy$422                        enemy
     00000C59  A$enemy$423                        enemy
     00000C5A  A$enemy$424                        enemy
     00000C5C  A$enemy$425                        enemy
     00000C5D  A$enemy$426                        enemy
     00000C5E  A$enemy$427                        enemy
     00000C5F  A$enemy$428                        enemy
     00000C60  A$enemy$429                        enemy
     00000C61  A$enemy$430                        enemy
     00000C62  A$enemy$434                        enemy
     00000C62  C$enemy.c$52$2$58                  enemy
     00000C65  A$enemy$435                        enemy
     00000C66  A$enemy$436                        enemy
     00000C67  A$enemy$437                        enemy
     00000C69  A$enemy$438                        enemy
     00000C6A  A$enemy$439                        enemy
     00000C6B  A$enemy$440                        enemy
ASxxxx Linker V03.00 + NoICE + sdld,  page 28.
Hexadecimal  [32-Bits]

Area                                    Addr        Size        Decimal Bytes (Attributes)
--------------------------------        ----        ----        ------- ----- ------------
_CODE                               00000200    0000438F =       17295. bytes (REL,CON)

      Value  Global                              Global Defined In Module
      -----  --------------------------------   ------------------------
     00000C6C  A$enemy$441                        enemy
     00000C6D  A$enemy$442                        enemy
     00000C6E  A$enemy$443                        enemy
     00000C6F  A$enemy$444                        enemy
     00000C70  A$enemy$448                        enemy
     00000C70  C$enemy.c$53$2$58                  enemy
     00000C73  A$enemy$449                        enemy
     00000C74  A$enemy$450                        enemy
     00000C75  A$enemy$451                        enemy
     00000C77  A$enemy$452                        enemy
     00000C78  A$enemy$453                        enemy
     00000C79  A$enemy$454                        enemy
     00000C7A  A$enemy$455                        enemy
     00000C7B  A$enemy$456                        enemy
     00000C7C  A$enemy$457                        enemy
     00000C7D  A$enemy$458                        enemy
     00000C7E  A$enemy$459                        enemy
     00000C7F  A$enemy$463                        enemy
     00000C7F  C$enemy.c$54$2$58                  enemy
     00000C82  A$enemy$464                        enemy
     00000C83  A$enemy$465                        enemy
     00000C84  A$enemy$466                        enemy
     00000C86  A$enemy$467                        enemy
     00000C87  A$enemy$468                        enemy
     00000C88  A$enemy$469                        enemy
     00000C8B  A$enemy$470                        enemy
     00000C8C  A$enemy$471                        enemy
     00000C8D  A$enemy$472                        enemy
     00000C8E  A$enemy$473                        enemy
     00000C8F  A$enemy$477                        enemy
     00000C8F  C$enemy.c$55$2$58                  enemy
     00000C92  A$enemy$478                        enemy
     00000C93  A$enemy$479                        enemy
     00000C94  A$enemy$480                        enemy
     00000C96  A$enemy$481                        enemy
     00000C97  A$enemy$482                        enemy
     00000C98  A$enemy$483                        enemy
     00000C9B  A$enemy$484                        enemy
     00000C9C  A$enemy$485                        enemy
     00000C9D  A$enemy$486                        enemy
     00000C9E  A$enemy$487                        enemy
     00000C9F  A$enemy$491                        enemy
     00000C9F  C$enemy.c$56$2$58                  enemy
     00000CA2  A$enemy$492                        enemy
     00000CA3  A$enemy$493                        enemy
     00000CA4  A$enemy$494                        enemy
     00000CA5  A$enemy$495                        enemy
     00000CA8  A$enemy$496                        enemy
     00000CA9  A$enemy$501                        enemy
     00000CA9  C$enemy.c$59$1$57                  enemy
     00000CAD  A$enemy$502                        enemy
ASxxxx Linker V03.00 + NoICE + sdld,  page 29.
Hexadecimal  [32-Bits]

Area                                    Addr        Size        Decimal Bytes (Attributes)
--------------------------------        ----        ----        ------- ----- ------------
_CODE                               00000200    0000438F =       17295. bytes (REL,CON)

      Value  Global                              Global Defined In Module
      -----  --------------------------------   ------------------------
     00000CB0  A$enemy$503                        enemy
     00000CB1  A$enemy$504                        enemy
     00000CB3  A$enemy$505                        enemy
     00000CB6  A$enemy$507                        enemy
     00000CB8  A$enemy$512                        enemy
     00000CB8  C$enemy.c$60$1$57                  enemy
     00000CB8  XG$RemoveEnemy$0$0                 enemy
     00000CB9  A$enemy$522                        enemy
     00000CB9  C$enemy.c$62$1$57                  enemy
     00000CB9  G$KillEnemy$0$0                    enemy
     00000CB9  _KillEnemy                         enemy
     00000CBB  A$enemy$523                        enemy
     00000CBF  A$enemy$524                        enemy
     00000CC1  A$enemy$525                        enemy
     00000CC2  A$enemy$529                        enemy
     00000CC2  C$enemy.c$68$1$60                  enemy
     00000CC5  A$enemy$530                        enemy
     00000CC8  A$enemy$531                        enemy
     00000CC9  A$enemy$532                        enemy
     00000CCB  A$enemy$536                        enemy
     00000CCB  C$enemy.c$71$1$60                  enemy
     00000CCE  A$enemy$537                        enemy
     00000CD1  A$enemy$538                        enemy
     00000CD3  A$enemy$539                        enemy
     00000CD4  A$enemy$540                        enemy
     00000CD5  A$enemy$541                        enemy
     00000CD6  A$enemy$542                        enemy
     00000CD7  A$enemy$543                        enemy
     00000CD8  A$enemy$544                        enemy
     00000CD9  A$enemy$545                        enemy
     00000CDA  A$enemy$546                        enemy
     00000CDB  A$enemy$547                        enemy
     00000CDC  A$enemy$551                        enemy
     00000CDD  A$enemy$552                        enemy
     00000CDF  A$enemy$553                        enemy
     00000CE2  A$enemy$554                        enemy
     00000CE5  A$enemy$558                        enemy
     00000CE5  C$enemy.c$76$1$60                  enemy
     00000CE6  A$enemy$559                        enemy
     00000CE8  A$enemy$560                        enemy
     00000CE9  A$enemy$561                        enemy
     00000CEA  A$enemy$562                        enemy
     00000CED  A$enemy$566                        enemy
     00000CED  C$enemy.c$74$1$60                  enemy
     00000CEF  A$enemy$567                        enemy
     00000CF2  A$enemy$568                        enemy
     00000CF4  A$enemy$572                        enemy
     00000CF4  C$enemy.c$76$2$61                  enemy
     00000CF5  A$enemy$573                        enemy
     00000CF7  A$enemy$574                        enemy
     00000CF8  A$enemy$575                        enemy
ASxxxx Linker V03.00 + NoICE + sdld,  page 30.
Hexadecimal  [32-Bits]

Area                                    Addr        Size        Decimal Bytes (Attributes)
--------------------------------        ----        ----        ------- ----- ------------
_CODE                               00000200    0000438F =       17295. bytes (REL,CON)

      Value  Global                              Global Defined In Module
      -----  --------------------------------   ------------------------
     00000CF9  A$enemy$576                        enemy
     00000CFA  A$enemy$577                        enemy
     00000CFD  A$enemy$578                        enemy
     00000CFE  A$enemy$579                        enemy
     00000CFF  A$enemy$580                        enemy
     00000D00  A$enemy$584                        enemy
     00000D00  C$enemy.c$77$2$61                  enemy
     00000D01  A$enemy$585                        enemy
     00000D02  A$enemy$586                        enemy
     00000D05  A$enemy$587                        enemy
     00000D06  A$enemy$588                        enemy
     00000D07  A$enemy$589                        enemy
     00000D09  A$enemy$594                        enemy
     00000D09  C$enemy.c$80$1$60                  enemy
     00000D0A  A$enemy$595                        enemy
     00000D0C  A$enemy$596                        enemy
     00000D0F  A$enemy$597                        enemy
     00000D10  A$enemy$598                        enemy
     00000D11  A$enemy$599                        enemy
     00000D12  A$enemy$600                        enemy
     00000D15  A$enemy$601                        enemy
     00000D16  A$enemy$602                        enemy
     00000D17  A$enemy$603                        enemy
     00000D18  A$enemy$604                        enemy
     00000D1B  A$enemy$605                        enemy
     00000D1C  A$enemy$606                        enemy
     00000D1D  A$enemy$607                        enemy
     00000D1E  A$enemy$612                        enemy
     00000D1E  C$enemy.c$83$1$60                  enemy
     00000D1F  A$enemy$613                        enemy
     00000D20  A$enemy$614                        enemy
     00000D21  A$enemy$615                        enemy
     00000D22  A$enemy$616                        enemy
     00000D23  A$enemy$620                        enemy
     00000D23  C$enemy.c$86$1$60                  enemy
     00000D24  A$enemy$621                        enemy
     00000D27  A$enemy$622                        enemy
     00000D28  A$enemy$623                        enemy
     00000D29  A$enemy$624                        enemy
     00000D2C  A$enemy$625                        enemy
     00000D2D  A$enemy$626                        enemy
     00000D2F  A$enemy$627                        enemy
     00000D30  A$enemy$628                        enemy
     00000D31  A$enemy$629                        enemy
     00000D34  A$enemy$630                        enemy
     00000D35  A$enemy$631                        enemy
     00000D36  A$enemy$635                        enemy
     00000D36  C$enemy.c$90$1$60                  enemy
     00000D39  A$enemy$636                        enemy
     00000D3B  A$enemy$637                        enemy
     00000D3C  A$enemy$638                        enemy
ASxxxx Linker V03.00 + NoICE + sdld,  page 31.
Hexadecimal  [32-Bits]

Area                                    Addr        Size        Decimal Bytes (Attributes)
--------------------------------        ----        ----        ------- ----- ------------
_CODE                               00000200    0000438F =       17295. bytes (REL,CON)

      Value  Global                              Global Defined In Module
      -----  --------------------------------   ------------------------
     00000D3D  A$enemy$639                        enemy
     00000D3E  A$enemy$640                        enemy
     00000D3F  A$enemy$641                        enemy
     00000D40  A$enemy$642                        enemy
     00000D41  A$enemy$643                        enemy
     00000D42  A$enemy$644                        enemy
     00000D44  A$enemy$648                        enemy
     00000D44  C$enemy.c$91$1$60                  enemy
     00000D47  A$enemy$650                        enemy
     00000D48  A$enemy$651                        enemy
     00000D4A  A$enemy$656                        enemy
     00000D4A  C$enemy.c$92$1$60                  enemy
     00000D4A  XG$KillEnemy$0$0                   enemy
     00000D4B  A$enemy$666                        enemy
     00000D4B  C$enemy.c$96$1$60                  enemy
     00000D4B  G$KillEnemies$0$0                  enemy
     00000D4B  _KillEnemies                       enemy
     00000D4D  A$enemy$667                        enemy
     00000D51  A$enemy$668                        enemy
     00000D53  A$enemy$672                        enemy
     00000D53  C$enemy.c$100$1$63                 enemy
     00000D57  A$enemy$673                        enemy
     00000D5A  A$enemy$674                        enemy
     00000D5B  A$enemy$675                        enemy
     00000D5D  A$enemy$679                        enemy
     00000D60  A$enemy$680                        enemy
     00000D61  A$enemy$681                        enemy
     00000D64  A$enemy$682                        enemy
     00000D65  A$enemy$683                        enemy
     00000D67  A$enemy$684                        enemy
     00000D69  A$enemy$685                        enemy
     00000D6B  A$enemy$687                        enemy
     00000D6C  A$enemy$689                        enemy
     00000D6D  A$enemy$691                        enemy
     00000D6F  A$enemy$692                        enemy
     00000D71  A$enemy$696                        enemy
     00000D71  C$enemy.c$102$2$64                 enemy
     00000D72  A$enemy$697                        enemy
     00000D73  A$enemy$698                        enemy
     00000D75  A$enemy$699                        enemy
     00000D76  A$enemy$700                        enemy
     00000D77  A$enemy$701                        enemy
     00000D79  A$enemy$702                        enemy
     00000D7A  A$enemy$703                        enemy
     00000D7B  A$enemy$704                        enemy
     00000D7C  A$enemy$705                        enemy
     00000D7D  A$enemy$706                        enemy
     00000D7E  A$enemy$707                        enemy
     00000D7F  A$enemy$708                        enemy
     00000D80  A$enemy$709                        enemy
     00000D81  A$enemy$710                        enemy
ASxxxx Linker V03.00 + NoICE + sdld,  page 32.
Hexadecimal  [32-Bits]

Area                                    Addr        Size        Decimal Bytes (Attributes)
--------------------------------        ----        ----        ------- ----- ------------
_CODE                               00000200    0000438F =       17295. bytes (REL,CON)

      Value  Global                              Global Defined In Module
      -----  --------------------------------   ------------------------
     00000D84  A$enemy$711                        enemy
     00000D85  A$enemy$712                        enemy
     00000D88  A$enemy$713                        enemy
     00000D89  A$enemy$714                        enemy
     00000D8A  A$enemy$715                        enemy
     00000D8C  A$enemy$716                        enemy
     00000D8D  A$enemy$717                        enemy
     00000D8F  A$enemy$722                        enemy
     00000D8F  C$enemy.c$103$2$64                 enemy
     00000D90  A$enemy$723                        enemy
     00000D91  A$enemy$724                        enemy
     00000D92  A$enemy$725                        enemy
     00000D95  A$enemy$726                        enemy
     00000D96  A$enemy$727                        enemy
     00000D97  A$enemy$732                        enemy
     00000D97  C$enemy.c$101$2$64                 enemy
     00000D98  A$enemy$733                        enemy
     00000D9A  A$enemy$735                        enemy
     00000D9C  A$enemy$740                        enemy
     00000D9C  C$enemy.c$104$1$63                 enemy
     00000D9C  XG$KillEnemies$0$0                 enemy
     00000D9D  A$enemy$750                        enemy
     00000D9D  C$enemy.c$109$1$63                 enemy
     00000D9D  G$UpdateEnemy$0$0                  enemy
     00000D9D  _UpdateEnemy                       enemy
     00000D9F  A$enemy$751                        enemy
     00000DA3  A$enemy$752                        enemy
     00000DA5  A$enemy$753                        enemy
     00000DA6  A$enemy$757                        enemy
     00000DA6  C$enemy.c$116$1$66                 enemy
     00000DA9  A$enemy$758                        enemy
     00000DAC  A$enemy$759                        enemy
     00000DAD  A$enemy$760                        enemy
     00000DAF  A$enemy$764                        enemy
     00000DAF  C$enemy.c$119$1$66                 enemy
     00000DB2  A$enemy$765                        enemy
     00000DB5  A$enemy$766                        enemy
     00000DB7  A$enemy$767                        enemy
     00000DB8  A$enemy$768                        enemy
     00000DB9  A$enemy$769                        enemy
     00000DBA  A$enemy$770                        enemy
     00000DBB  A$enemy$771                        enemy
     00000DBC  A$enemy$772                        enemy
     00000DBD  A$enemy$773                        enemy
     00000DBE  A$enemy$774                        enemy
     00000DBF  A$enemy$775                        enemy
     00000DC0  A$enemy$779                        enemy
     00000DC0  C$enemy.c$122$1$66                 enemy
     00000DC4  A$enemy$783                        enemy
     00000DC4  C$enemy.c$125$1$66                 enemy
     00000DC7  A$enemy$784                        enemy
ASxxxx Linker V03.00 + NoICE + sdld,  page 33.
Hexadecimal  [32-Bits]

Area                                    Addr        Size        Decimal Bytes (Attributes)
--------------------------------        ----        ----        ------- ----- ------------
_CODE                               00000200    0000438F =       17295. bytes (REL,CON)

      Value  Global                              Global Defined In Module
      -----  --------------------------------   ------------------------
     00000DC8  A$enemy$785                        enemy
     00000DC9  A$enemy$786                        enemy
     00000DCA  A$enemy$787                        enemy
     00000DCB  A$enemy$788                        enemy
     00000DCC  A$enemy$789                        enemy
     00000DCE  A$enemy$790                        enemy
     00000DCF  A$enemy$791                        enemy
     00000DD0  A$enemy$792                        enemy
     00000DD1  A$enemy$793                        enemy
     00000DD2  A$enemy$794                        enemy
     00000DD3  A$enemy$795                        enemy
     00000DD4  A$enemy$796                        enemy
     00000DD5  A$enemy$797                        enemy
     00000DD7  A$enemy$801                        enemy
     00000DD7  C$enemy.c$126$1$66                 enemy
     00000DD8  A$enemy$802                        enemy
     00000DD9  A$enemy$803                        enemy
     00000DDA  A$enemy$804                        enemy
     00000DDD  A$enemy$805                        enemy
     00000DDE  A$enemy$806                        enemy
     00000DDF  A$enemy$807                        enemy
     00000DE2  A$enemy$812                        enemy
     00000DE2  C$enemy.c$129$1$66                 enemy
     00000DE5  A$enemy$813                        enemy
     00000DE6  A$enemy$814                        enemy
     00000DE8  A$enemy$818                        enemy
     00000DE8  C$enemy.c$130$1$66                 enemy
     00000DEB  A$enemy$819                        enemy
     00000DEC  A$enemy$820                        enemy
     00000DED  A$enemy$821                        enemy
     00000DF0  A$enemy$822                        enemy
     00000DF1  A$enemy$823                        enemy
     00000DF3  A$enemy$828                        enemy
     00000DF3  C$enemy.c$134$2$67                 enemy
     00000DF4  A$enemy$829                        enemy
     00000DF5  A$enemy$830                        enemy
     00000DF6  A$enemy$831                        enemy
     00000DF7  A$enemy$832                        enemy
     00000DF8  A$enemy$833                        enemy
     00000DF9  A$enemy$835                        enemy
     00000DFA  A$enemy$836                        enemy
     00000DFC  A$enemy$841                        enemy
     00000DFC  C$enemy.c$166$1$66                 enemy
     00000DFC  XG$UpdateEnemy$0$0                 enemy
     00000DFD  A$enemy$854                        enemy
     00000DFD  C$enemy.c$169$1$66                 enemy
     00000DFD  C$enemy.c$174$1$68                 enemy
     00000DFD  G$UpdateEnemies$0$0                enemy
     00000DFD  _UpdateEnemies                     enemy
     00000DFF  A$enemy$855                        enemy
     00000E00  A$enemy$856                        enemy
ASxxxx Linker V03.00 + NoICE + sdld,  page 34.
Hexadecimal  [32-Bits]

Area                                    Addr        Size        Decimal Bytes (Attributes)
--------------------------------        ----        ----        ------- ----- ------------
_CODE                               00000200    0000438F =       17295. bytes (REL,CON)

      Value  Global                              Global Defined In Module
      -----  --------------------------------   ------------------------
     00000E01  A$enemy$857                        enemy
     00000E04  A$enemy$858                        enemy
     00000E05  A$enemy$862                        enemy
     00000E05  C$enemy.c$177$1$68                 enemy
     00000E09  A$enemy$863                        enemy
     00000E0C  A$enemy$864                        enemy
     00000E0D  A$enemy$865                        enemy
     00000E0E  A$enemy$869                        enemy
     00000E11  A$enemy$870                        enemy
     00000E12  A$enemy$872                        enemy
     00000E14  A$enemy$873                        enemy
     00000E15  A$enemy$877                        enemy
     00000E15  C$enemy.c$180$3$70                 enemy
     00000E16  A$enemy$878                        enemy
     00000E17  A$enemy$879                        enemy
     00000E18  A$enemy$880                        enemy
     00000E1B  A$enemy$881                        enemy
     00000E1C  A$enemy$882                        enemy
     00000E1D  A$enemy$886                        enemy
     00000E1D  C$enemy.c$178$2$69                 enemy
     00000E1E  A$enemy$891                        enemy
     00000E1E  C$enemy.c$182$1$68                 enemy
     00000E1E  XG$UpdateEnemies$0$0               enemy
     00000E20  A$enemy$901                        enemy
     00000E20  C$enemy.c$185$1$68                 enemy
     00000E20  G$InitEnemy$0$0                    enemy
     00000E20  _InitEnemy                         enemy
     00000E22  A$enemy$902                        enemy
     00000E26  A$enemy$903                        enemy
     00000E28  A$enemy$904                        enemy
     00000E29  A$enemy$908                        enemy
     00000E29  C$enemy.c$189$1$72                 enemy
     00000E2C  A$enemy$909                        enemy
     00000E2E  A$enemy$910                        enemy
     00000E31  A$enemy$914                        enemy
     00000E31  C$enemy.c$192$2$73                 enemy
     00000E34  A$enemy$915                        enemy
     00000E38  A$enemy$916                        enemy
     00000E3A  A$enemy$917                        enemy
     00000E3B  A$enemy$918                        enemy
     00000E3C  A$enemy$919                        enemy
     00000E3D  A$enemy$920                        enemy
     00000E3E  A$enemy$921                        enemy
     00000E3F  A$enemy$922                        enemy
     00000E40  A$enemy$923                        enemy
     00000E41  A$enemy$924                        enemy
     00000E42  A$enemy$925                        enemy
     00000E43  A$enemy$929                        enemy
     00000E43  C$enemy.c$195$2$73                 enemy
     00000E46  A$enemy$930                        enemy
     00000E47  A$enemy$934                        enemy
ASxxxx Linker V03.00 + NoICE + sdld,  page 35.
Hexadecimal  [32-Bits]

Area                                    Addr        Size        Decimal Bytes (Attributes)
--------------------------------        ----        ----        ------- ----- ------------
_CODE                               00000200    0000438F =       17295. bytes (REL,CON)

      Value  Global                              Global Defined In Module
      -----  --------------------------------   ------------------------
     00000E47  C$enemy.c$196$2$73                 enemy
     00000E48  A$enemy$935                        enemy
     00000E49  A$enemy$936                        enemy
     00000E4A  A$enemy$937                        enemy
     00000E4D  A$enemy$938                        enemy
     00000E4E  A$enemy$942                        enemy
     00000E4E  C$enemy.c$197$2$73                 enemy
     00000E4F  A$enemy$943                        enemy
     00000E50  A$enemy$944                        enemy
     00000E51  A$enemy$945                        enemy
     00000E52  A$enemy$946                        enemy
     00000E55  A$enemy$947                        enemy
     00000E56  A$enemy$951                        enemy
     00000E56  C$enemy.c$198$2$73                 enemy
     00000E57  A$enemy$952                        enemy
     00000E58  A$enemy$953                        enemy
     00000E59  A$enemy$954                        enemy
     00000E5A  A$enemy$955                        enemy
     00000E5B  A$enemy$956                        enemy
     00000E5C  A$enemy$957                        enemy
     00000E5D  A$enemy$961                        enemy
     00000E5D  C$enemy.c$199$2$73                 enemy
     00000E60  A$enemy$962                        enemy
     00000E61  A$enemy$963                        enemy
     00000E63  A$enemy$967                        enemy
     00000E63  C$enemy.c$200$2$73                 enemy
     00000E66  A$enemy$968                        enemy
     00000E67  A$enemy$969                        enemy
     00000E69  A$enemy$973                        enemy
     00000E69  C$enemy.c$201$2$73                 enemy
     00000E6C  A$enemy$974                        enemy
     00000E6D  A$enemy$975                        enemy
     00000E6E  A$enemy$976                        enemy
     00000E71  A$enemy$977                        enemy
     00000E73  A$enemy$978                        enemy
     00000E74  A$enemy$979                        enemy
     00000E76  A$enemy$980                        enemy
     00000E78  A$enemy$981                        enemy
     00000E79  A$enemy$982                        enemy
     00000E7A  A$enemy$983                        enemy
     00000E7B  A$enemy$987                        enemy
     00000E7B  C$enemy.c$202$2$73                 enemy
     00000E7E  A$enemy$988                        enemy
     00000E7F  A$enemy$989                        enemy
     00000E80  A$enemy$990                        enemy
     00000E83  A$enemy$991                        enemy
     00000E85  A$enemy$992                        enemy
     00000E86  A$enemy$993                        enemy
     00000E88  A$enemy$994                        enemy
     00000E8A  A$enemy$995                        enemy
     00000E8B  A$enemy$996                        enemy
ASxxxx Linker V03.00 + NoICE + sdld,  page 36.
Hexadecimal  [32-Bits]

Area                                    Addr        Size        Decimal Bytes (Attributes)
--------------------------------        ----        ----        ------- ----- ------------
_CODE                               00000200    0000438F =       17295. bytes (REL,CON)

      Value  Global                              Global Defined In Module
      -----  --------------------------------   ------------------------
     00000E8C  A$enemy$997                        enemy
     00000E8D  A$enemy$1001                       enemy
     00000E8D  C$enemy.c$203$2$73                 enemy
     00000E90  A$enemy$1002                       enemy
     00000E91  A$enemy$1003                       enemy
     00000E92  A$enemy$1004                       enemy
     00000E95  A$enemy$1005                       enemy
     00000E97  A$enemy$1006                       enemy
     00000E98  A$enemy$1007                       enemy
     00000E9A  A$enemy$1008                       enemy
     00000E9C  A$enemy$1009                       enemy
     00000E9D  A$enemy$1010                       enemy
     00000E9E  A$enemy$1011                       enemy
     00000EA1  A$enemy$1012                       enemy
     00000EA2  A$enemy$1016                       enemy
     00000EA2  C$enemy.c$206$2$73                 enemy
     00000EA3  A$enemy$1017                       enemy
     00000EA6  A$enemy$1018                       enemy
     00000EA8  A$enemy$1019                       enemy
     00000EAB  A$enemy$1020                       enemy
     00000EAD  A$enemy$1021                       enemy
     00000EB0  A$enemy$1022                       enemy
     00000EB2  A$enemy$1023                       enemy
     00000EB4  A$enemy$1024                       enemy
     00000EB7  A$enemy$1025                       enemy
     00000EB8  A$enemy$1026                       enemy
     00000EBA  A$enemy$1027                       enemy
     00000EBD  A$enemy$1028                       enemy
     00000EBF  A$enemy$1029                       enemy
     00000EC0  A$enemy$1034                       enemy
     00000EC0  C$enemy.c$209$2$73                 enemy
     00000EC3  A$enemy$1035                       enemy
     00000EC4  A$enemy$1039                       enemy
     00000EC4  C$enemy.c$212$2$73                 enemy
     00000EC7  A$enemy$1040                       enemy
     00000EC9  A$enemy$1041                       enemy
     00000ECA  A$enemy$1042                       enemy
     00000ECD  A$enemy$1043                       enemy
     00000ECE  A$enemy$1044                       enemy
     00000ECF  A$enemy$1045                       enemy
     00000ED0  A$enemy$1046                       enemy
     00000ED1  A$enemy$1047                       enemy
     00000ED2  A$enemy$1048                       enemy
     00000ED3  A$enemy$1049                       enemy
     00000ED5  A$enemy$1053                       enemy
     00000ED5  C$enemy.c$213$2$73                 enemy
     00000ED6  A$enemy$1054                       enemy
     00000ED9  A$enemy$1055                       enemy
     00000EDA  A$enemy$1057                       enemy
     00000EDC  A$enemy$1058                       enemy
     00000EDE  A$enemy$1063                       enemy
ASxxxx Linker V03.00 + NoICE + sdld,  page 37.
Hexadecimal  [32-Bits]

Area                                    Addr        Size        Decimal Bytes (Attributes)
--------------------------------        ----        ----        ------- ----- ------------
_CODE                               00000200    0000438F =       17295. bytes (REL,CON)

      Value  Global                              Global Defined In Module
      -----  --------------------------------   ------------------------
     00000EDE  C$enemy.c$215$1$72                 enemy
     00000EDE  XG$InitEnemy$0$0                   enemy
     00000EDF  A$enemy$1076                       enemy
     00000EDF  C$enemy.c$218$1$72                 enemy
     00000EDF  C$enemy.c$220$1$74                 enemy
     00000EDF  G$InitEnemies$0$0                  enemy
     00000EDF  _InitEnemies                       enemy
     00000EE2  A$enemy$1077                       enemy
     00000EE4  A$enemy$1082                       enemy
     00000EE4  C$enemy.c$221$1$74                 enemy
     00000EE4  XG$InitEnemies$0$0                 enemy
     00000EE5  A$enemyshoot$73                    enemyshoot
     00000EE5  C$enemyshoot.c$11$0$0              enemyshoot
     00000EE5  C$enemyshoot.c$13$1$76             enemyshoot
     00000EE5  G$InitEnemyshootSprites$0$0        enemyshoot
     00000EE5  _InitEnemyshootSprites             enemyshoot
     00000EE7  A$enemyshoot$74                    enemyshoot
     00000EE8  A$enemyshoot$75                    enemyshoot
     00000EE9  A$enemyshoot$76                    enemyshoot
     00000EEC  A$enemyshoot$77                    enemyshoot
     00000EED  A$enemyshoot$78                    enemyshoot
     00000EF0  A$enemyshoot$79                    enemyshoot
     00000EF1  A$enemyshoot$80                    enemyshoot
     00000EF4  A$enemyshoot$81                    enemyshoot
     00000EF5  A$enemyshoot$82                    enemyshoot
     00000EF6  A$enemyshoot$83                    enemyshoot
     00000EF7  A$enemyshoot$88                    enemyshoot
     00000EF7  C$enemyshoot.c$14$1$76             enemyshoot
     00000EF7  XG$InitEnemyshootSprites$0$0       enemyshoot
     00000EF8  A$enemyshoot$98                    enemyshoot
     00000EF8  C$enemyshoot.c$16$1$76             enemyshoot
     00000EF8  G$InitEnemyshootDirection$0$0      enemyshoot
     00000EF8  _InitEnemyshootDirection           enemyshoot
     00000EFA  A$enemyshoot$99                    enemyshoot
     00000EFE  A$enemyshoot$100                   enemyshoot
     00000F00  A$enemyshoot$104                   enemyshoot
     00000F00  C$enemyshoot.c$20$1$78             enemyshoot
     00000F03  A$enemyshoot$105                   enemyshoot
     00000F04  A$enemyshoot$109                   enemyshoot
     00000F04  C$enemyshoot.c$21$1$78             enemyshoot
     00000F08  A$enemyshoot$110                   enemyshoot
     00000F0B  A$enemyshoot$111                   enemyshoot
     00000F0D  A$enemyshoot$112                   enemyshoot
     00000F0F  A$enemyshoot$116                   enemyshoot
     00000F0F  C$enemyshoot.c$23$2$79             enemyshoot
     00000F12  A$enemyshoot$117                   enemyshoot
     00000F16  A$enemyshoot$118                   enemyshoot
     00000F18  A$enemyshoot$119                   enemyshoot
     00000F19  A$enemyshoot$120                   enemyshoot
     00000F1A  A$enemyshoot$121                   enemyshoot
     00000F1B  A$enemyshoot$122                   enemyshoot
ASxxxx Linker V03.00 + NoICE + sdld,  page 38.
Hexadecimal  [32-Bits]

Area                                    Addr        Size        Decimal Bytes (Attributes)
--------------------------------        ----        ----        ------- ----- ------------
_CODE                               00000200    0000438F =       17295. bytes (REL,CON)

      Value  Global                              Global Defined In Module
      -----  --------------------------------   ------------------------
     00000F1C  A$enemyshoot$123                   enemyshoot
     00000F1D  A$enemyshoot$124                   enemyshoot
     00000F1E  A$enemyshoot$125                   enemyshoot
     00000F1F  A$enemyshoot$126                   enemyshoot
     00000F20  A$enemyshoot$130                   enemyshoot
     00000F20  C$enemyshoot.c$26$2$79             enemyshoot
     00000F23  A$enemyshoot$131                   enemyshoot
     00000F24  A$enemyshoot$135                   enemyshoot
     00000F24  C$enemyshoot.c$27$2$79             enemyshoot
     00000F25  A$enemyshoot$136                   enemyshoot
     00000F26  A$enemyshoot$137                   enemyshoot
     00000F27  A$enemyshoot$138                   enemyshoot
     00000F2A  A$enemyshoot$139                   enemyshoot
     00000F2B  A$enemyshoot$143                   enemyshoot
     00000F2B  C$enemyshoot.c$30$2$79             enemyshoot
     00000F2E  A$enemyshoot$144                   enemyshoot
     00000F2F  A$enemyshoot$145                   enemyshoot
     00000F31  A$enemyshoot$149                   enemyshoot
     00000F31  C$enemyshoot.c$33$2$79             enemyshoot
     00000F32  A$enemyshoot$150                   enemyshoot
     00000F33  A$enemyshoot$151                   enemyshoot
     00000F34  A$enemyshoot$152                   enemyshoot
     00000F35  A$enemyshoot$153                   enemyshoot
     00000F38  A$enemyshoot$154                   enemyshoot
     00000F39  A$enemyshoot$158                   enemyshoot
     00000F39  C$enemyshoot.c$34$2$79             enemyshoot
     00000F3A  A$enemyshoot$159                   enemyshoot
     00000F3B  A$enemyshoot$160                   enemyshoot
     00000F3C  A$enemyshoot$161                   enemyshoot
     00000F3D  A$enemyshoot$162                   enemyshoot
     00000F3E  A$enemyshoot$163                   enemyshoot
     00000F41  A$enemyshoot$164                   enemyshoot
     00000F42  A$enemyshoot$168                   enemyshoot
     00000F42  C$enemyshoot.c$37$2$79             enemyshoot
     00000F45  A$enemyshoot$170                   enemyshoot
     00000F47  A$enemyshoot$175                   enemyshoot
     00000F47  C$enemyshoot.c$39$1$78             enemyshoot
     00000F47  XG$InitEnemyshootDirection$0$0     enemyshoot
     00000F48  A$enemyshoot$188                   enemyshoot
     00000F48  C$enemyshoot.c$41$1$78             enemyshoot
     00000F48  G$SpreadEnemyshootDirection$0$0    enemyshoot
     00000F48  _SpreadEnemyshootDirection         enemyshoot
     00000F4A  A$enemyshoot$190                   enemyshoot
     00000F4D  A$enemyshoot$191                   enemyshoot
     00000F4E  A$enemyshoot$192                   enemyshoot
     00000F4F  A$enemyshoot$193                   enemyshoot
     00000F50  A$enemyshoot$194                   enemyshoot
     00000F51  A$enemyshoot$198                   enemyshoot
     00000F51  C$enemyshoot.c$45$2$82             enemyshoot
     00000F54  A$enemyshoot$199                   enemyshoot
     00000F55  A$enemyshoot$200                   enemyshoot
ASxxxx Linker V03.00 + NoICE + sdld,  page 39.
Hexadecimal  [32-Bits]

Area                                    Addr        Size        Decimal Bytes (Attributes)
--------------------------------        ----        ----        ------- ----- ------------
_CODE                               00000200    0000438F =       17295. bytes (REL,CON)

      Value  Global                              Global Defined In Module
      -----  --------------------------------   ------------------------
     00000F56  A$enemyshoot$201                   enemyshoot
     00000F57  A$enemyshoot$202                   enemyshoot
     00000F58  A$enemyshoot$203                   enemyshoot
     00000F59  A$enemyshoot$204                   enemyshoot
     00000F5B  A$enemyshoot$205                   enemyshoot
     00000F5C  A$enemyshoot$206                   enemyshoot
     00000F5D  A$enemyshoot$207                   enemyshoot
     00000F61  A$enemyshoot$208                   enemyshoot
     00000F63  A$enemyshoot$209                   enemyshoot
     00000F66  A$enemyshoot$210                   enemyshoot
     00000F67  A$enemyshoot$211                   enemyshoot
     00000F68  A$enemyshoot$212                   enemyshoot
     00000F6B  A$enemyshoot$213                   enemyshoot
     00000F6D  A$enemyshoot$214                   enemyshoot
     00000F6E  A$enemyshoot$215                   enemyshoot
     00000F6F  A$enemyshoot$216                   enemyshoot
     00000F70  A$enemyshoot$217                   enemyshoot
     00000F71  A$enemyshoot$218                   enemyshoot
     00000F72  A$enemyshoot$219                   enemyshoot
     00000F73  A$enemyshoot$220                   enemyshoot
     00000F76  A$enemyshoot$221                   enemyshoot
     00000F77  A$enemyshoot$222                   enemyshoot
     00000F78  A$enemyshoot$223                   enemyshoot
     00000F79  A$enemyshoot$224                   enemyshoot
     00000F7A  A$enemyshoot$225                   enemyshoot
     00000F7D  A$enemyshoot$226                   enemyshoot
     00000F7E  A$enemyshoot$227                   enemyshoot
     00000F7F  A$enemyshoot$228                   enemyshoot
     00000F80  A$enemyshoot$229                   enemyshoot
     00000F81  A$enemyshoot$230                   enemyshoot
     00000F84  A$enemyshoot$231                   enemyshoot
     00000F85  A$enemyshoot$232                   enemyshoot
     00000F86  A$enemyshoot$233                   enemyshoot
     00000F87  A$enemyshoot$237                   enemyshoot
     00000F87  C$enemyshoot.c$44$2$82             enemyshoot
     00000F88  A$enemyshoot$242                   enemyshoot
     00000F88  C$enemyshoot.c$46$2$82             enemyshoot
     00000F88  XG$SpreadEnemyshootDirection$0$0   enemyshoot
     00000F8A  A$enemyshoot$252                   enemyshoot
     00000F8A  C$enemyshoot.c$48$2$82             enemyshoot
     00000F8A  G$InitEnemyshootLaser$0$0          enemyshoot
     00000F8A  _InitEnemyshootLaser               enemyshoot
     00000F8C  A$enemyshoot$253                   enemyshoot
     00000F90  A$enemyshoot$254                   enemyshoot
     00000F92  A$enemyshoot$258                   enemyshoot
     00000F92  C$enemyshoot.c$52$1$84             enemyshoot
     00000F95  A$enemyshoot$259                   enemyshoot
     00000F96  A$enemyshoot$263                   enemyshoot
     00000F96  C$enemyshoot.c$53$1$84             enemyshoot
     00000F99  A$enemyshoot$264                   enemyshoot
     00000F9B  A$enemyshoot$265                   enemyshoot
ASxxxx Linker V03.00 + NoICE + sdld,  page 40.
Hexadecimal  [32-Bits]

Area                                    Addr        Size        Decimal Bytes (Attributes)
--------------------------------        ----        ----        ------- ----- ------------
_CODE                               00000200    0000438F =       17295. bytes (REL,CON)

      Value  Global                              Global Defined In Module
      -----  --------------------------------   ------------------------
     00000F9D  A$enemyshoot$269                   enemyshoot
     00000F9D  C$enemyshoot.c$55$2$85             enemyshoot
     00000FA0  A$enemyshoot$270                   enemyshoot
     00000FA4  A$enemyshoot$271                   enemyshoot
     00000FA6  A$enemyshoot$272                   enemyshoot
     00000FA7  A$enemyshoot$273                   enemyshoot
     00000FA8  A$enemyshoot$274                   enemyshoot
     00000FA9  A$enemyshoot$275                   enemyshoot
     00000FAA  A$enemyshoot$276                   enemyshoot
     00000FAB  A$enemyshoot$277                   enemyshoot
     00000FAC  A$enemyshoot$278                   enemyshoot
     00000FAD  A$enemyshoot$279                   enemyshoot
     00000FAE  A$enemyshoot$283                   enemyshoot
     00000FAE  C$enemyshoot.c$58$2$85             enemyshoot
     00000FB1  A$enemyshoot$284                   enemyshoot
     00000FB2  A$enemyshoot$288                   enemyshoot
     00000FB2  C$enemyshoot.c$59$2$85             enemyshoot
     00000FB3  A$enemyshoot$289                   enemyshoot
     00000FB4  A$enemyshoot$290                   enemyshoot
     00000FB5  A$enemyshoot$291                   enemyshoot
     00000FB8  A$enemyshoot$292                   enemyshoot
     00000FB9  A$enemyshoot$296                   enemyshoot
     00000FB9  C$enemyshoot.c$62$2$85             enemyshoot
     00000FBC  A$enemyshoot$297                   enemyshoot
     00000FBD  A$enemyshoot$298                   enemyshoot
     00000FBF  A$enemyshoot$302                   enemyshoot
     00000FBF  C$enemyshoot.c$65$2$85             enemyshoot
     00000FC0  A$enemyshoot$303                   enemyshoot
     00000FC1  A$enemyshoot$304                   enemyshoot
     00000FC2  A$enemyshoot$305                   enemyshoot
     00000FC3  A$enemyshoot$306                   enemyshoot
     00000FC4  A$enemyshoot$307                   enemyshoot
     00000FC5  A$enemyshoot$311                   enemyshoot
     00000FC5  C$enemyshoot.c$66$2$85             enemyshoot
     00000FC6  A$enemyshoot$312                   enemyshoot
     00000FC7  A$enemyshoot$313                   enemyshoot
     00000FC8  A$enemyshoot$314                   enemyshoot
     00000FC9  A$enemyshoot$315                   enemyshoot
     00000FCC  A$enemyshoot$316                   enemyshoot
     00000FCD  A$enemyshoot$317                   enemyshoot
     00000FCF  A$enemyshoot$318                   enemyshoot
     00000FD0  A$enemyshoot$319                   enemyshoot
     00000FD1  A$enemyshoot$323                   enemyshoot
     00000FD1  C$enemyshoot.c$69$2$85             enemyshoot
     00000FD4  A$enemyshoot$324                   enemyshoot
     00000FD5  A$enemyshoot$328                   enemyshoot
     00000FD5  C$enemyshoot.c$72$2$85             enemyshoot
     00000FD7  A$enemyshoot$329                   enemyshoot
     00000FD8  A$enemyshoot$330                   enemyshoot
     00000FD9  A$enemyshoot$331                   enemyshoot
     00000FDC  A$enemyshoot$332                   enemyshoot
ASxxxx Linker V03.00 + NoICE + sdld,  page 41.
Hexadecimal  [32-Bits]

Area                                    Addr        Size        Decimal Bytes (Attributes)
--------------------------------        ----        ----        ------- ----- ------------
_CODE                               00000200    0000438F =       17295. bytes (REL,CON)

      Value  Global                              Global Defined In Module
      -----  --------------------------------   ------------------------
     00000FDD  A$enemyshoot$333                   enemyshoot
     00000FE0  A$enemyshoot$334                   enemyshoot
     00000FE1  A$enemyshoot$335                   enemyshoot
     00000FE2  A$enemyshoot$337                   enemyshoot
     00000FE4  A$enemyshoot$342                   enemyshoot
     00000FE4  C$enemyshoot.c$74$1$84             enemyshoot
     00000FE4  XG$InitEnemyshootLaser$0$0         enemyshoot
     00000FE5  A$enemyshoot$352                   enemyshoot
     00000FE5  C$enemyshoot.c$77$1$84             enemyshoot
     00000FE5  G$InitEnemyshoot$0$0               enemyshoot
     00000FE5  _InitEnemyshoot                    enemyshoot
     00000FE7  A$enemyshoot$353                   enemyshoot
     00000FEB  A$enemyshoot$354                   enemyshoot
     00000FED  A$enemyshoot$355                   enemyshoot
     00000FEE  A$enemyshoot$356                   enemyshoot
     00000FEF  A$enemyshoot$360                   enemyshoot
     00000FEF  C$enemyshoot.c$82$1$87             enemyshoot
     00000FF2  A$enemyshoot$361                   enemyshoot
     00000FF3  A$enemyshoot$365                   enemyshoot
     00000FF3  C$enemyshoot.c$84$1$87             enemyshoot
     00000FF6  A$enemyshoot$366                   enemyshoot
     00000FF8  A$enemyshoot$367                   enemyshoot
     00000FFB  A$enemyshoot$371                   enemyshoot
     00000FFB  C$enemyshoot.c$86$2$88             enemyshoot
     00000FFE  A$enemyshoot$372                   enemyshoot
     00000FFF  A$enemyshoot$373                   enemyshoot
     00001001  A$enemyshoot$374                   enemyshoot
     00001003  A$enemyshoot$375                   enemyshoot
     00001004  A$enemyshoot$376                   enemyshoot
     00001005  A$enemyshoot$377                   enemyshoot
     00001007  A$enemyshoot$378                   enemyshoot
     00001008  A$enemyshoot$379                   enemyshoot
     00001009  A$enemyshoot$380                   enemyshoot
     0000100C  A$enemyshoot$381                   enemyshoot
     0000100D  A$enemyshoot$382                   enemyshoot
     0000100F  A$enemyshoot$383                   enemyshoot
     00001010  A$enemyshoot$384                   enemyshoot
     00001011  A$enemyshoot$385                   enemyshoot
     00001014  A$enemyshoot$386                   enemyshoot
     00001015  A$enemyshoot$387                   enemyshoot
     00001016  A$enemyshoot$388                   enemyshoot
     00001017  A$enemyshoot$389                   enemyshoot
     00001018  A$enemyshoot$390                   enemyshoot
     0000101A  A$enemyshoot$391                   enemyshoot
     0000101D  A$enemyshoot$392                   enemyshoot
     0000101E  A$enemyshoot$393                   enemyshoot
     00001021  A$enemyshoot$398                   enemyshoot
     00001021  C$enemyshoot.c$88$3$89             enemyshoot
     00001025  A$enemyshoot$399                   enemyshoot
     00001027  A$enemyshoot$400                   enemyshoot
     00001028  A$enemyshoot$401                   enemyshoot
ASxxxx Linker V03.00 + NoICE + sdld,  page 42.
Hexadecimal  [32-Bits]

Area                                    Addr        Size        Decimal Bytes (Attributes)
--------------------------------        ----        ----        ------- ----- ------------
_CODE                               00000200    0000438F =       17295. bytes (REL,CON)

      Value  Global                              Global Defined In Module
      -----  --------------------------------   ------------------------
     00001029  A$enemyshoot$402                   enemyshoot
     0000102A  A$enemyshoot$403                   enemyshoot
     0000102B  A$enemyshoot$404                   enemyshoot
     0000102C  A$enemyshoot$405                   enemyshoot
     0000102F  A$enemyshoot$406                   enemyshoot
     00001030  A$enemyshoot$407                   enemyshoot
     00001031  A$enemyshoot$408                   enemyshoot
     00001032  A$enemyshoot$409                   enemyshoot
     00001033  A$enemyshoot$413                   enemyshoot
     00001033  C$enemyshoot.c$91$3$89             enemyshoot
     00001036  A$enemyshoot$414                   enemyshoot
     00001037  A$enemyshoot$415                   enemyshoot
     00001039  A$enemyshoot$416                   enemyshoot
     0000103C  A$enemyshoot$417                   enemyshoot
     0000103E  A$enemyshoot$418                   enemyshoot
     0000103F  A$enemyshoot$419                   enemyshoot
     00001040  A$enemyshoot$420                   enemyshoot
     00001041  A$enemyshoot$421                   enemyshoot
     00001042  A$enemyshoot$422                   enemyshoot
     00001043  A$enemyshoot$423                   enemyshoot
     00001044  A$enemyshoot$427                   enemyshoot
     00001044  C$enemyshoot.c$92$3$89             enemyshoot
     00001047  A$enemyshoot$428                   enemyshoot
     00001048  A$enemyshoot$429                   enemyshoot
     0000104A  A$enemyshoot$430                   enemyshoot
     0000104D  A$enemyshoot$431                   enemyshoot
     0000104F  A$enemyshoot$432                   enemyshoot
     00001050  A$enemyshoot$433                   enemyshoot
     00001051  A$enemyshoot$434                   enemyshoot
     00001054  A$enemyshoot$435                   enemyshoot
     00001055  A$enemyshoot$436                   enemyshoot
     00001056  A$enemyshoot$437                   enemyshoot
     00001059  A$enemyshoot$441                   enemyshoot
     00001059  C$enemyshoot.c$93$3$89             enemyshoot
     0000105A  A$enemyshoot$442                   enemyshoot
     0000105D  A$enemyshoot$443                   enemyshoot
     0000105E  A$enemyshoot$444                   enemyshoot
     00001061  A$enemyshoot$445                   enemyshoot
     00001064  A$enemyshoot$446                   enemyshoot
     00001065  A$enemyshoot$447                   enemyshoot
     00001068  A$enemyshoot$448                   enemyshoot
     00001069  A$enemyshoot$449                   enemyshoot
     0000106A  A$enemyshoot$450                   enemyshoot
     0000106B  A$enemyshoot$451                   enemyshoot
     0000106C  A$enemyshoot$455                   enemyshoot
     0000106C  C$enemyshoot.c$96$3$89             enemyshoot
     0000106E  A$enemyshoot$456                   enemyshoot
     0000106F  A$enemyshoot$457                   enemyshoot
     00001071  A$enemyshoot$458                   enemyshoot
     00001072  A$enemyshoot$459                   enemyshoot
     00001075  A$enemyshoot$460                   enemyshoot
ASxxxx Linker V03.00 + NoICE + sdld,  page 43.
Hexadecimal  [32-Bits]

Area                                    Addr        Size        Decimal Bytes (Attributes)
--------------------------------        ----        ----        ------- ----- ------------
_CODE                               00000200    0000438F =       17295. bytes (REL,CON)

      Value  Global                              Global Defined In Module
      -----  --------------------------------   ------------------------
     00001077  A$enemyshoot$462                   enemyshoot
     0000107A  A$enemyshoot$466                   enemyshoot
     0000107A  C$enemyshoot.c$99$4$90             enemyshoot
     0000107B  A$enemyshoot$467                   enemyshoot
     0000107C  A$enemyshoot$468                   enemyshoot
     0000107F  A$enemyshoot$469                   enemyshoot
     00001080  A$enemyshoot$473                   enemyshoot
     00001080  C$enemyshoot.c$100$4$90            enemyshoot
     00001081  A$enemyshoot$474                   enemyshoot
     00001082  A$enemyshoot$475                   enemyshoot
     00001083  A$enemyshoot$476                   enemyshoot
     00001086  A$enemyshoot$477                   enemyshoot
     00001087  A$enemyshoot$481                   enemyshoot
     00001087  C$enemyshoot.c$103$4$90            enemyshoot
     0000108A  A$enemyshoot$482                   enemyshoot
     0000108C  A$enemyshoot$483                   enemyshoot
     0000108D  A$enemyshoot$484                   enemyshoot
     00001090  A$enemyshoot$485                   enemyshoot
     00001092  A$enemyshoot$486                   enemyshoot
     00001093  A$enemyshoot$487                   enemyshoot
     00001095  A$enemyshoot$491                   enemyshoot
     00001095  C$enemyshoot.c$106$4$90            enemyshoot
     00001099  A$enemyshoot$492                   enemyshoot
     0000109C  A$enemyshoot$493                   enemyshoot
     0000109E  A$enemyshoot$494                   enemyshoot
     0000109F  A$enemyshoot$495                   enemyshoot
     000010A0  A$enemyshoot$496                   enemyshoot
     000010A1  A$enemyshoot$497                   enemyshoot
     000010A2  A$enemyshoot$498                   enemyshoot
     000010A5  A$enemyshoot$499                   enemyshoot
     000010A6  A$enemyshoot$500                   enemyshoot
     000010A7  A$enemyshoot$501                   enemyshoot
     000010A8  A$enemyshoot$502                   enemyshoot
     000010A9  A$enemyshoot$503                   enemyshoot
     000010AA  A$enemyshoot$504                   enemyshoot
     000010AB  A$enemyshoot$508                   enemyshoot
     000010AB  C$enemyshoot.c$107$1$87            enemyshoot
     000010AC  A$enemyshoot$509                   enemyshoot
     000010AD  A$enemyshoot$510                   enemyshoot
     000010AE  A$enemyshoot$511                   enemyshoot
     000010B1  A$enemyshoot$512                   enemyshoot
     000010B4  A$enemyshoot$513                   enemyshoot
     000010B5  A$enemyshoot$514                   enemyshoot
     000010B8  A$enemyshoot$515                   enemyshoot
     000010B9  A$enemyshoot$516                   enemyshoot
     000010BA  A$enemyshoot$517                   enemyshoot
     000010BB  A$enemyshoot$518                   enemyshoot
     000010BC  A$enemyshoot$522                   enemyshoot
     000010BC  C$enemyshoot.c$108$1$87            enemyshoot
     000010BD  A$enemyshoot$523                   enemyshoot
     000010BE  A$enemyshoot$524                   enemyshoot
ASxxxx Linker V03.00 + NoICE + sdld,  page 44.
Hexadecimal  [32-Bits]

Area                                    Addr        Size        Decimal Bytes (Attributes)
--------------------------------        ----        ----        ------- ----- ------------
_CODE                               00000200    0000438F =       17295. bytes (REL,CON)

      Value  Global                              Global Defined In Module
      -----  --------------------------------   ------------------------
     000010BF  A$enemyshoot$525                   enemyshoot
     000010C0  A$enemyshoot$526                   enemyshoot
     000010C3  A$enemyshoot$527                   enemyshoot
     000010C4  A$enemyshoot$528                   enemyshoot
     000010C5  A$enemyshoot$529                   enemyshoot
     000010C6  A$enemyshoot$530                   enemyshoot
     000010C7  A$enemyshoot$531                   enemyshoot
     000010C8  A$enemyshoot$532                   enemyshoot
     000010C9  A$enemyshoot$536                   enemyshoot
     000010C9  C$enemyshoot.c$109$1$87            enemyshoot
     000010CA  A$enemyshoot$537                   enemyshoot
     000010CB  A$enemyshoot$538                   enemyshoot
     000010CC  A$enemyshoot$539                   enemyshoot
     000010CF  A$enemyshoot$540                   enemyshoot
     000010D0  A$enemyshoot$541                   enemyshoot
     000010D1  A$enemyshoot$542                   enemyshoot
     000010D2  A$enemyshoot$543                   enemyshoot
     000010D3  A$enemyshoot$547                   enemyshoot
     000010D3  C$enemyshoot.c$112$4$90            enemyshoot
     000010D4  A$enemyshoot$548                   enemyshoot
     000010D5  A$enemyshoot$549                   enemyshoot
     000010D6  A$enemyshoot$550                   enemyshoot
     000010D7  A$enemyshoot$551                   enemyshoot
     000010D8  A$enemyshoot$555                   enemyshoot
     000010D8  C$enemyshoot.c$113$4$90            enemyshoot
     000010D9  A$enemyshoot$556                   enemyshoot
     000010DA  A$enemyshoot$557                   enemyshoot
     000010DB  A$enemyshoot$558                   enemyshoot
     000010DC  A$enemyshoot$559                   enemyshoot
     000010DD  A$enemyshoot$560                   enemyshoot
     000010DE  A$enemyshoot$564                   enemyshoot
     000010DE  C$enemyshoot.c$116$4$90            enemyshoot
     000010E1  A$enemyshoot$565                   enemyshoot
     000010E2  A$enemyshoot$567                   enemyshoot
     000010E4  A$enemyshoot$568                   enemyshoot
     000010E6  A$enemyshoot$573                   enemyshoot
     000010E6  C$enemyshoot.c$120$1$87            enemyshoot
     000010E6  XG$InitEnemyshoot$0$0              enemyshoot
     000010E7  A$enemyshoot$583                   enemyshoot
     000010E7  C$enemyshoot.c$123$1$87            enemyshoot
     000010E7  G$CheckMapCollision$0$0            enemyshoot
     000010E7  _CheckMapCollision                 enemyshoot
     000010E9  A$enemyshoot$584                   enemyshoot
     000010ED  A$enemyshoot$585                   enemyshoot
     000010EF  A$enemyshoot$589                   enemyshoot
     000010EF  C$enemyshoot.c$126$1$92            enemyshoot
     000010F2  A$enemyshoot$590                   enemyshoot
     000010F3  A$enemyshoot$591                   enemyshoot
     000010F5  A$enemyshoot$595                   enemyshoot
     000010F5  C$enemyshoot.c$128$2$93            enemyshoot
     000010F7  A$enemyshoot$596                   enemyshoot
ASxxxx Linker V03.00 + NoICE + sdld,  page 45.
Hexadecimal  [32-Bits]

Area                                    Addr        Size        Decimal Bytes (Attributes)
--------------------------------        ----        ----        ------- ----- ------------
_CODE                               00000200    0000438F =       17295. bytes (REL,CON)

      Value  Global                              Global Defined In Module
      -----  --------------------------------   ------------------------
     000010F8  A$enemyshoot$597                   enemyshoot
     000010F9  A$enemyshoot$598                   enemyshoot
     000010FC  A$enemyshoot$599                   enemyshoot
     000010FD  A$enemyshoot$603                   enemyshoot
     000010FD  C$enemyshoot.c$129$2$93            enemyshoot
     00001101  A$enemyshoot$604                   enemyshoot
     00001104  A$enemyshoot$605                   enemyshoot
     00001106  A$enemyshoot$606                   enemyshoot
     00001107  A$enemyshoot$607                   enemyshoot
     0000110A  A$enemyshoot$608                   enemyshoot
     0000110B  A$enemyshoot$609                   enemyshoot
     0000110C  A$enemyshoot$610                   enemyshoot
     0000110D  A$enemyshoot$611                   enemyshoot
     0000110E  A$enemyshoot$612                   enemyshoot
     0000110F  A$enemyshoot$613                   enemyshoot
     00001110  A$enemyshoot$614                   enemyshoot
     00001112  A$enemyshoot$618                   enemyshoot
     00001112  C$enemyshoot.c$130$2$93            enemyshoot
     00001115  A$enemyshoot$619                   enemyshoot
     00001118  A$enemyshoot$620                   enemyshoot
     00001119  A$enemyshoot$621                   enemyshoot
     0000111A  A$enemyshoot$622                   enemyshoot
     0000111B  A$enemyshoot$623                   enemyshoot
     0000111E  A$enemyshoot$624                   enemyshoot
     0000111F  A$enemyshoot$625                   enemyshoot
     00001121  A$enemyshoot$630                   enemyshoot
     00001121  C$enemyshoot.c$132$1$92            enemyshoot
     00001123  A$enemyshoot$632                   enemyshoot
     00001125  A$enemyshoot$637                   enemyshoot
     00001125  C$enemyshoot.c$133$1$92            enemyshoot
     00001125  XG$CheckMapCollision$0$0           enemyshoot
     00001126  A$enemyshoot$647                   enemyshoot
     00001126  C$enemyshoot.c$136$1$92            enemyshoot
     00001126  G$RemoveEnemyshoot$0$0             enemyshoot
     00001126  _RemoveEnemyshoot                  enemyshoot
     00001128  A$enemyshoot$648                   enemyshoot
     0000112C  A$enemyshoot$649                   enemyshoot
     0000112E  A$enemyshoot$653                   enemyshoot
     0000112E  C$enemyshoot.c$141$1$95            enemyshoot
     00001131  A$enemyshoot$654                   enemyshoot
     00001132  A$enemyshoot$655                   enemyshoot
     00001134  A$enemyshoot$656                   enemyshoot
     00001135  A$enemyshoot$657                   enemyshoot
     00001138  A$enemyshoot$658                   enemyshoot
     0000113B  A$enemyshoot$659                   enemyshoot
     0000113C  A$enemyshoot$660                   enemyshoot
     0000113D  A$enemyshoot$661                   enemyshoot
     0000113E  A$enemyshoot$662                   enemyshoot
     0000113F  A$enemyshoot$663                   enemyshoot
     00001140  A$enemyshoot$664                   enemyshoot
     00001141  A$enemyshoot$665                   enemyshoot
ASxxxx Linker V03.00 + NoICE + sdld,  page 46.
Hexadecimal  [32-Bits]

Area                                    Addr        Size        Decimal Bytes (Attributes)
--------------------------------        ----        ----        ------- ----- ------------
_CODE                               00000200    0000438F =       17295. bytes (REL,CON)

      Value  Global                              Global Defined In Module
      -----  --------------------------------   ------------------------
     00001142  A$enemyshoot$666                   enemyshoot
     00001145  A$enemyshoot$667                   enemyshoot
     00001147  A$enemyshoot$669                   enemyshoot
     0000114A  A$enemyshoot$673                   enemyshoot
     0000114A  C$enemyshoot.c$143$2$96            enemyshoot
     0000114D  A$enemyshoot$674                   enemyshoot
     00001150  A$enemyshoot$675                   enemyshoot
     00001151  A$enemyshoot$676                   enemyshoot
     00001153  A$enemyshoot$677                   enemyshoot
     00001154  A$enemyshoot$678                   enemyshoot
     00001155  A$enemyshoot$679                   enemyshoot
     00001156  A$enemyshoot$680                   enemyshoot
     00001157  A$enemyshoot$681                   enemyshoot
     00001158  A$enemyshoot$682                   enemyshoot
     00001159  A$enemyshoot$683                   enemyshoot
     0000115A  A$enemyshoot$684                   enemyshoot
     0000115B  A$enemyshoot$685                   enemyshoot
     0000115C  A$enemyshoot$686                   enemyshoot
     0000115D  A$enemyshoot$690                   enemyshoot
     0000115D  C$enemyshoot.c$144$2$96            enemyshoot
     00001160  A$enemyshoot$691                   enemyshoot
     00001162  A$enemyshoot$692                   enemyshoot
     00001163  A$enemyshoot$693                   enemyshoot
     00001164  A$enemyshoot$694                   enemyshoot
     00001166  A$enemyshoot$695                   enemyshoot
     00001167  A$enemyshoot$696                   enemyshoot
     00001168  A$enemyshoot$697                   enemyshoot
     00001169  A$enemyshoot$698                   enemyshoot
     0000116A  A$enemyshoot$699                   enemyshoot
     0000116B  A$enemyshoot$700                   enemyshoot
     0000116C  A$enemyshoot$701                   enemyshoot
     0000116D  A$enemyshoot$702                   enemyshoot
     0000116E  A$enemyshoot$703                   enemyshoot
     00001170  A$enemyshoot$707                   enemyshoot
     00001170  C$enemyshoot.c$146$2$96            enemyshoot
     00001173  A$enemyshoot$708                   enemyshoot
     00001174  A$enemyshoot$712                   enemyshoot
     00001174  C$enemyshoot.c$147$2$96            enemyshoot
     00001175  A$enemyshoot$713                   enemyshoot
     00001176  A$enemyshoot$714                   enemyshoot
     00001177  A$enemyshoot$715                   enemyshoot
     00001179  A$enemyshoot$716                   enemyshoot
     0000117A  A$enemyshoot$717                   enemyshoot
     0000117B  A$enemyshoot$718                   enemyshoot
     0000117C  A$enemyshoot$719                   enemyshoot
     0000117D  A$enemyshoot$723                   enemyshoot
     0000117D  C$enemyshoot.c$148$2$96            enemyshoot
     0000117E  A$enemyshoot$724                   enemyshoot
     0000117F  A$enemyshoot$725                   enemyshoot
     00001180  A$enemyshoot$726                   enemyshoot
     00001181  A$enemyshoot$727                   enemyshoot
ASxxxx Linker V03.00 + NoICE + sdld,  page 47.
Hexadecimal  [32-Bits]

Area                                    Addr        Size        Decimal Bytes (Attributes)
--------------------------------        ----        ----        ------- ----- ------------
_CODE                               00000200    0000438F =       17295. bytes (REL,CON)

      Value  Global                              Global Defined In Module
      -----  --------------------------------   ------------------------
     00001183  A$enemyshoot$728                   enemyshoot
     00001184  A$enemyshoot$729                   enemyshoot
     00001185  A$enemyshoot$730                   enemyshoot
     00001186  A$enemyshoot$731                   enemyshoot
     00001187  A$enemyshoot$732                   enemyshoot
     00001188  A$enemyshoot$736                   enemyshoot
     00001188  C$enemyshoot.c$149$2$96            enemyshoot
     00001189  A$enemyshoot$737                   enemyshoot
     0000118A  A$enemyshoot$738                   enemyshoot
     0000118B  A$enemyshoot$739                   enemyshoot
     0000118C  A$enemyshoot$740                   enemyshoot
     0000118D  A$enemyshoot$741                   enemyshoot
     0000118F  A$enemyshoot$742                   enemyshoot
     00001190  A$enemyshoot$743                   enemyshoot
     00001191  A$enemyshoot$744                   enemyshoot
     00001192  A$enemyshoot$745                   enemyshoot
     00001193  A$enemyshoot$746                   enemyshoot
     00001194  A$enemyshoot$747                   enemyshoot
     00001195  A$enemyshoot$751                   enemyshoot
     00001195  C$enemyshoot.c$150$2$96            enemyshoot
     00001196  A$enemyshoot$752                   enemyshoot
     00001197  A$enemyshoot$753                   enemyshoot
     00001198  A$enemyshoot$754                   enemyshoot
     00001199  A$enemyshoot$755                   enemyshoot
     0000119C  A$enemyshoot$756                   enemyshoot
     0000119D  A$enemyshoot$761                   enemyshoot
     0000119D  C$enemyshoot.c$153$1$95            enemyshoot
     000011A0  A$enemyshoot$762                   enemyshoot
     000011A1  A$enemyshoot$763                   enemyshoot
     000011A3  A$enemyshoot$768                   enemyshoot
     000011A3  C$enemyshoot.c$154$1$95            enemyshoot
     000011A3  XG$RemoveEnemyshoot$0$0            enemyshoot
     000011A4  A$enemyshoot$778                   enemyshoot
     000011A4  C$enemyshoot.c$157$1$95            enemyshoot
     000011A4  G$UpdateEnemyshoot$0$0             enemyshoot
     000011A4  _UpdateEnemyshoot                  enemyshoot
     000011A6  A$enemyshoot$779                   enemyshoot
     000011AA  A$enemyshoot$780                   enemyshoot
     000011AC  A$enemyshoot$781                   enemyshoot
     000011AD  A$enemyshoot$785                   enemyshoot
     000011AD  C$enemyshoot.c$159$1$98            enemyshoot
     000011B0  A$enemyshoot$786                   enemyshoot
     000011B3  A$enemyshoot$787                   enemyshoot
     000011B6  A$enemyshoot$788                   enemyshoot
     000011B7  A$enemyshoot$789                   enemyshoot
     000011B8  A$enemyshoot$790                   enemyshoot
     000011B9  A$enemyshoot$791                   enemyshoot
     000011BA  A$enemyshoot$792                   enemyshoot
     000011BB  A$enemyshoot$793                   enemyshoot
     000011BC  A$enemyshoot$794                   enemyshoot
     000011BD  A$enemyshoot$795                   enemyshoot
ASxxxx Linker V03.00 + NoICE + sdld,  page 48.
Hexadecimal  [32-Bits]

Area                                    Addr        Size        Decimal Bytes (Attributes)
--------------------------------        ----        ----        ------- ----- ------------
_CODE                               00000200    0000438F =       17295. bytes (REL,CON)

      Value  Global                              Global Defined In Module
      -----  --------------------------------   ------------------------
     000011BE  A$enemyshoot$799                   enemyshoot
     000011BE  C$enemyshoot.c$161$1$98            enemyshoot
     000011BF  A$enemyshoot$800                   enemyshoot
     000011C2  A$enemyshoot$801                   enemyshoot
     000011C4  A$enemyshoot$802                   enemyshoot
     000011C6  A$enemyshoot$803                   enemyshoot
     000011C8  A$enemyshoot$804                   enemyshoot
     000011CB  A$enemyshoot$805                   enemyshoot
     000011CD  A$enemyshoot$806                   enemyshoot
     000011CE  A$enemyshoot$807                   enemyshoot
     000011CF  A$enemyshoot$808                   enemyshoot
     000011D0  A$enemyshoot$809                   enemyshoot
     000011D1  A$enemyshoot$810                   enemyshoot
     000011D2  A$enemyshoot$811                   enemyshoot
     000011D4  A$enemyshoot$812                   enemyshoot
     000011D6  A$enemyshoot$813                   enemyshoot
     000011D8  A$enemyshoot$814                   enemyshoot
     000011D9  A$enemyshoot$815                   enemyshoot
     000011DB  A$enemyshoot$820                   enemyshoot
     000011DB  C$enemyshoot.c$162$1$98            enemyshoot
     000011DE  A$enemyshoot$821                   enemyshoot
     000011DF  A$enemyshoot$822                   enemyshoot
     000011E0  A$enemyshoot$823                   enemyshoot
     000011E3  A$enemyshoot$824                   enemyshoot
     000011E4  A$enemyshoot$825                   enemyshoot
     000011E7  A$enemyshoot$830                   enemyshoot
     000011E7  C$enemyshoot.c$166$2$99            enemyshoot
     000011E8  A$enemyshoot$831                   enemyshoot
     000011E9  A$enemyshoot$832                   enemyshoot
     000011EA  A$enemyshoot$833                   enemyshoot
     000011EB  A$enemyshoot$834                   enemyshoot
     000011EE  A$enemyshoot$835                   enemyshoot
     000011F0  A$enemyshoot$836                   enemyshoot
     000011F1  A$enemyshoot$837                   enemyshoot
     000011F2  A$enemyshoot$838                   enemyshoot
     000011F3  A$enemyshoot$839                   enemyshoot
     000011F4  A$enemyshoot$840                   enemyshoot
     000011F5  A$enemyshoot$841                   enemyshoot
     000011F6  A$enemyshoot$842                   enemyshoot
     000011F9  A$enemyshoot$843                   enemyshoot
     000011FA  A$enemyshoot$844                   enemyshoot
     000011FB  A$enemyshoot$845                   enemyshoot
     000011FC  A$enemyshoot$846                   enemyshoot
     000011FD  A$enemyshoot$847                   enemyshoot
     000011FE  A$enemyshoot$848                   enemyshoot
     00001200  A$enemyshoot$852                   enemyshoot
     00001200  C$enemyshoot.c$167$2$99            enemyshoot
     00001203  A$enemyshoot$853                   enemyshoot
     00001204  A$enemyshoot$854                   enemyshoot
     00001205  A$enemyshoot$855                   enemyshoot
     00001208  A$enemyshoot$856                   enemyshoot
ASxxxx Linker V03.00 + NoICE + sdld,  page 49.
Hexadecimal  [32-Bits]

Area                                    Addr        Size        Decimal Bytes (Attributes)
--------------------------------        ----        ----        ------- ----- ------------
_CODE                               00000200    0000438F =       17295. bytes (REL,CON)

      Value  Global                              Global Defined In Module
      -----  --------------------------------   ------------------------
     00001209  A$enemyshoot$857                   enemyshoot
     0000120C  A$enemyshoot$862                   enemyshoot
     0000120C  C$enemyshoot.c$171$3$100           enemyshoot
     0000120D  A$enemyshoot$863                   enemyshoot
     00001210  A$enemyshoot$864                   enemyshoot
     00001211  A$enemyshoot$865                   enemyshoot
     00001212  A$enemyshoot$866                   enemyshoot
     00001213  A$enemyshoot$867                   enemyshoot
     00001214  A$enemyshoot$868                   enemyshoot
     00001215  A$enemyshoot$869                   enemyshoot
     00001218  A$enemyshoot$870                   enemyshoot
     00001219  A$enemyshoot$871                   enemyshoot
     0000121A  A$enemyshoot$875                   enemyshoot
     0000121A  C$enemyshoot.c$172$3$100           enemyshoot
     0000121B  A$enemyshoot$876                   enemyshoot
     0000121E  A$enemyshoot$877                   enemyshoot
     0000121F  A$enemyshoot$878                   enemyshoot
     00001220  A$enemyshoot$879                   enemyshoot
     00001221  A$enemyshoot$880                   enemyshoot
     00001222  A$enemyshoot$881                   enemyshoot
     00001223  A$enemyshoot$882                   enemyshoot
     00001224  A$enemyshoot$883                   enemyshoot
     00001227  A$enemyshoot$884                   enemyshoot
     00001228  A$enemyshoot$885                   enemyshoot
     00001229  A$enemyshoot$889                   enemyshoot
     00001229  C$enemyshoot.c$175$3$100           enemyshoot
     0000122A  A$enemyshoot$890                   enemyshoot
     0000122C  A$enemyshoot$891                   enemyshoot
     0000122F  A$enemyshoot$892                   enemyshoot
     00001231  A$enemyshoot$893                   enemyshoot
     00001233  A$enemyshoot$897                   enemyshoot
     00001233  C$enemyshoot.c$176$3$100           enemyshoot
     00001237  A$enemyshoot$898                   enemyshoot
     0000123A  A$enemyshoot$899                   enemyshoot
     0000123C  A$enemyshoot$900                   enemyshoot
     00001240  A$enemyshoot$901                   enemyshoot
     00001241  A$enemyshoot$902                   enemyshoot
     00001242  A$enemyshoot$903                   enemyshoot
     00001243  A$enemyshoot$904                   enemyshoot
     00001245  A$enemyshoot$905                   enemyshoot
     00001246  A$enemyshoot$906                   enemyshoot
     00001247  A$enemyshoot$907                   enemyshoot
     00001248  A$enemyshoot$908                   enemyshoot
     00001249  A$enemyshoot$909                   enemyshoot
     0000124A  A$enemyshoot$910                   enemyshoot
     0000124C  A$enemyshoot$911                   enemyshoot
     0000124D  A$enemyshoot$912                   enemyshoot
     0000124E  A$enemyshoot$913                   enemyshoot
     0000124F  A$enemyshoot$914                   enemyshoot
     00001250  A$enemyshoot$915                   enemyshoot
     00001251  A$enemyshoot$916                   enemyshoot
ASxxxx Linker V03.00 + NoICE + sdld,  page 50.
Hexadecimal  [32-Bits]

Area                                    Addr        Size        Decimal Bytes (Attributes)
--------------------------------        ----        ----        ------- ----- ------------
_CODE                               00000200    0000438F =       17295. bytes (REL,CON)

      Value  Global                              Global Defined In Module
      -----  --------------------------------   ------------------------
     00001254  A$enemyshoot$917                   enemyshoot
     00001255  A$enemyshoot$918                   enemyshoot
     00001256  A$enemyshoot$919                   enemyshoot
     00001258  A$enemyshoot$924                   enemyshoot
     00001258  C$enemyshoot.c$177$3$100           enemyshoot
     0000125A  A$enemyshoot$925                   enemyshoot
     0000125C  A$enemyshoot$929                   enemyshoot
     0000125C  C$enemyshoot.c$179$4$101           enemyshoot
     0000125D  A$enemyshoot$930                   enemyshoot
     0000125F  A$enemyshoot$931                   enemyshoot
     00001262  A$enemyshoot$932                   enemyshoot
     00001263  A$enemyshoot$933                   enemyshoot
     00001266  A$enemyshoot$934                   enemyshoot
     00001267  A$enemyshoot$935                   enemyshoot
     00001268  A$enemyshoot$936                   enemyshoot
     0000126B  A$enemyshoot$937                   enemyshoot
     0000126C  A$enemyshoot$938                   enemyshoot
     0000126F  A$enemyshoot$939                   enemyshoot
     00001272  A$enemyshoot$940                   enemyshoot
     00001273  A$enemyshoot$941                   enemyshoot
     00001276  A$enemyshoot$942                   enemyshoot
     00001277  A$enemyshoot$943                   enemyshoot
     00001278  A$enemyshoot$944                   enemyshoot
     00001279  A$enemyshoot$945                   enemyshoot
     0000127A  A$enemyshoot$949                   enemyshoot
     0000127A  C$enemyshoot.c$180$4$101           enemyshoot
     0000127B  A$enemyshoot$950                   enemyshoot
     0000127C  A$enemyshoot$951                   enemyshoot
     0000127D  A$enemyshoot$952                   enemyshoot
     0000127E  A$enemyshoot$953                   enemyshoot
     00001281  A$enemyshoot$954                   enemyshoot
     00001282  A$enemyshoot$955                   enemyshoot
     00001283  A$enemyshoot$956                   enemyshoot
     00001284  A$enemyshoot$957                   enemyshoot
     00001287  A$enemyshoot$958                   enemyshoot
     00001288  A$enemyshoot$959                   enemyshoot
     00001289  A$enemyshoot$961                   enemyshoot
     0000128B  A$enemyshoot$962                   enemyshoot
     0000128D  A$enemyshoot$967                   enemyshoot
     0000128D  C$enemyshoot.c$184$1$98            enemyshoot
     0000128D  XG$UpdateEnemyshoot$0$0            enemyshoot
     0000128E  A$enemyshoot$980                   enemyshoot
     0000128E  C$enemyshoot.c$186$1$98            enemyshoot
     0000128E  C$enemyshoot.c$190$1$102           enemyshoot
     0000128E  G$UpdateEnemyshoots$0$0            enemyshoot
     0000128E  _UpdateEnemyshoots                 enemyshoot
     00001292  A$enemyshoot$981                   enemyshoot
     00001295  A$enemyshoot$982                   enemyshoot
     00001296  A$enemyshoot$983                   enemyshoot
     00001297  A$enemyshoot$987                   enemyshoot
     0000129A  A$enemyshoot$988                   enemyshoot
ASxxxx Linker V03.00 + NoICE + sdld,  page 51.
Hexadecimal  [32-Bits]

Area                                    Addr        Size        Decimal Bytes (Attributes)
--------------------------------        ----        ----        ------- ----- ------------
_CODE                               00000200    0000438F =       17295. bytes (REL,CON)

      Value  Global                              Global Defined In Module
      -----  --------------------------------   ------------------------
     0000129B  A$enemyshoot$990                   enemyshoot
     0000129D  A$enemyshoot$991                   enemyshoot
     0000129E  A$enemyshoot$995                   enemyshoot
     0000129E  C$enemyshoot.c$192$2$103           enemyshoot
     0000129F  A$enemyshoot$996                   enemyshoot
     000012A0  A$enemyshoot$997                   enemyshoot
     000012A1  A$enemyshoot$998                   enemyshoot
     000012A2  A$enemyshoot$999                   enemyshoot
     000012A3  A$enemyshoot$1000                  enemyshoot
     000012A4  A$enemyshoot$1001                  enemyshoot
     000012A5  A$enemyshoot$1002                  enemyshoot
     000012A8  A$enemyshoot$1003                  enemyshoot
     000012A9  A$enemyshoot$1004                  enemyshoot
     000012AA  A$enemyshoot$1008                  enemyshoot
     000012AA  C$enemyshoot.c$191$2$103           enemyshoot
     000012AB  A$enemyshoot$1013                  enemyshoot
     000012AB  C$enemyshoot.c$193$1$102           enemyshoot
     000012AB  XG$UpdateEnemyshoots$0$0           enemyshoot
     000012AD  A$enemyshoot$1026                  enemyshoot
     000012AD  C$enemyshoot.c$195$1$102           enemyshoot
     000012AD  C$enemyshoot.c$197$1$104           enemyshoot
     000012AD  G$InitEnemyshoots$0$0              enemyshoot
     000012AD  _InitEnemyshoots                   enemyshoot
     000012B0  A$enemyshoot$1030                  enemyshoot
     000012B0  C$enemyshoot.c$198$1$104           enemyshoot
     000012B3  A$enemyshoot$1031                  enemyshoot
     000012B5  A$enemyshoot$1036                  enemyshoot
     000012B5  C$enemyshoot.c$199$1$104           enemyshoot
     000012B5  XG$InitEnemyshoots$0$0             enemyshoot
     000012B6  A$enemyshoot$1049                  enemyshoot
     000012B6  C$enemyshoot.c$201$1$104           enemyshoot
     000012B6  C$enemyshoot.c$203$1$105           enemyshoot
     000012B6  G$KillEnemyshoots$0$0              enemyshoot
     000012B6  _KillEnemyshoots                   enemyshoot
     000012B9  A$enemyshoot$1050                  enemyshoot
     000012BB  A$enemyshoot$1055                  enemyshoot
     000012BB  C$enemyshoot.c$204$1$105           enemyshoot
     000012BB  XG$KillEnemyshoots$0$0             enemyshoot
     000012BC  A$enemyshoot$1068                  enemyshoot
     000012BC  C$enemyshoot.c$206$1$105           enemyshoot
     000012BC  C$enemyshoot.c$208$1$107           enemyshoot
     000012BC  G$TestEnemyShoot$0$0               enemyshoot
     000012BC  _TestEnemyShoot                    enemyshoot
     000012BD  A$enemyshoot$1069                  enemyshoot
     000012BE  A$enemyshoot$1070                  enemyshoot
     000012BF  A$enemyshoot$1071                  enemyshoot
     000012C0  A$enemyshoot$1072                  enemyshoot
     000012C1  A$enemyshoot$1073                  enemyshoot
     000012C2  A$enemyshoot$1074                  enemyshoot
     000012C3  A$enemyshoot$1075                  enemyshoot
     000012C4  A$enemyshoot$1076                  enemyshoot
ASxxxx Linker V03.00 + NoICE + sdld,  page 52.
Hexadecimal  [32-Bits]

Area                                    Addr        Size        Decimal Bytes (Attributes)
--------------------------------        ----        ----        ------- ----- ------------
_CODE                               00000200    0000438F =       17295. bytes (REL,CON)

      Value  Global                              Global Defined In Module
      -----  --------------------------------   ------------------------
     000012C5  A$enemyshoot$1077                  enemyshoot
     000012C6  A$enemyshoot$1078                  enemyshoot
     000012C7  A$enemyshoot$1079                  enemyshoot
     000012CA  A$enemyshoot$1080                  enemyshoot
     000012CB  A$enemyshoot$1081                  enemyshoot
     000012CC  A$enemyshoot$1082                  enemyshoot
     000012CD  A$enemyshoot$1083                  enemyshoot
     000012CE  A$enemyshoot$1084                  enemyshoot
     000012CF  A$enemyshoot$1085                  enemyshoot
     000012D0  A$enemyshoot$1086                  enemyshoot
     000012D3  A$enemyshoot$1087                  enemyshoot
     000012D4  A$enemyshoot$1088                  enemyshoot
     000012D5  A$enemyshoot$1089                  enemyshoot
     000012D6  A$enemyshoot$1090                  enemyshoot
     000012D8  A$enemyshoot$1091                  enemyshoot
     000012D9  A$enemyshoot$1095                  enemyshoot
     000012D9  C$enemyshoot.c$209$1$107           enemyshoot
     000012DA  A$enemyshoot$1096                  enemyshoot
     000012DB  A$enemyshoot$1097                  enemyshoot
     000012DC  A$enemyshoot$1098                  enemyshoot
     000012DD  A$enemyshoot$1099                  enemyshoot
     000012DE  A$enemyshoot$1100                  enemyshoot
     000012DF  A$enemyshoot$1101                  enemyshoot
     000012E0  A$enemyshoot$1102                  enemyshoot
     000012E1  A$enemyshoot$1103                  enemyshoot
     000012E2  A$enemyshoot$1104                  enemyshoot
     000012E3  A$enemyshoot$1105                  enemyshoot
     000012E4  A$enemyshoot$1106                  enemyshoot
     000012E5  A$enemyshoot$1107                  enemyshoot
     000012E6  A$enemyshoot$1108                  enemyshoot
     000012E7  A$enemyshoot$1109                  enemyshoot
     000012E8  A$enemyshoot$1110                  enemyshoot
     000012E9  A$enemyshoot$1111                  enemyshoot
     000012EA  A$enemyshoot$1112                  enemyshoot
     000012EB  A$enemyshoot$1113                  enemyshoot
     000012EC  A$enemyshoot$1114                  enemyshoot
     000012EF  A$enemyshoot$1115                  enemyshoot
     000012F0  A$enemyshoot$1116                  enemyshoot
     000012F1  A$enemyshoot$1121                  enemyshoot
     000012F1  C$enemyshoot.c$210$1$107           enemyshoot
     000012F1  XG$TestEnemyShoot$0$0              enemyshoot
     000012F2  A$enemyshoot$1134                  enemyshoot
     000012F2  C$enemyshoot.c$212$1$107           enemyshoot
     000012F2  C$enemyshoot.c$214$1$109           enemyshoot
     000012F2  G$TestEnemyShootOne$0$0            enemyshoot
     000012F2  _TestEnemyShootOne                 enemyshoot
     000012F3  A$enemyshoot$1135                  enemyshoot
     000012F4  A$enemyshoot$1136                  enemyshoot
     000012F5  A$enemyshoot$1137                  enemyshoot
     000012F6  A$enemyshoot$1138                  enemyshoot
     000012F7  A$enemyshoot$1139                  enemyshoot
ASxxxx Linker V03.00 + NoICE + sdld,  page 53.
Hexadecimal  [32-Bits]

Area                                    Addr        Size        Decimal Bytes (Attributes)
--------------------------------        ----        ----        ------- ----- ------------
_CODE                               00000200    0000438F =       17295. bytes (REL,CON)

      Value  Global                              Global Defined In Module
      -----  --------------------------------   ------------------------
     000012F8  A$enemyshoot$1140                  enemyshoot
     000012F9  A$enemyshoot$1141                  enemyshoot
     000012FA  A$enemyshoot$1142                  enemyshoot
     000012FB  A$enemyshoot$1143                  enemyshoot
     000012FC  A$enemyshoot$1144                  enemyshoot
     000012FF  A$enemyshoot$1145                  enemyshoot
     00001300  A$enemyshoot$1146                  enemyshoot
     00001301  A$enemyshoot$1147                  enemyshoot
     00001302  A$enemyshoot$1148                  enemyshoot
     00001303  A$enemyshoot$1152                  enemyshoot
     00001303  C$enemyshoot.c$215$1$109           enemyshoot
     00001304  A$enemyshoot$1153                  enemyshoot
     00001305  A$enemyshoot$1154                  enemyshoot
     00001306  A$enemyshoot$1155                  enemyshoot
     00001307  A$enemyshoot$1156                  enemyshoot
     00001308  A$enemyshoot$1157                  enemyshoot
     00001309  A$enemyshoot$1158                  enemyshoot
     0000130A  A$enemyshoot$1159                  enemyshoot
     0000130B  A$enemyshoot$1160                  enemyshoot
     0000130C  A$enemyshoot$1161                  enemyshoot
     0000130D  A$enemyshoot$1162                  enemyshoot
     0000130E  A$enemyshoot$1163                  enemyshoot
     0000130F  A$enemyshoot$1164                  enemyshoot
     00001310  A$enemyshoot$1165                  enemyshoot
     00001311  A$enemyshoot$1166                  enemyshoot
     00001312  A$enemyshoot$1167                  enemyshoot
     00001313  A$enemyshoot$1168                  enemyshoot
     00001314  A$enemyshoot$1169                  enemyshoot
     00001315  A$enemyshoot$1170                  enemyshoot
     00001316  A$enemyshoot$1171                  enemyshoot
     00001319  A$enemyshoot$1172                  enemyshoot
     0000131A  A$enemyshoot$1173                  enemyshoot
     0000131B  A$enemyshoot$1178                  enemyshoot
     0000131B  C$enemyshoot.c$216$1$109           enemyshoot
     0000131B  XG$TestEnemyShootOne$0$0           enemyshoot
     0000131C  A$enemyshoot$1191                  enemyshoot
     0000131C  C$enemyshoot.c$218$1$109           enemyshoot
     0000131C  C$enemyshoot.c$220$1$111           enemyshoot
     0000131C  G$TestEnemyShootComplex$0$0        enemyshoot
     0000131C  _TestEnemyShootComplex             enemyshoot
     0000131D  A$enemyshoot$1192                  enemyshoot
     0000131E  A$enemyshoot$1193                  enemyshoot
     0000131F  A$enemyshoot$1194                  enemyshoot
     00001320  A$enemyshoot$1195                  enemyshoot
     00001321  A$enemyshoot$1196                  enemyshoot
     00001322  A$enemyshoot$1197                  enemyshoot
     00001323  A$enemyshoot$1198                  enemyshoot
     00001324  A$enemyshoot$1199                  enemyshoot
     00001325  A$enemyshoot$1200                  enemyshoot
     00001326  A$enemyshoot$1201                  enemyshoot
     00001327  A$enemyshoot$1202                  enemyshoot
ASxxxx Linker V03.00 + NoICE + sdld,  page 54.
Hexadecimal  [32-Bits]

Area                                    Addr        Size        Decimal Bytes (Attributes)
--------------------------------        ----        ----        ------- ----- ------------
_CODE                               00000200    0000438F =       17295. bytes (REL,CON)

      Value  Global                              Global Defined In Module
      -----  --------------------------------   ------------------------
     0000132A  A$enemyshoot$1203                  enemyshoot
     0000132B  A$enemyshoot$1204                  enemyshoot
     0000132C  A$enemyshoot$1205                  enemyshoot
     0000132D  A$enemyshoot$1206                  enemyshoot
     0000132E  A$enemyshoot$1207                  enemyshoot
     0000132F  A$enemyshoot$1208                  enemyshoot
     00001330  A$enemyshoot$1209                  enemyshoot
     00001333  A$enemyshoot$1210                  enemyshoot
     00001334  A$enemyshoot$1211                  enemyshoot
     00001335  A$enemyshoot$1212                  enemyshoot
     00001336  A$enemyshoot$1213                  enemyshoot
     00001338  A$enemyshoot$1214                  enemyshoot
     00001339  A$enemyshoot$1218                  enemyshoot
     00001339  C$enemyshoot.c$221$1$111           enemyshoot
     0000133A  A$enemyshoot$1219                  enemyshoot
     0000133B  A$enemyshoot$1220                  enemyshoot
     0000133C  A$enemyshoot$1221                  enemyshoot
     0000133D  A$enemyshoot$1222                  enemyshoot
     00001340  A$enemyshoot$1223                  enemyshoot
     00001341  A$enemyshoot$1224                  enemyshoot
     00001342  A$enemyshoot$1225                  enemyshoot
     00001343  A$enemyshoot$1226                  enemyshoot
     00001344  A$enemyshoot$1227                  enemyshoot
     00001347  A$enemyshoot$1228                  enemyshoot
     00001348  A$enemyshoot$1229                  enemyshoot
     00001349  A$enemyshoot$1230                  enemyshoot
     0000134A  A$enemyshoot$1231                  enemyshoot
     0000134C  A$enemyshoot$1232                  enemyshoot
     0000134D  A$enemyshoot$1233                  enemyshoot
     0000134E  A$enemyshoot$1234                  enemyshoot
     0000134F  A$enemyshoot$1235                  enemyshoot
     00001350  A$enemyshoot$1236                  enemyshoot
     00001353  A$enemyshoot$1237                  enemyshoot
     00001354  A$enemyshoot$1238                  enemyshoot
     00001355  A$enemyshoot$1243                  enemyshoot
     00001355  C$enemyshoot.c$222$1$111           enemyshoot
     00001355  XG$TestEnemyShootComplex$0$0       enemyshoot
     00001356  A$fortresscannon$59                fortresscannon
     00001356  C$fortresscannon.c$3$0$0           fortresscannon
     00001356  C$fortresscannon.c$5$0$0           fortresscannon
     00001356  G$fortresscannon_foo$0$0           fortresscannon
     00001356  XG$fortresscannon_foo$0$0          fortresscannon
     00001356  _fortresscannon_foo                fortresscannon
     00001357  A$fortressdoor$59                  fortressdoor
     00001357  C$fortressdoor.c$3$0$0             fortressdoor
     00001357  C$fortressdoor.c$5$0$0             fortressdoor
     00001357  G$fortressdoor_foo$0$0             fortressdoor
     00001357  XG$fortressdoor_foo$0$0            fortressdoor
     00001357  _fortressdoor_foo                  fortressdoor
     00001358  A$fortressphantom$59               fortressphantom
     00001358  C$fortressphantom.c$3$0$0          fortressphantom
ASxxxx Linker V03.00 + NoICE + sdld,  page 55.
Hexadecimal  [32-Bits]

Area                                    Addr        Size        Decimal Bytes (Attributes)
--------------------------------        ----        ----        ------- ----- ------------
_CODE                               00000200    0000438F =       17295. bytes (REL,CON)

      Value  Global                              Global Defined In Module
      -----  --------------------------------   ------------------------
     00001358  C$fortressphantom.c$5$0$0          fortressphantom
     00001358  G$fortressphantom_foo$0$0          fortressphantom
     00001358  XG$fortressphantom_foo$0$0         fortressphantom
     00001358  _fortressphantom_foo               fortressphantom
     00001359  A$fortresssearcher$59              fortresssearcher
     00001359  C$fortresssearcher.c$3$0$0         fortresssearcher
     00001359  C$fortresssearcher.c$5$0$0         fortresssearcher
     00001359  G$fortresssearcher_foo$0$0         fortresssearcher
     00001359  XG$fortresssearcher_foo$0$0        fortresssearcher
     00001359  _fortresssearcher_foo              fortresssearcher
     0000135A  A$fortresswave$59                  fortresswave
     0000135A  C$fortresswave.c$3$0$0             fortresswave
     0000135A  C$fortresswave.c$5$0$0             fortresswave
     0000135A  G$fortresswave_foo$0$0             fortresswave
     0000135A  XG$fortresswave_foo$0$0            fortresswave
     0000135A  _fortresswave_foo                  fortresswave
     0000135B  A$barrom$70                        barrom
     0000135B  C$barrom.c$11$1$20                 barrom
     0000135B  C$barrom.c$9$0$0                   barrom
     0000135B  G$UpdateBarrom$0$0                 barrom
     0000135B  _UpdateBarrom                      barrom
     0000135F  A$barrom$71                        barrom
     00001362  A$barrom$72                        barrom
     00001364  A$barrom$73                        barrom
     00001365  A$barrom$77                        barrom
     00001365  C$barrom.c$14$2$21                 barrom
     00001368  A$barrom$78                        barrom
     0000136B  A$barrom$79                        barrom
     0000136D  A$barrom$80                        barrom
     0000136E  A$barrom$81                        barrom
     00001370  A$barrom$82                        barrom
     00001371  A$barrom$83                        barrom
     00001372  A$barrom$84                        barrom
     00001373  A$barrom$85                        barrom
     00001374  A$barrom$86                        barrom
     00001375  A$barrom$87                        barrom
     00001376  A$barrom$88                        barrom
     00001379  A$barrom$89                        barrom
     0000137B  A$barrom$90                        barrom
     0000137D  A$barrom$91                        barrom
     0000137F  A$barrom$92                        barrom
     00001381  A$barrom$93                        barrom
     00001382  A$barrom$94                        barrom
     00001383  A$barrom$95                        barrom
     00001386  A$barrom$96                        barrom
     00001387  A$barrom$97                        barrom
     00001388  A$barrom$98                        barrom
     0000138B  A$barrom$99                        barrom
     0000138C  A$barrom$100                       barrom
     0000138D  A$barrom$101                       barrom
     0000138E  A$barrom$102                       barrom
ASxxxx Linker V03.00 + NoICE + sdld,  page 56.
Hexadecimal  [32-Bits]

Area                                    Addr        Size        Decimal Bytes (Attributes)
--------------------------------        ----        ----        ------- ----- ------------
_CODE                               00000200    0000438F =       17295. bytes (REL,CON)

      Value  Global                              Global Defined In Module
      -----  --------------------------------   ------------------------
     0000138F  A$barrom$103                       barrom
     00001390  A$barrom$104                       barrom
     00001393  A$barrom$105                       barrom
     00001395  A$barrom$106                       barrom
     00001396  A$barrom$107                       barrom
     00001397  A$barrom$108                       barrom
     00001398  A$barrom$109                       barrom
     00001399  A$barrom$110                       barrom
     0000139A  A$barrom$111                       barrom
     0000139B  A$barrom$112                       barrom
     0000139E  A$barrom$113                       barrom
     000013A0  A$barrom$114                       barrom
     000013A2  A$barrom$115                       barrom
     000013A4  A$barrom$116                       barrom
     000013A6  A$barrom$117                       barrom
     000013A7  A$barrom$118                       barrom
     000013A9  A$barrom$119                       barrom
     000013AA  A$barrom$120                       barrom
     000013AB  A$barrom$121                       barrom
     000013AE  A$barrom$122                       barrom
     000013AF  A$barrom$123                       barrom
     000013B0  A$barrom$127                       barrom
     000013B0  C$barrom.c$15$2$21                 barrom
     000013B3  A$barrom$128                       barrom
     000013B4  A$barrom$133                       barrom
     000013B4  C$barrom.c$17$1$20                 barrom
     000013B4  XG$UpdateBarrom$0$0                barrom
     000013B5  A$barrom$146                       barrom
     000013B5  C$barrom.c$19$1$20                 barrom
     000013B5  C$barrom.c$21$1$22                 barrom
     000013B5  G$DoBarrom$0$0                     barrom
     000013B5  _DoBarrom                          barrom
     000013B8  A$barrom$147                       barrom
     000013BA  A$barrom$152                       barrom
     000013BA  C$barrom.c$22$1$22                 barrom
     000013BA  XG$DoBarrom$0$0                    barrom
     000013BB  A$barrom$165                       barrom
     000013BB  C$barrom.c$24$1$22                 barrom
     000013BB  C$barrom.c$26$1$23                 barrom
     000013BB  G$InitBarrom$0$0                   barrom
     000013BB  _InitBarrom                        barrom
     000013BE  A$barrom$166                       barrom
     000013C0  A$barrom$171                       barrom
     000013C0  C$barrom.c$27$1$23                 barrom
     000013C0  XG$InitBarrom$0$0                  barrom
     000013C1  A$bombship$59                      bombship
     000013C1  C$bombship.c$3$0$0                 bombship
     000013C1  C$bombship.c$5$0$0                 bombship
     000013C1  G$bombship_foo$0$0                 bombship
     000013C1  XG$bombship_foo$0$0                bombship
     000013C1  _bombship_foo                      bombship
ASxxxx Linker V03.00 + NoICE + sdld,  page 57.
Hexadecimal  [32-Bits]

Area                                    Addr        Size        Decimal Bytes (Attributes)
--------------------------------        ----        ----        ------- ----- ------------
_CODE                               00000200    0000438F =       17295. bytes (REL,CON)

      Value  Global                              Global Defined In Module
      -----  --------------------------------   ------------------------
     000013C2  A$explosion$64                     explosion
     000013C2  C$explosion.c$11$0$0               explosion
     000013C2  G$RemoveExplosion$0$0              explosion
     000013C2  _RemoveExplosion                   explosion
     000013C4  A$explosion$65                     explosion
     000013C8  A$explosion$66                     explosion
     000013CA  A$explosion$70                     explosion
     000013CA  C$explosion.c$16$1$51              explosion
     000013CD  A$explosion$71                     explosion
     000013CE  A$explosion$72                     explosion
     000013D0  A$explosion$73                     explosion
     000013D1  A$explosion$74                     explosion
     000013D4  A$explosion$75                     explosion
     000013D7  A$explosion$76                     explosion
     000013D8  A$explosion$77                     explosion
     000013D9  A$explosion$78                     explosion
     000013DA  A$explosion$79                     explosion
     000013DB  A$explosion$80                     explosion
     000013DC  A$explosion$81                     explosion
     000013DD  A$explosion$82                     explosion
     000013DE  A$explosion$83                     explosion
     000013E1  A$explosion$84                     explosion
     000013E3  A$explosion$86                     explosion
     000013E6  A$explosion$90                     explosion
     000013E6  C$explosion.c$18$2$52              explosion
     000013E9  A$explosion$91                     explosion
     000013EA  A$explosion$92                     explosion
     000013EB  A$explosion$93                     explosion
     000013EC  A$explosion$94                     explosion
     000013ED  A$explosion$95                     explosion
     000013EE  A$explosion$96                     explosion
     000013EF  A$explosion$97                     explosion
     000013F0  A$explosion$101                    explosion
     000013F0  C$explosion.c$19$2$52              explosion
     000013F3  A$explosion$102                    explosion
     000013F5  A$explosion$103                    explosion
     000013F6  A$explosion$104                    explosion
     000013F8  A$explosion$105                    explosion
     000013F9  A$explosion$106                    explosion
     000013FA  A$explosion$107                    explosion
     000013FB  A$explosion$108                    explosion
     000013FC  A$explosion$109                    explosion
     000013FE  A$explosion$113                    explosion
     000013FE  C$explosion.c$21$2$52              explosion
     00001401  A$explosion$114                    explosion
     00001402  A$explosion$118                    explosion
     00001402  C$explosion.c$22$2$52              explosion
     00001403  A$explosion$119                    explosion
     00001404  A$explosion$120                    explosion
     00001405  A$explosion$121                    explosion
     00001407  A$explosion$122                    explosion
ASxxxx Linker V03.00 + NoICE + sdld,  page 58.
Hexadecimal  [32-Bits]

Area                                    Addr        Size        Decimal Bytes (Attributes)
--------------------------------        ----        ----        ------- ----- ------------
_CODE                               00000200    0000438F =       17295. bytes (REL,CON)

      Value  Global                              Global Defined In Module
      -----  --------------------------------   ------------------------
     00001408  A$explosion$123                    explosion
     00001409  A$explosion$124                    explosion
     0000140A  A$explosion$125                    explosion
     0000140B  A$explosion$129                    explosion
     0000140B  C$explosion.c$23$2$52              explosion
     0000140C  A$explosion$130                    explosion
     0000140D  A$explosion$131                    explosion
     0000140E  A$explosion$132                    explosion
     0000140F  A$explosion$133                    explosion
     00001411  A$explosion$134                    explosion
     00001412  A$explosion$135                    explosion
     00001413  A$explosion$136                    explosion
     00001414  A$explosion$137                    explosion
     00001415  A$explosion$138                    explosion
     00001416  A$explosion$142                    explosion
     00001416  C$explosion.c$24$2$52              explosion
     00001417  A$explosion$143                    explosion
     00001418  A$explosion$144                    explosion
     00001419  A$explosion$145                    explosion
     0000141C  A$explosion$146                    explosion
     0000141D  A$explosion$151                    explosion
     0000141D  C$explosion.c$27$1$51              explosion
     00001420  A$explosion$152                    explosion
     00001421  A$explosion$153                    explosion
     00001423  A$explosion$158                    explosion
     00001423  C$explosion.c$28$1$51              explosion
     00001423  XG$RemoveExplosion$0$0             explosion
     00001424  A$explosion$168                    explosion
     00001424  C$explosion.c$31$1$51              explosion
     00001424  G$UpdateExplosion$0$0              explosion
     00001424  _UpdateExplosion                   explosion
     00001426  A$explosion$169                    explosion
     0000142A  A$explosion$170                    explosion
     0000142C  A$explosion$171                    explosion
     0000142D  A$explosion$172                    explosion
     0000142E  A$explosion$176                    explosion
     0000142E  C$explosion.c$33$1$54              explosion
     00001431  A$explosion$177                    explosion
     00001434  A$explosion$178                    explosion
     00001437  A$explosion$179                    explosion
     00001438  A$explosion$180                    explosion
     00001439  A$explosion$181                    explosion
     0000143A  A$explosion$182                    explosion
     0000143B  A$explosion$183                    explosion
     0000143C  A$explosion$184                    explosion
     0000143D  A$explosion$188                    explosion
     0000143E  A$explosion$189                    explosion
     0000143F  A$explosion$190                    explosion
     00001440  A$explosion$191                    explosion
     00001441  A$explosion$192                    explosion
     00001442  A$explosion$193                    explosion
ASxxxx Linker V03.00 + NoICE + sdld,  page 59.
Hexadecimal  [32-Bits]

Area                                    Addr        Size        Decimal Bytes (Attributes)
--------------------------------        ----        ----        ------- ----- ------------
_CODE                               00000200    0000438F =       17295. bytes (REL,CON)

      Value  Global                              Global Defined In Module
      -----  --------------------------------   ------------------------
     00001443  A$explosion$197                    explosion
     00001443  C$explosion.c$37$1$54              explosion
     00001446  A$explosion$198                    explosion
     00001448  A$explosion$199                    explosion
     0000144B  A$explosion$200                    explosion
     0000144E  A$explosion$201                    explosion
     00001450  A$explosion$202                    explosion
     00001453  A$explosion$203                    explosion
     00001456  A$explosion$204                    explosion
     00001459  A$explosion$205                    explosion
     0000145A  A$explosion$209                    explosion
     0000145A  C$explosion.c$35$1$54              explosion
     0000145B  A$explosion$210                    explosion
     0000145C  A$explosion$211                    explosion
     0000145E  A$explosion$215                    explosion
     0000145E  C$explosion.c$37$2$55              explosion
     0000145F  A$explosion$216                    explosion
     00001461  A$explosion$217                    explosion
     00001463  A$explosion$221                    explosion
     00001463  C$explosion.c$38$2$55              explosion
     00001466  A$explosion$222                    explosion
     00001467  A$explosion$223                    explosion
     00001468  A$explosion$224                    explosion
     0000146B  A$explosion$225                    explosion
     0000146C  A$explosion$226                    explosion
     0000146E  A$explosion$231                    explosion
     0000146E  C$explosion.c$41$3$56              explosion
     00001470  A$explosion$232                    explosion
     00001472  A$explosion$233                    explosion
     00001476  A$explosion$234                    explosion
     00001478  A$explosion$235                    explosion
     00001479  A$explosion$236                    explosion
     0000147A  A$explosion$237                    explosion
     0000147B  A$explosion$238                    explosion
     0000147C  A$explosion$239                    explosion
     0000147D  A$explosion$240                    explosion
     0000147E  A$explosion$241                    explosion
     0000147F  A$explosion$242                    explosion
     00001481  A$explosion$243                    explosion
     00001482  A$explosion$244                    explosion
     00001483  A$explosion$245                    explosion
     00001486  A$explosion$246                    explosion
     00001487  A$explosion$247                    explosion
     00001488  A$explosion$251                    explosion
     00001488  C$explosion.c$42$3$56              explosion
     0000148B  A$explosion$252                    explosion
     0000148E  A$explosion$253                    explosion
     0000148F  A$explosion$254                    explosion
     00001490  A$explosion$255                    explosion
     00001493  A$explosion$256                    explosion
     00001496  A$explosion$257                    explosion
ASxxxx Linker V03.00 + NoICE + sdld,  page 60.
Hexadecimal  [32-Bits]

Area                                    Addr        Size        Decimal Bytes (Attributes)
--------------------------------        ----        ----        ------- ----- ------------
_CODE                               00000200    0000438F =       17295. bytes (REL,CON)

      Value  Global                              Global Defined In Module
      -----  --------------------------------   ------------------------
     00001497  A$explosion$258                    explosion
     00001499  A$explosion$263                    explosion
     00001499  C$explosion.c$47$2$57              explosion
     0000149A  A$explosion$264                    explosion
     0000149C  A$explosion$265                    explosion
     0000149E  A$explosion$269                    explosion
     0000149E  C$explosion.c$48$2$57              explosion
     000014A1  A$explosion$270                    explosion
     000014A2  A$explosion$271                    explosion
     000014A3  A$explosion$272                    explosion
     000014A6  A$explosion$273                    explosion
     000014A7  A$explosion$274                    explosion
     000014A9  A$explosion$279                    explosion
     000014A9  C$explosion.c$51$3$58              explosion
     000014AB  A$explosion$280                    explosion
     000014AC  A$explosion$281                    explosion
     000014AE  A$explosion$282                    explosion
     000014AF  A$explosion$283                    explosion
     000014B0  A$explosion$284                    explosion
     000014B1  A$explosion$285                    explosion
     000014B2  A$explosion$286                    explosion
     000014B6  A$explosion$287                    explosion
     000014B8  A$explosion$288                    explosion
     000014B9  A$explosion$289                    explosion
     000014BA  A$explosion$290                    explosion
     000014BB  A$explosion$291                    explosion
     000014BC  A$explosion$292                    explosion
     000014BD  A$explosion$293                    explosion
     000014BE  A$explosion$294                    explosion
     000014BF  A$explosion$295                    explosion
     000014C1  A$explosion$296                    explosion
     000014C2  A$explosion$297                    explosion
     000014C3  A$explosion$298                    explosion
     000014C6  A$explosion$299                    explosion
     000014C7  A$explosion$300                    explosion
     000014C8  A$explosion$304                    explosion
     000014C8  C$explosion.c$52$3$58              explosion
     000014CB  A$explosion$305                    explosion
     000014CE  A$explosion$306                    explosion
     000014CF  A$explosion$307                    explosion
     000014D0  A$explosion$308                    explosion
     000014D3  A$explosion$309                    explosion
     000014D6  A$explosion$310                    explosion
     000014D7  A$explosion$312                    explosion
     000014D9  A$explosion$313                    explosion
     000014DB  A$explosion$318                    explosion
     000014DB  C$explosion.c$55$1$54              explosion
     000014DB  XG$UpdateExplosion$0$0             explosion
     000014DC  A$explosion$328                    explosion
     000014DC  C$explosion.c$58$1$54              explosion
     000014DC  G$InitExplosion$0$0                explosion
ASxxxx Linker V03.00 + NoICE + sdld,  page 61.
Hexadecimal  [32-Bits]

Area                                    Addr        Size        Decimal Bytes (Attributes)
--------------------------------        ----        ----        ------- ----- ------------
_CODE                               00000200    0000438F =       17295. bytes (REL,CON)

      Value  Global                              Global Defined In Module
      -----  --------------------------------   ------------------------
     000014DC  _InitExplosion                     explosion
     000014DE  A$explosion$329                    explosion
     000014E2  A$explosion$330                    explosion
     000014E4  A$explosion$334                    explosion
     000014E4  C$explosion.c$62$1$60              explosion
     000014E8  A$explosion$335                    explosion
     000014EB  A$explosion$336                    explosion
     000014ED  A$explosion$337                    explosion
     000014EF  A$explosion$341                    explosion
     000014EF  C$explosion.c$65$2$61              explosion
     000014F2  A$explosion$342                    explosion
     000014F5  A$explosion$343                    explosion
     000014F7  A$explosion$344                    explosion
     000014F8  A$explosion$345                    explosion
     000014F9  A$explosion$346                    explosion
     000014FA  A$explosion$347                    explosion
     000014FB  A$explosion$348                    explosion
     000014FC  A$explosion$352                    explosion
     000014FC  C$explosion.c$68$2$61              explosion
     000014FF  A$explosion$353                    explosion
     00001500  A$explosion$357                    explosion
     00001500  C$explosion.c$69$2$61              explosion
     00001501  A$explosion$358                    explosion
     00001502  A$explosion$359                    explosion
     00001503  A$explosion$360                    explosion
     00001506  A$explosion$361                    explosion
     00001507  A$explosion$365                    explosion
     00001507  C$explosion.c$70$2$61              explosion
     00001508  A$explosion$366                    explosion
     00001509  A$explosion$367                    explosion
     0000150A  A$explosion$368                    explosion
     0000150B  A$explosion$369                    explosion
     0000150C  A$explosion$370                    explosion
     0000150D  A$explosion$374                    explosion
     0000150D  C$explosion.c$71$2$61              explosion
     0000150E  A$explosion$375                    explosion
     0000150F  A$explosion$376                    explosion
     00001510  A$explosion$377                    explosion
     00001511  A$explosion$378                    explosion
     00001512  A$explosion$379                    explosion
     00001515  A$explosion$380                    explosion
     00001516  A$explosion$384                    explosion
     00001516  C$explosion.c$74$2$61              explosion
     00001519  A$explosion$388                    explosion
     00001519  C$explosion.c$77$2$61              explosion
     0000151C  A$explosion$389                    explosion
     0000151D  A$explosion$390                    explosion
     0000151F  A$explosion$394                    explosion
     0000151F  C$explosion.c$79$3$62              explosion
     00001521  A$explosion$395                    explosion
     00001522  A$explosion$396                    explosion
ASxxxx Linker V03.00 + NoICE + sdld,  page 62.
Hexadecimal  [32-Bits]

Area                                    Addr        Size        Decimal Bytes (Attributes)
--------------------------------        ----        ----        ------- ----- ------------
_CODE                               00000200    0000438F =       17295. bytes (REL,CON)

      Value  Global                              Global Defined In Module
      -----  --------------------------------   ------------------------
     00001523  A$explosion$397                    explosion
     00001526  A$explosion$398                    explosion
     00001527  A$explosion$399                    explosion
     0000152A  A$explosion$400                    explosion
     0000152B  A$explosion$401                    explosion
     0000152C  A$explosion$403                    explosion
     0000152E  A$explosion$408                    explosion
     0000152E  C$explosion.c$82$1$60              explosion
     0000152E  XG$InitExplosion$0$0               explosion
     0000152F  A$explosion$421                    explosion
     0000152F  C$explosion.c$85$1$60              explosion
     0000152F  C$explosion.c$90$1$63              explosion
     0000152F  G$UpdateExplosions$0$0             explosion
     0000152F  _UpdateExplosions                  explosion
     00001533  A$explosion$422                    explosion
     00001536  A$explosion$423                    explosion
     00001537  A$explosion$424                    explosion
     00001539  A$explosion$428                    explosion
     0000153C  A$explosion$429                    explosion
     0000153D  A$explosion$431                    explosion
     0000153F  A$explosion$432                    explosion
     00001541  A$explosion$436                    explosion
     00001541  C$explosion.c$93$3$65              explosion
     00001542  A$explosion$437                    explosion
     00001543  A$explosion$438                    explosion
     00001544  A$explosion$439                    explosion
     00001545  A$explosion$440                    explosion
     00001546  A$explosion$441                    explosion
     00001547  A$explosion$442                    explosion
     00001548  A$explosion$443                    explosion
     0000154B  A$explosion$444                    explosion
     0000154C  A$explosion$445                    explosion
     0000154D  A$explosion$449                    explosion
     0000154D  C$explosion.c$91$2$64              explosion
     0000154E  A$explosion$450                    explosion
     00001550  A$explosion$455                    explosion
     00001550  C$explosion.c$97$1$63              explosion
     00001554  A$explosion$456                    explosion
     00001557  A$explosion$457                    explosion
     00001558  A$explosion$458                    explosion
     00001559  A$explosion$462                    explosion
     00001559  C$explosion.c$99$2$66              explosion
     0000155C  A$explosion$463                    explosion
     0000155E  A$explosion$464                    explosion
     00001560  A$explosion$468                    explosion
     00001560  C$explosion.c$101$3$67             explosion
     00001563  A$explosion$469                    explosion
     00001564  A$explosion$470                    explosion
     00001567  A$explosion$471                    explosion
     00001568  A$explosion$472                    explosion
     00001569  A$explosion$473                    explosion
ASxxxx Linker V03.00 + NoICE + sdld,  page 63.
Hexadecimal  [32-Bits]

Area                                    Addr        Size        Decimal Bytes (Attributes)
--------------------------------        ----        ----        ------- ----- ------------
_CODE                               00000200    0000438F =       17295. bytes (REL,CON)

      Value  Global                              Global Defined In Module
      -----  --------------------------------   ------------------------
     0000156A  A$explosion$474                    explosion
     0000156B  A$explosion$475                    explosion
     0000156E  A$explosion$476                    explosion
     0000156F  A$explosion$477                    explosion
     00001572  A$explosion$478                    explosion
     00001573  A$explosion$479                    explosion
     00001574  A$explosion$480                    explosion
     00001575  A$explosion$481                    explosion
     00001578  A$explosion$482                    explosion
     00001579  A$explosion$483                    explosion
     0000157C  A$explosion$484                    explosion
     0000157D  A$explosion$485                    explosion
     0000157E  A$explosion$486                    explosion
     0000157F  A$explosion$487                    explosion
     00001580  A$explosion$488                    explosion
     00001583  A$explosion$489                    explosion
     00001584  A$explosion$490                    explosion
     00001585  A$explosion$491                    explosion
     00001588  A$explosion$492                    explosion
     00001589  A$explosion$493                    explosion
     0000158A  A$explosion$494                    explosion
     0000158C  A$explosion$495                    explosion
     0000158D  A$explosion$496                    explosion
     0000158E  A$explosion$497                    explosion
     0000158F  A$explosion$498                    explosion
     00001590  A$explosion$499                    explosion
     00001593  A$explosion$500                    explosion
     00001594  A$explosion$501                    explosion
     00001595  A$explosion$505                    explosion
     00001595  C$explosion.c$102$3$67             explosion
     00001598  A$explosion$510                    explosion
     00001598  C$explosion.c$104$2$66             explosion
     0000159B  A$explosion$511                    explosion
     0000159C  A$explosion$516                    explosion
     0000159C  C$explosion.c$106$1$63             explosion
     0000159C  XG$UpdateExplosions$0$0            explosion
     0000159D  A$explosion$529                    explosion
     0000159D  C$explosion.c$109$1$63             explosion
     0000159D  C$explosion.c$112$1$68             explosion
     0000159D  G$InitExplosionSprite$0$0          explosion
     0000159D  _InitExplosionSprite               explosion
     0000159F  A$explosion$530                    explosion
     000015A0  A$explosion$531                    explosion
     000015A1  A$explosion$532                    explosion
     000015A4  A$explosion$533                    explosion
     000015A5  A$explosion$534                    explosion
     000015A8  A$explosion$535                    explosion
     000015A9  A$explosion$536                    explosion
     000015AC  A$explosion$537                    explosion
     000015AD  A$explosion$538                    explosion
     000015AE  A$explosion$539                    explosion
ASxxxx Linker V03.00 + NoICE + sdld,  page 64.
Hexadecimal  [32-Bits]

Area                                    Addr        Size        Decimal Bytes (Attributes)
--------------------------------        ----        ----        ------- ----- ------------
_CODE                               00000200    0000438F =       17295. bytes (REL,CON)

      Value  Global                              Global Defined In Module
      -----  --------------------------------   ------------------------
     000015AF  A$explosion$543                    explosion
     000015AF  C$explosion.c$113$1$68             explosion
     000015B1  A$explosion$544                    explosion
     000015B2  A$explosion$545                    explosion
     000015B3  A$explosion$546                    explosion
     000015B6  A$explosion$547                    explosion
     000015B7  A$explosion$548                    explosion
     000015BA  A$explosion$549                    explosion
     000015BB  A$explosion$550                    explosion
     000015BE  A$explosion$551                    explosion
     000015BF  A$explosion$552                    explosion
     000015C0  A$explosion$553                    explosion
     000015C1  A$explosion$558                    explosion
     000015C1  C$explosion.c$114$1$68             explosion
     000015C1  XG$InitExplosionSprite$0$0         explosion
     000015C2  A$explosion$571                    explosion
     000015C2  C$explosion.c$117$1$68             explosion
     000015C2  C$explosion.c$119$1$69             explosion
     000015C2  G$InitExplosions$0$0               explosion
     000015C2  _InitExplosions                    explosion
     000015C5  A$explosion$575                    explosion
     000015C5  C$explosion.c$120$1$69             explosion
     000015C8  A$explosion$576                    explosion
     000015CA  A$explosion$580                    explosion
     000015CA  C$explosion.c$121$1$69             explosion
     000015CD  A$explosion$581                    explosion
     000015CF  A$explosion$586                    explosion
     000015CF  C$explosion.c$122$1$69             explosion
     000015CF  XG$InitExplosions$0$0              explosion
     000015D0  A$explosion$596                    explosion
     000015D0  C$explosion.c$124$1$69             explosion
     000015D0  G$InitSpawnedExplosion$0$0         explosion
     000015D0  _InitSpawnedExplosion              explosion
     000015D2  A$explosion$597                    explosion
     000015D6  A$explosion$598                    explosion
     000015D8  A$explosion$602                    explosion
     000015D8  C$explosion.c$126$1$71             explosion
     000015DB  A$explosion$603                    explosion
     000015DE  A$explosion$607                    explosion
     000015DE  C$explosion.c$127$1$71             explosion
     000015E1  A$explosion$608                    explosion
     000015E4  A$explosion$612                    explosion
     000015E4  C$explosion.c$128$1$71             explosion
     000015E7  A$explosion$613                    explosion
     000015EA  A$explosion$614                    explosion
     000015EC  A$explosion$615                    explosion
     000015ED  A$explosion$619                    explosion
     000015ED  C$explosion.c$129$1$71             explosion
     000015F0  A$explosion$620                    explosion
     000015F3  A$explosion$621                    explosion
     000015F5  A$explosion$622                    explosion
ASxxxx Linker V03.00 + NoICE + sdld,  page 65.
Hexadecimal  [32-Bits]

Area                                    Addr        Size        Decimal Bytes (Attributes)
--------------------------------        ----        ----        ------- ----- ------------
_CODE                               00000200    0000438F =       17295. bytes (REL,CON)

      Value  Global                              Global Defined In Module
      -----  --------------------------------   ------------------------
     000015F6  A$explosion$626                    explosion
     000015F6  C$explosion.c$130$1$71             explosion
     000015F9  A$explosion$627                    explosion
     000015FB  A$explosion$628                    explosion
     000015FE  A$explosion$629                    explosion
     00001600  A$explosion$630                    explosion
     00001601  A$explosion$631                    explosion
     00001603  A$explosion$632                    explosion
     00001605  A$explosion$633                    explosion
     00001609  A$explosion$634                    explosion
     0000160C  A$explosion$635                    explosion
     0000160E  A$explosion$640                    explosion
     0000160E  C$explosion.c$131$1$71             explosion
     0000160E  XG$InitSpawnedExplosion$0$0        explosion
     0000160F  A$finishstage$59                   finishstage
     0000160F  C$finishstage.c$11$0$0             finishstage
     0000160F  C$finishstage.c$14$1$23            finishstage
     0000160F  G$InitFinishStage$0$0              finishstage
     0000160F  _InitFinishStage                   finishstage
     00001611  A$finishstage$60                   finishstage
     00001612  A$finishstage$61                   finishstage
     00001613  A$finishstage$62                   finishstage
     00001616  A$finishstage$63                   finishstage
     00001617  A$finishstage$64                   finishstage
     0000161A  A$finishstage$65                   finishstage
     0000161B  A$finishstage$66                   finishstage
     0000161E  A$finishstage$67                   finishstage
     0000161F  A$finishstage$68                   finishstage
     00001622  A$finishstage$69                   finishstage
     00001625  A$finishstage$70                   finishstage
     00001626  A$finishstage$71                   finishstage
     00001627  A$finishstage$75                   finishstage
     00001627  C$finishstage.c$17$1$23            finishstage
     00001629  A$finishstage$76                   finishstage
     0000162A  A$finishstage$77                   finishstage
     0000162B  A$finishstage$78                   finishstage
     0000162E  A$finishstage$79                   finishstage
     0000162F  A$finishstage$80                   finishstage
     00001632  A$finishstage$81                   finishstage
     00001633  A$finishstage$82                   finishstage
     00001636  A$finishstage$83                   finishstage
     00001637  A$finishstage$84                   finishstage
     00001638  A$finishstage$85                   finishstage
     00001639  A$finishstage$89                   finishstage
     00001639  C$finishstage.c$20$1$23            finishstage
     0000163B  A$finishstage$90                   finishstage
     0000163C  A$finishstage$91                   finishstage
     0000163D  A$finishstage$92                   finishstage
     00001640  A$finishstage$93                   finishstage
     00001641  A$finishstage$94                   finishstage
     00001644  A$finishstage$95                   finishstage
ASxxxx Linker V03.00 + NoICE + sdld,  page 66.
Hexadecimal  [32-Bits]

Area                                    Addr        Size        Decimal Bytes (Attributes)
--------------------------------        ----        ----        ------- ----- ------------
_CODE                               00000200    0000438F =       17295. bytes (REL,CON)

      Value  Global                              Global Defined In Module
      -----  --------------------------------   ------------------------
     00001645  A$finishstage$96                   finishstage
     00001648  A$finishstage$97                   finishstage
     00001649  A$finishstage$101                  finishstage
     00001649  C$finishstage.c$23$1$23            finishstage
     0000164A  A$finishstage$102                  finishstage
     0000164D  A$finishstage$103                  finishstage
     0000164E  A$finishstage$104                  finishstage
     00001651  A$finishstage$105                  finishstage
     00001652  A$finishstage$106                  finishstage
     00001655  A$finishstage$107                  finishstage
     00001656  A$finishstage$111                  finishstage
     00001656  C$finishstage.c$26$1$23            finishstage
     00001659  A$finishstage$112                  finishstage
     0000165A  A$finishstage$113                  finishstage
     0000165D  A$finishstage$114                  finishstage
     0000165E  A$finishstage$115                  finishstage
     00001661  A$finishstage$116                  finishstage
     00001662  A$finishstage$117                  finishstage
     00001663  A$finishstage$121                  finishstage
     00001663  C$finishstage.c$29$1$23            finishstage
     00001666  A$finishstage$122                  finishstage
     00001668  A$finishstage$127                  finishstage
     00001668  C$finishstage.c$30$1$23            finishstage
     00001668  XG$InitFinishStage$0$0             finishstage
     00001669  A$gameoverstage$65                 gameoverstage
     00001669  C$gameoverstage.c$12$1$62          gameoverstage
     00001669  C$gameoverstage.c$9$0$0            gameoverstage
     00001669  G$InitGameoverStage$0$0            gameoverstage
     00001669  _InitGameoverStage                 gameoverstage
     0000166C  A$gameoverstage$69                 gameoverstage
     0000166C  C$gameoverstage.c$15$1$62          gameoverstage
     0000166F  A$gameoverstage$73                 gameoverstage
     0000166F  C$gameoverstage.c$18$1$62          gameoverstage
     00001671  A$gameoverstage$74                 gameoverstage
     00001672  A$gameoverstage$75                 gameoverstage
     00001673  A$gameoverstage$76                 gameoverstage
     00001676  A$gameoverstage$77                 gameoverstage
     00001677  A$gameoverstage$78                 gameoverstage
     0000167A  A$gameoverstage$82                 gameoverstage
     0000167A  C$gameoverstage.c$21$1$62          gameoverstage
     0000167B  A$gameoverstage$83                 gameoverstage
     0000167E  A$gameoverstage$84                 gameoverstage
     0000167F  A$gameoverstage$85                 gameoverstage
     00001682  A$gameoverstage$86                 gameoverstage
     00001683  A$gameoverstage$87                 gameoverstage
     00001686  A$gameoverstage$88                 gameoverstage
     00001687  A$gameoverstage$92                 gameoverstage
     00001687  C$gameoverstage.c$22$1$62          gameoverstage
     0000168A  A$gameoverstage$93                 gameoverstage
     0000168B  A$gameoverstage$94                 gameoverstage
     0000168E  A$gameoverstage$95                 gameoverstage
ASxxxx Linker V03.00 + NoICE + sdld,  page 67.
Hexadecimal  [32-Bits]

Area                                    Addr        Size        Decimal Bytes (Attributes)
--------------------------------        ----        ----        ------- ----- ------------
_CODE                               00000200    0000438F =       17295. bytes (REL,CON)

      Value  Global                              Global Defined In Module
      -----  --------------------------------   ------------------------
     0000168F  A$gameoverstage$96                 gameoverstage
     00001692  A$gameoverstage$97                 gameoverstage
     00001693  A$gameoverstage$98                 gameoverstage
     00001694  A$gameoverstage$102                gameoverstage
     00001694  C$gameoverstage.c$25$1$62          gameoverstage
     00001697  A$gameoverstage$106                gameoverstage
     00001697  C$gameoverstage.c$28$1$62          gameoverstage
     0000169A  A$gameoverstage$107                gameoverstage
     0000169B  A$gameoverstage$108                gameoverstage
     0000169E  A$gameoverstage$109                gameoverstage
     0000169F  A$gameoverstage$110                gameoverstage
     000016A2  A$gameoverstage$111                gameoverstage
     000016A3  A$gameoverstage$112                gameoverstage
     000016A4  A$gameoverstage$120                gameoverstage
     000016A4  C$gameoverstage.c$31$1$62          gameoverstage
     000016A4  C$gameoverstage.c$34$2$63          gameoverstage
     000016A7  A$gameoverstage$124                gameoverstage
     000016A7  C$gameoverstage.c$37$2$63          gameoverstage
     000016AA  A$gameoverstage$125                gameoverstage
     000016AB  A$gameoverstage$126                gameoverstage
     000016AC  A$gameoverstage$127                gameoverstage
     000016B0  A$gameoverstage$128                gameoverstage
     000016B3  A$gameoverstage$129                gameoverstage
     000016B4  A$gameoverstage$130                gameoverstage
     000016B5  A$gameoverstage$131                gameoverstage
     000016B8  A$gameoverstage$132                gameoverstage
     000016B9  A$gameoverstage$133                gameoverstage
     000016BB  A$gameoverstage$137                gameoverstage
     000016BB  C$gameoverstage.c$40$3$64          gameoverstage
     000016BE  A$gameoverstage$138                gameoverstage
     000016C1  A$gameoverstage$142                gameoverstage
     000016C1  C$gameoverstage.c$41$3$64          gameoverstage
     000016C4  A$gameoverstage$143                gameoverstage
     000016C7  A$gameoverstage$147                gameoverstage
     000016C7  C$gameoverstage.c$44$3$64          gameoverstage
     000016C8  A$gameoverstage$152                gameoverstage
     000016C8  C$gameoverstage.c$48$2$63          gameoverstage
     000016CB  A$gameoverstage$153                gameoverstage
     000016CC  A$gameoverstage$154                gameoverstage
     000016CD  A$gameoverstage$155                gameoverstage
     000016CF  A$gameoverstage$159                gameoverstage
     000016CF  C$gameoverstage.c$51$3$65          gameoverstage
     000016D2  A$gameoverstage$160                gameoverstage
     000016D4  A$gameoverstage$164                gameoverstage
     000016D4  C$gameoverstage.c$54$3$65          gameoverstage
     000016D5  A$gameoverstage$169                gameoverstage
     000016D5  C$gameoverstage.c$58$2$63          gameoverstage
     000016D8  A$gameoverstage$174                gameoverstage
     000016D8  C$gameoverstage.c$60$1$62          gameoverstage
     000016D8  XG$InitGameoverStage$0$0           gameoverstage
     000016DA  Fgameoverstage$__str_0$0$0         gameoverstage
ASxxxx Linker V03.00 + NoICE + sdld,  page 68.
Hexadecimal  [32-Bits]

Area                                    Addr        Size        Decimal Bytes (Attributes)
--------------------------------        ----        ----        ------- ----- ------------
_CODE                               00000200    0000438F =       17295. bytes (REL,CON)

      Value  Global                              Global Defined In Module
      -----  --------------------------------   ------------------------
     000016E5  Fgameoverstage$__str_1$0$0         gameoverstage
     000016FC  A$jukeboxstage$85                  jukeboxstage
     000016FC  C$jukeboxstage.c$13$0$0            jukeboxstage
     000016FC  C$jukeboxstage.c$16$1$46           jukeboxstage
     000016FC  G$UpdateJukeboxInfo$0$0            jukeboxstage
     000016FC  _UpdateJukeboxInfo                 jukeboxstage
     000016FE  A$jukeboxstage$86                  jukeboxstage
     000016FF  A$jukeboxstage$87                  jukeboxstage
     00001700  A$jukeboxstage$88                  jukeboxstage
     00001703  A$jukeboxstage$89                  jukeboxstage
     00001704  A$jukeboxstage$93                  jukeboxstage
     00001704  C$jukeboxstage.c$19$1$46           jukeboxstage
     00001707  A$jukeboxstage$94                  jukeboxstage
     00001708  A$jukeboxstage$95                  jukeboxstage
     0000170A  A$jukeboxstage$96                  jukeboxstage
     0000170B  A$jukeboxstage$97                  jukeboxstage
     0000170C  A$jukeboxstage$98                  jukeboxstage
     0000170D  A$jukeboxstage$99                  jukeboxstage
     0000170F  A$jukeboxstage$100                 jukeboxstage
     00001710  A$jukeboxstage$101                 jukeboxstage
     00001713  A$jukeboxstage$102                 jukeboxstage
     00001714  A$jukeboxstage$103                 jukeboxstage
     00001715  A$jukeboxstage$104                 jukeboxstage
     00001716  A$jukeboxstage$105                 jukeboxstage
     00001718  A$jukeboxstage$106                 jukeboxstage
     00001719  A$jukeboxstage$107                 jukeboxstage
     0000171A  A$jukeboxstage$108                 jukeboxstage
     0000171D  A$jukeboxstage$109                 jukeboxstage
     0000171E  A$jukeboxstage$110                 jukeboxstage
     0000171F  A$jukeboxstage$114                 jukeboxstage
     0000171F  C$jukeboxstage.c$22$1$46           jukeboxstage
     00001722  A$jukeboxstage$115                 jukeboxstage
     00001726  A$jukeboxstage$116                 jukeboxstage
     00001729  A$jukeboxstage$117                 jukeboxstage
     0000172B  A$jukeboxstage$118                 jukeboxstage
     0000172C  A$jukeboxstage$119                 jukeboxstage
     0000172D  A$jukeboxstage$120                 jukeboxstage
     0000172E  A$jukeboxstage$121                 jukeboxstage
     0000172F  A$jukeboxstage$122                 jukeboxstage
     00001730  A$jukeboxstage$123                 jukeboxstage
     00001733  A$jukeboxstage$124                 jukeboxstage
     00001734  A$jukeboxstage$125                 jukeboxstage
     00001735  A$jukeboxstage$126                 jukeboxstage
     00001738  A$jukeboxstage$127                 jukeboxstage
     00001739  A$jukeboxstage$128                 jukeboxstage
     0000173A  A$jukeboxstage$132                 jukeboxstage
     0000173A  C$jukeboxstage.c$25$1$46           jukeboxstage
     0000173D  A$jukeboxstage$133                 jukeboxstage
     00001741  A$jukeboxstage$134                 jukeboxstage
     00001744  A$jukeboxstage$135                 jukeboxstage
     00001746  A$jukeboxstage$136                 jukeboxstage
ASxxxx Linker V03.00 + NoICE + sdld,  page 69.
Hexadecimal  [32-Bits]

Area                                    Addr        Size        Decimal Bytes (Attributes)
--------------------------------        ----        ----        ------- ----- ------------
_CODE                               00000200    0000438F =       17295. bytes (REL,CON)

      Value  Global                              Global Defined In Module
      -----  --------------------------------   ------------------------
     00001747  A$jukeboxstage$137                 jukeboxstage
     00001748  A$jukeboxstage$138                 jukeboxstage
     00001749  A$jukeboxstage$139                 jukeboxstage
     0000174A  A$jukeboxstage$140                 jukeboxstage
     0000174B  A$jukeboxstage$141                 jukeboxstage
     0000174E  A$jukeboxstage$142                 jukeboxstage
     0000174F  A$jukeboxstage$143                 jukeboxstage
     00001750  A$jukeboxstage$144                 jukeboxstage
     00001753  A$jukeboxstage$145                 jukeboxstage
     00001754  A$jukeboxstage$146                 jukeboxstage
     00001755  A$jukeboxstage$150                 jukeboxstage
     00001755  C$jukeboxstage.c$28$1$46           jukeboxstage
     00001758  A$jukeboxstage$151                 jukeboxstage
     00001759  A$jukeboxstage$152                 jukeboxstage
     0000175B  A$jukeboxstage$153                 jukeboxstage
     0000175E  A$jukeboxstage$154                 jukeboxstage
     0000175F  A$jukeboxstage$155                 jukeboxstage
     00001762  A$jukeboxstage$156                 jukeboxstage
     00001763  A$jukeboxstage$157                 jukeboxstage
     00001764  A$jukeboxstage$158                 jukeboxstage
     00001767  A$jukeboxstage$159                 jukeboxstage
     0000176A  A$jukeboxstage$160                 jukeboxstage
     0000176B  A$jukeboxstage$161                 jukeboxstage
     0000176C  A$jukeboxstage$165                 jukeboxstage
     0000176C  C$jukeboxstage.c$31$1$46           jukeboxstage
     00001770  A$jukeboxstage$166                 jukeboxstage
     00001773  A$jukeboxstage$167                 jukeboxstage
     00001774  A$jukeboxstage$168                 jukeboxstage
     00001777  A$jukeboxstage$172                 jukeboxstage
     00001777  C$jukeboxstage.c$34$2$47           jukeboxstage
     0000177B  A$jukeboxstage$176                 jukeboxstage
     0000177B  C$jukeboxstage.c$37$2$47           jukeboxstage
     0000177E  A$jukeboxstage$177                 jukeboxstage
     00001780  A$jukeboxstage$178                 jukeboxstage
     00001782  A$jukeboxstage$182                 jukeboxstage
     00001782  C$jukeboxstage.c$39$3$48           jukeboxstage
     00001785  A$jukeboxstage$183                 jukeboxstage
     00001786  A$jukeboxstage$184                 jukeboxstage
     00001787  A$jukeboxstage$185                 jukeboxstage
     0000178B  A$jukeboxstage$186                 jukeboxstage
     0000178E  A$jukeboxstage$187                 jukeboxstage
     0000178F  A$jukeboxstage$188                 jukeboxstage
     00001790  A$jukeboxstage$189                 jukeboxstage
     00001793  A$jukeboxstage$190                 jukeboxstage
     00001794  A$jukeboxstage$191                 jukeboxstage
     00001796  A$jukeboxstage$192                 jukeboxstage
     0000179A  A$jukeboxstage$193                 jukeboxstage
     0000179D  A$jukeboxstage$194                 jukeboxstage
     0000179E  A$jukeboxstage$195                 jukeboxstage
     000017A0  A$jukeboxstage$196                 jukeboxstage
     000017A3  A$jukeboxstage$201                 jukeboxstage
ASxxxx Linker V03.00 + NoICE + sdld,  page 70.
Hexadecimal  [32-Bits]

Area                                    Addr        Size        Decimal Bytes (Attributes)
--------------------------------        ----        ----        ------- ----- ------------
_CODE                               00000200    0000438F =       17295. bytes (REL,CON)

      Value  Global                              Global Defined In Module
      -----  --------------------------------   ------------------------
     000017A3  C$jukeboxstage.c$40$3$48           jukeboxstage
     000017A6  A$jukeboxstage$202                 jukeboxstage
     000017A7  A$jukeboxstage$203                 jukeboxstage
     000017A8  A$jukeboxstage$204                 jukeboxstage
     000017AC  A$jukeboxstage$205                 jukeboxstage
     000017AF  A$jukeboxstage$206                 jukeboxstage
     000017B0  A$jukeboxstage$207                 jukeboxstage
     000017B1  A$jukeboxstage$208                 jukeboxstage
     000017B4  A$jukeboxstage$209                 jukeboxstage
     000017B5  A$jukeboxstage$210                 jukeboxstage
     000017B7  A$jukeboxstage$211                 jukeboxstage
     000017BB  A$jukeboxstage$212                 jukeboxstage
     000017BE  A$jukeboxstage$213                 jukeboxstage
     000017C0  A$jukeboxstage$214                 jukeboxstage
     000017C2  A$jukeboxstage$215                 jukeboxstage
     000017C5  A$jukeboxstage$220                 jukeboxstage
     000017C5  C$jukeboxstage.c$44$2$47           jukeboxstage
     000017C8  A$jukeboxstage$221                 jukeboxstage
     000017C9  A$jukeboxstage$222                 jukeboxstage
     000017CA  A$jukeboxstage$223                 jukeboxstage
     000017CE  A$jukeboxstage$224                 jukeboxstage
     000017D1  A$jukeboxstage$225                 jukeboxstage
     000017D2  A$jukeboxstage$226                 jukeboxstage
     000017D3  A$jukeboxstage$227                 jukeboxstage
     000017D6  A$jukeboxstage$228                 jukeboxstage
     000017D7  A$jukeboxstage$229                 jukeboxstage
     000017D9  A$jukeboxstage$230                 jukeboxstage
     000017DB  A$jukeboxstage$231                 jukeboxstage
     000017DF  A$jukeboxstage$232                 jukeboxstage
     000017E2  A$jukeboxstage$233                 jukeboxstage
     000017E4  A$jukeboxstage$234                 jukeboxstage
     000017E7  A$jukeboxstage$239                 jukeboxstage
     000017E7  C$jukeboxstage.c$45$2$47           jukeboxstage
     000017EA  A$jukeboxstage$240                 jukeboxstage
     000017EB  A$jukeboxstage$241                 jukeboxstage
     000017EC  A$jukeboxstage$242                 jukeboxstage
     000017F0  A$jukeboxstage$243                 jukeboxstage
     000017F3  A$jukeboxstage$244                 jukeboxstage
     000017F4  A$jukeboxstage$245                 jukeboxstage
     000017F5  A$jukeboxstage$246                 jukeboxstage
     000017F8  A$jukeboxstage$247                 jukeboxstage
     000017F9  A$jukeboxstage$248                 jukeboxstage
     000017FB  A$jukeboxstage$249                 jukeboxstage
     000017FF  A$jukeboxstage$250                 jukeboxstage
     00001802  A$jukeboxstage$251                 jukeboxstage
     00001804  A$jukeboxstage$252                 jukeboxstage
     00001806  A$jukeboxstage$253                 jukeboxstage
     00001809  A$jukeboxstage$258                 jukeboxstage
     00001809  C$jukeboxstage.c$48$2$47           jukeboxstage
     0000180C  A$jukeboxstage$259                 jukeboxstage
     0000180D  A$jukeboxstage$260                 jukeboxstage
ASxxxx Linker V03.00 + NoICE + sdld,  page 71.
Hexadecimal  [32-Bits]

Area                                    Addr        Size        Decimal Bytes (Attributes)
--------------------------------        ----        ----        ------- ----- ------------
_CODE                               00000200    0000438F =       17295. bytes (REL,CON)

      Value  Global                              Global Defined In Module
      -----  --------------------------------   ------------------------
     0000180E  A$jukeboxstage$261                 jukeboxstage
     00001812  A$jukeboxstage$262                 jukeboxstage
     00001815  A$jukeboxstage$263                 jukeboxstage
     00001816  A$jukeboxstage$264                 jukeboxstage
     00001817  A$jukeboxstage$265                 jukeboxstage
     0000181A  A$jukeboxstage$266                 jukeboxstage
     0000181B  A$jukeboxstage$267                 jukeboxstage
     0000181D  A$jukeboxstage$271                 jukeboxstage
     0000181D  C$jukeboxstage.c$50$3$49           jukeboxstage
     00001821  A$jukeboxstage$272                 jukeboxstage
     00001824  A$jukeboxstage$273                 jukeboxstage
     00001825  A$jukeboxstage$274                 jukeboxstage
     00001827  A$jukeboxstage$275                 jukeboxstage
     0000182A  A$jukeboxstage$276                 jukeboxstage
     0000182C  A$jukeboxstage$277                 jukeboxstage
     0000182E  A$jukeboxstage$278                 jukeboxstage
     00001831  A$jukeboxstage$279                 jukeboxstage
     00001833  A$jukeboxstage$280                 jukeboxstage
     00001835  A$jukeboxstage$281                 jukeboxstage
     00001838  A$jukeboxstage$282                 jukeboxstage
     0000183A  A$jukeboxstage$283                 jukeboxstage
     0000183C  A$jukeboxstage$284                 jukeboxstage
     0000183E  A$jukeboxstage$292                 jukeboxstage
     0000183E  C$jukeboxstage.c$52$4$50           jukeboxstage
     0000183E  C$jukeboxstage.c$53$4$50           jukeboxstage
     00001841  A$jukeboxstage$293                 jukeboxstage
     00001843  A$jukeboxstage$294                 jukeboxstage
     00001844  A$jukeboxstage$295                 jukeboxstage
     00001845  A$jukeboxstage$299                 jukeboxstage
     00001845  C$jukeboxstage.c$54$4$50           jukeboxstage
     00001847  A$jukeboxstage$307                 jukeboxstage
     00001847  C$jukeboxstage.c$55$4$50           jukeboxstage
     00001847  C$jukeboxstage.c$56$1$46           jukeboxstage
     00001849  A$jukeboxstage$308                 jukeboxstage
     0000184A  A$jukeboxstage$309                 jukeboxstage
     0000184B  A$jukeboxstage$310                 jukeboxstage
     0000184E  A$jukeboxstage$311                 jukeboxstage
     0000184F  A$jukeboxstage$312                 jukeboxstage
     00001850  A$jukeboxstage$313                 jukeboxstage
     00001853  A$jukeboxstage$314                 jukeboxstage
     00001854  A$jukeboxstage$315                 jukeboxstage
     00001855  A$jukeboxstage$316                 jukeboxstage
     00001858  A$jukeboxstage$317                 jukeboxstage
     00001859  A$jukeboxstage$318                 jukeboxstage
     0000185A  A$jukeboxstage$322                 jukeboxstage
     0000185A  C$jukeboxstage.c$57$4$50           jukeboxstage
     0000185C  A$jukeboxstage$330                 jukeboxstage
     0000185C  C$jukeboxstage.c$58$4$50           jukeboxstage
     0000185C  C$jukeboxstage.c$59$4$50           jukeboxstage
     0000185F  A$jukeboxstage$331                 jukeboxstage
     00001862  A$jukeboxstage$332                 jukeboxstage
ASxxxx Linker V03.00 + NoICE + sdld,  page 72.
Hexadecimal  [32-Bits]

Area                                    Addr        Size        Decimal Bytes (Attributes)
--------------------------------        ----        ----        ------- ----- ------------
_CODE                               00000200    0000438F =       17295. bytes (REL,CON)

      Value  Global                              Global Defined In Module
      -----  --------------------------------   ------------------------
     00001864  A$jukeboxstage$333                 jukeboxstage
     00001865  A$jukeboxstage$334                 jukeboxstage
     00001866  A$jukeboxstage$335                 jukeboxstage
     0000186A  A$jukeboxstage$336                 jukeboxstage
     0000186E  A$jukeboxstage$337                 jukeboxstage
     00001870  A$jukeboxstage$338                 jukeboxstage
     00001872  A$jukeboxstage$339                 jukeboxstage
     00001875  A$jukeboxstage$340                 jukeboxstage
     00001879  A$jukeboxstage$341                 jukeboxstage
     0000187C  A$jukeboxstage$342                 jukeboxstage
     0000187E  A$jukeboxstage$343                 jukeboxstage
     0000187F  A$jukeboxstage$344                 jukeboxstage
     00001882  A$jukeboxstage$345                 jukeboxstage
     00001883  A$jukeboxstage$346                 jukeboxstage
     00001884  A$jukeboxstage$347                 jukeboxstage
     00001885  A$jukeboxstage$348                 jukeboxstage
     00001886  A$jukeboxstage$349                 jukeboxstage
     00001887  A$jukeboxstage$350                 jukeboxstage
     00001888  A$jukeboxstage$351                 jukeboxstage
     00001889  A$jukeboxstage$352                 jukeboxstage
     0000188A  A$jukeboxstage$353                 jukeboxstage
     0000188B  A$jukeboxstage$354                 jukeboxstage
     0000188C  A$jukeboxstage$355                 jukeboxstage
     0000188F  A$jukeboxstage$356                 jukeboxstage
     00001890  A$jukeboxstage$357                 jukeboxstage
     00001891  A$jukeboxstage$361                 jukeboxstage
     00001891  C$jukeboxstage.c$60$4$50           jukeboxstage
     00001893  A$jukeboxstage$369                 jukeboxstage
     00001893  C$jukeboxstage.c$61$4$50           jukeboxstage
     00001893  C$jukeboxstage.c$62$4$50           jukeboxstage
     00001895  A$jukeboxstage$370                 jukeboxstage
     00001896  A$jukeboxstage$378                 jukeboxstage
     00001896  C$jukeboxstage.c$64$1$46           jukeboxstage
     00001896  C$jukeboxstage.c$69$1$46           jukeboxstage
     0000189A  A$jukeboxstage$379                 jukeboxstage
     0000189D  A$jukeboxstage$380                 jukeboxstage
     000018A0  A$jukeboxstage$381                 jukeboxstage
     000018A2  A$jukeboxstage$382                 jukeboxstage
     000018A5  A$jukeboxstage$383                 jukeboxstage
     000018A7  A$jukeboxstage$388                 jukeboxstage
     000018A7  C$jukeboxstage.c$72$1$46           jukeboxstage
     000018A9  A$jukeboxstage$393                 jukeboxstage
     000018A9  C$jukeboxstage.c$73$1$46           jukeboxstage
     000018A9  XG$UpdateJukeboxInfo$0$0           jukeboxstage
     000018AA  A$jukeboxstage$406                 jukeboxstage
     000018AA  C$jukeboxstage.c$75$1$46           jukeboxstage
     000018AA  C$jukeboxstage.c$78$1$51           jukeboxstage
     000018AA  G$InitJukeboxStage$0$0             jukeboxstage
     000018AA  _InitJukeboxStage                  jukeboxstage
     000018AD  A$jukeboxstage$407                 jukeboxstage
     000018AF  A$jukeboxstage$411                 jukeboxstage
ASxxxx Linker V03.00 + NoICE + sdld,  page 73.
Hexadecimal  [32-Bits]

Area                                    Addr        Size        Decimal Bytes (Attributes)
--------------------------------        ----        ----        ------- ----- ------------
_CODE                               00000200    0000438F =       17295. bytes (REL,CON)

      Value  Global                              Global Defined In Module
      -----  --------------------------------   ------------------------
     000018AF  C$jukeboxstage.c$81$1$51           jukeboxstage
     000018B2  A$jukeboxstage$412                 jukeboxstage
     000018B4  A$jukeboxstage$416                 jukeboxstage
     000018B4  C$jukeboxstage.c$84$1$51           jukeboxstage
     000018B7  A$jukeboxstage$417                 jukeboxstage
     000018B9  A$jukeboxstage$421                 jukeboxstage
     000018B9  C$jukeboxstage.c$87$1$51           jukeboxstage
     000018BC  A$jukeboxstage$425                 jukeboxstage
     000018BC  C$jukeboxstage.c$90$1$51           jukeboxstage
     000018BF  A$jukeboxstage$429                 jukeboxstage
     000018BF  C$jukeboxstage.c$93$1$51           jukeboxstage
     000018C1  A$jukeboxstage$430                 jukeboxstage
     000018C2  A$jukeboxstage$431                 jukeboxstage
     000018C3  A$jukeboxstage$432                 jukeboxstage
     000018C6  A$jukeboxstage$433                 jukeboxstage
     000018C7  A$jukeboxstage$434                 jukeboxstage
     000018CA  A$jukeboxstage$435                 jukeboxstage
     000018CB  A$jukeboxstage$436                 jukeboxstage
     000018CC  A$jukeboxstage$440                 jukeboxstage
     000018CC  C$jukeboxstage.c$96$1$51           jukeboxstage
     000018CE  A$jukeboxstage$441                 jukeboxstage
     000018CF  A$jukeboxstage$442                 jukeboxstage
     000018D0  A$jukeboxstage$443                 jukeboxstage
     000018D3  A$jukeboxstage$444                 jukeboxstage
     000018D4  A$jukeboxstage$445                 jukeboxstage
     000018D7  A$jukeboxstage$446                 jukeboxstage
     000018D8  A$jukeboxstage$447                 jukeboxstage
     000018DB  A$jukeboxstage$448                 jukeboxstage
     000018DC  A$jukeboxstage$449                 jukeboxstage
     000018DD  A$jukeboxstage$450                 jukeboxstage
     000018DE  A$jukeboxstage$454                 jukeboxstage
     000018DE  C$jukeboxstage.c$99$1$51           jukeboxstage
     000018E1  A$jukeboxstage$458                 jukeboxstage
     000018E1  C$jukeboxstage.c$102$1$51          jukeboxstage
     000018E4  A$jukeboxstage$459                 jukeboxstage
     000018E5  A$jukeboxstage$460                 jukeboxstage
     000018E8  A$jukeboxstage$461                 jukeboxstage
     000018E9  A$jukeboxstage$462                 jukeboxstage
     000018EC  A$jukeboxstage$463                 jukeboxstage
     000018ED  A$jukeboxstage$467                 jukeboxstage
     000018ED  C$jukeboxstage.c$103$1$51          jukeboxstage
     000018F0  A$jukeboxstage$468                 jukeboxstage
     000018F1  A$jukeboxstage$469                 jukeboxstage
     000018F4  A$jukeboxstage$470                 jukeboxstage
     000018F5  A$jukeboxstage$471                 jukeboxstage
     000018F8  A$jukeboxstage$472                 jukeboxstage
     000018F9  A$jukeboxstage$476                 jukeboxstage
     000018F9  C$jukeboxstage.c$104$1$51          jukeboxstage
     000018FC  A$jukeboxstage$477                 jukeboxstage
     000018FD  A$jukeboxstage$478                 jukeboxstage
     00001900  A$jukeboxstage$479                 jukeboxstage
ASxxxx Linker V03.00 + NoICE + sdld,  page 74.
Hexadecimal  [32-Bits]

Area                                    Addr        Size        Decimal Bytes (Attributes)
--------------------------------        ----        ----        ------- ----- ------------
_CODE                               00000200    0000438F =       17295. bytes (REL,CON)

      Value  Global                              Global Defined In Module
      -----  --------------------------------   ------------------------
     00001901  A$jukeboxstage$480                 jukeboxstage
     00001904  A$jukeboxstage$481                 jukeboxstage
     00001905  A$jukeboxstage$485                 jukeboxstage
     00001905  C$jukeboxstage.c$105$1$51          jukeboxstage
     00001908  A$jukeboxstage$486                 jukeboxstage
     00001909  A$jukeboxstage$487                 jukeboxstage
     0000190C  A$jukeboxstage$488                 jukeboxstage
     0000190D  A$jukeboxstage$489                 jukeboxstage
     00001910  A$jukeboxstage$490                 jukeboxstage
     00001911  A$jukeboxstage$494                 jukeboxstage
     00001911  C$jukeboxstage.c$106$1$51          jukeboxstage
     00001914  A$jukeboxstage$495                 jukeboxstage
     00001915  A$jukeboxstage$496                 jukeboxstage
     00001918  A$jukeboxstage$497                 jukeboxstage
     00001919  A$jukeboxstage$498                 jukeboxstage
     0000191C  A$jukeboxstage$499                 jukeboxstage
     0000191D  A$jukeboxstage$500                 jukeboxstage
     0000191E  A$jukeboxstage$508                 jukeboxstage
     0000191E  C$jukeboxstage.c$109$1$51          jukeboxstage
     0000191E  C$jukeboxstage.c$112$2$52          jukeboxstage
     00001921  A$jukeboxstage$512                 jukeboxstage
     00001921  C$jukeboxstage.c$115$2$52          jukeboxstage
     00001924  A$jukeboxstage$513                 jukeboxstage
     00001925  A$jukeboxstage$514                 jukeboxstage
     00001926  A$jukeboxstage$515                 jukeboxstage
     00001927  A$jukeboxstage$519                 jukeboxstage
     00001927  C$jukeboxstage.c$118$2$52          jukeboxstage
     0000192A  A$jukeboxstage$524                 jukeboxstage
     0000192A  C$jukeboxstage.c$120$1$51          jukeboxstage
     0000192A  XG$InitJukeboxStage$0$0            jukeboxstage
     0000192C  Fjukeboxstage$__str_0$0$0          jukeboxstage
     00001939  Fjukeboxstage$__str_1$0$0          jukeboxstage
     0000193F  Fjukeboxstage$__str_2$0$0          jukeboxstage
     00001945  Fjukeboxstage$__str_3$0$0          jukeboxstage
     0000194B  Fjukeboxstage$__str_4$0$0          jukeboxstage
     00001950  A$logostage$68                     logostage
     00001950  C$logostage.c$10$0$0               logostage
     00001950  C$logostage.c$13$1$51              logostage
     00001950  G$InitLogoStage$0$0                logostage
     00001950  _InitLogoStage                     logostage
     00001953  A$logostage$72                     logostage
     00001953  C$logostage.c$16$1$51              logostage
     00001956  A$logostage$76                     logostage
     00001956  C$logostage.c$19$1$51              logostage
     00001958  A$logostage$77                     logostage
     00001959  A$logostage$78                     logostage
     0000195A  A$logostage$79                     logostage
     0000195D  A$logostage$80                     logostage
     0000195E  A$logostage$81                     logostage
     00001961  A$logostage$82                     logostage
     00001962  A$logostage$83                     logostage
ASxxxx Linker V03.00 + NoICE + sdld,  page 75.
Hexadecimal  [32-Bits]

Area                                    Addr        Size        Decimal Bytes (Attributes)
--------------------------------        ----        ----        ------- ----- ------------
_CODE                               00000200    0000438F =       17295. bytes (REL,CON)

      Value  Global                              Global Defined In Module
      -----  --------------------------------   ------------------------
     00001963  A$logostage$87                     logostage
     00001963  C$logostage.c$22$1$51              logostage
     00001965  A$logostage$88                     logostage
     00001966  A$logostage$89                     logostage
     00001967  A$logostage$90                     logostage
     0000196A  A$logostage$91                     logostage
     0000196B  A$logostage$92                     logostage
     0000196E  A$logostage$96                     logostage
     0000196E  C$logostage.c$25$1$51              logostage
     0000196F  A$logostage$97                     logostage
     00001972  A$logostage$98                     logostage
     00001973  A$logostage$99                     logostage
     00001976  A$logostage$100                    logostage
     00001977  A$logostage$101                    logostage
     0000197A  A$logostage$102                    logostage
     0000197B  A$logostage$103                    logostage
     0000197E  A$logostage$104                    logostage
     00001981  A$logostage$105                    logostage
     00001982  A$logostage$106                    logostage
     00001983  A$logostage$110                    logostage
     00001983  C$logostage.c$28$1$51              logostage
     00001985  A$logostage$111                    logostage
     00001986  A$logostage$112                    logostage
     00001987  A$logostage$113                    logostage
     0000198A  A$logostage$114                    logostage
     0000198B  A$logostage$118                    logostage
     0000198B  C$logostage.c$31$1$51              logostage
     0000198E  A$logostage$119                    logostage
     0000198F  A$logostage$120                    logostage
     00001992  A$logostage$121                    logostage
     00001993  A$logostage$122                    logostage
     00001996  A$logostage$123                    logostage
     00001997  A$logostage$127                    logostage
     00001997  C$logostage.c$32$1$51              logostage
     0000199A  A$logostage$128                    logostage
     0000199B  A$logostage$129                    logostage
     0000199E  A$logostage$130                    logostage
     0000199F  A$logostage$131                    logostage
     000019A2  A$logostage$132                    logostage
     000019A3  A$logostage$133                    logostage
     000019A4  A$logostage$137                    logostage
     000019A4  C$logostage.c$35$1$51              logostage
     000019A7  A$logostage$141                    logostage
     000019A7  C$logostage.c$38$1$51              logostage
     000019AA  A$logostage$142                    logostage
     000019AB  A$logostage$143                    logostage
     000019AE  A$logostage$144                    logostage
     000019AF  A$logostage$145                    logostage
     000019B2  A$logostage$146                    logostage
     000019B3  A$logostage$147                    logostage
     000019B4  A$logostage$151                    logostage
ASxxxx Linker V03.00 + NoICE + sdld,  page 76.
Hexadecimal  [32-Bits]

Area                                    Addr        Size        Decimal Bytes (Attributes)
--------------------------------        ----        ----        ------- ----- ------------
_CODE                               00000200    0000438F =       17295. bytes (REL,CON)

      Value  Global                              Global Defined In Module
      -----  --------------------------------   ------------------------
     000019B4  C$logostage.c$41$1$51              logostage
     000019B7  A$logostage$152                    logostage
     000019B9  A$logostage$160                    logostage
     000019B9  C$logostage.c$44$3$54              logostage
     000019B9  C$logostage.c$47$2$52              logostage
     000019BC  A$logostage$164                    logostage
     000019BC  C$logostage.c$49$2$52              logostage
     000019BF  A$logostage$165                    logostage
     000019C1  A$logostage$166                    logostage
     000019C3  A$logostage$167                    logostage
     000019C5  A$logostage$168                    logostage
     000019C7  A$logostage$169                    logostage
     000019C9  A$logostage$170                    logostage
     000019CB  A$logostage$171                    logostage
     000019CD  A$logostage$172                    logostage
     000019CF  A$logostage$173                    logostage
     000019D1  A$logostage$174                    logostage
     000019D3  A$logostage$175                    logostage
     000019D5  A$logostage$176                    logostage
     000019D7  A$logostage$180                    logostage
     000019D7  C$logostage.c$51$3$53              logostage
     000019DA  A$logostage$181                    logostage
     000019DB  A$logostage$182                    logostage
     000019DE  A$logostage$183                    logostage
     000019DF  A$logostage$184                    logostage
     000019E2  A$logostage$185                    logostage
     000019E3  A$logostage$186                    logostage
     000019E4  A$logostage$187                    logostage
     000019E6  A$logostage$192                    logostage
     000019E6  C$logostage.c$55$3$54              logostage
     000019E9  A$logostage$193                    logostage
     000019EA  A$logostage$194                    logostage
     000019ED  A$logostage$195                    logostage
     000019EE  A$logostage$196                    logostage
     000019F1  A$logostage$197                    logostage
     000019F2  A$logostage$198                    logostage
     000019F3  A$logostage$203                    logostage
     000019F3  C$logostage.c$59$2$52              logostage
     000019F6  A$logostage$204                    logostage
     000019F7  A$logostage$205                    logostage
     000019F8  A$logostage$206                    logostage
     000019FC  A$logostage$207                    logostage
     000019FF  A$logostage$208                    logostage
     00001A00  A$logostage$209                    logostage
     00001A01  A$logostage$210                    logostage
     00001A04  A$logostage$211                    logostage
     00001A05  A$logostage$212                    logostage
     00001A07  A$logostage$216                    logostage
     00001A07  C$logostage.c$61$3$55              logostage
     00001A0A  A$logostage$217                    logostage
     00001A0C  A$logostage$221                    logostage
ASxxxx Linker V03.00 + NoICE + sdld,  page 77.
Hexadecimal  [32-Bits]

Area                                    Addr        Size        Decimal Bytes (Attributes)
--------------------------------        ----        ----        ------- ----- ------------
_CODE                               00000200    0000438F =       17295. bytes (REL,CON)

      Value  Global                              Global Defined In Module
      -----  --------------------------------   ------------------------
     00001A0C  C$logostage.c$62$3$55              logostage
     00001A0D  A$logostage$226                    logostage
     00001A0D  C$logostage.c$66$2$52              logostage
     00001A10  A$logostage$227                    logostage
     00001A11  A$logostage$228                    logostage
     00001A12  A$logostage$229                    logostage
     00001A16  A$logostage$230                    logostage
     00001A19  A$logostage$231                    logostage
     00001A1A  A$logostage$232                    logostage
     00001A1B  A$logostage$233                    logostage
     00001A1E  A$logostage$234                    logostage
     00001A1F  A$logostage$235                    logostage
     00001A21  A$logostage$239                    logostage
     00001A21  C$logostage.c$68$3$56              logostage
     00001A24  A$logostage$240                    logostage
     00001A26  A$logostage$244                    logostage
     00001A26  C$logostage.c$69$3$56              logostage
     00001A27  A$logostage$249                    logostage
     00001A27  C$logostage.c$73$2$52              logostage
     00001A2A  A$logostage$254                    logostage
     00001A2A  C$logostage.c$75$1$51              logostage
     00001A2A  XG$InitLogoStage$0$0               logostage
     00001A2C  Flogostage$__str_0$0$0             logostage
     00001A40  Flogostage$__str_1$0$0             logostage
     00001A54  Flogostage$__str_2$0$0             logostage
     00001A65  Flogostage$__str_3$0$0             logostage
     00001A76  A$map$63                           map
     00001A76  C$map.c$8$0$0                      map
     00001A76  G$getTileAt$0$0                    map
     00001A76  _getTileAt                         map
     00001A78  A$map$64                           map
     00001A7C  A$map$65                           map
     00001A7E  A$map$69                           map
     00001A7E  C$map.c$14$1$59                    map
     00001A81  A$map$70                           map
     00001A82  A$map$71                           map
     00001A83  A$map$72                           map
     00001A86  A$map$73                           map
     00001A87  A$map$77                           map
     00001A87  C$map.c$17$1$59                    map
     00001A8A  A$map$78                           map
     00001A8C  A$map$79                           map
     00001A8E  A$map$80                           map
     00001A90  A$map$81                           map
     00001A92  A$map$82                           map
     00001A95  A$map$83                           map
     00001A97  A$map$84                           map
     00001A98  A$map$85                           map
     00001A99  A$map$86                           map
     00001A9A  A$map$87                           map
     00001A9C  A$map$88                           map
ASxxxx Linker V03.00 + NoICE + sdld,  page 78.
Hexadecimal  [32-Bits]

Area                                    Addr        Size        Decimal Bytes (Attributes)
--------------------------------        ----        ----        ------- ----- ------------
_CODE                               00000200    0000438F =       17295. bytes (REL,CON)

      Value  Global                              Global Defined In Module
      -----  --------------------------------   ------------------------
     00001A9E  A$map$89                           map
     00001AA0  A$map$90                           map
     00001AA2  A$map$91                           map
     00001AA4  A$map$92                           map
     00001AA6  A$map$93                           map
     00001AA9  A$map$94                           map
     00001AAA  A$map$95                           map
     00001AAB  A$map$96                           map
     00001AAD  A$map$100                          map
     00001AAD  C$map.c$18$1$59                    map
     00001AAE  A$map$101                          map
     00001AAF  A$map$102                          map
     00001AB0  A$map$103                          map
     00001AB1  A$map$104                          map
     00001AB2  A$map$105                          map
     00001AB3  A$map$106                          map
     00001AB4  A$map$107                          map
     00001AB5  A$map$108                          map
     00001AB8  A$map$109                          map
     00001ABA  A$map$110                          map
     00001ABC  A$map$111                          map
     00001ABE  A$map$112                          map
     00001AC0  A$map$113                          map
     00001AC1  A$map$114                          map
     00001AC2  A$map$115                          map
     00001AC3  A$map$116                          map
     00001AC4  A$map$120                          map
     00001AC4  C$map.c$19$1$59                    map
     00001AC7  A$map$121                          map
     00001AC8  A$map$122                          map
     00001AC9  A$map$126                          map
     00001AC9  C$map.c$21$1$59                    map
     00001ACA  A$map$127                          map
     00001ACC  A$map$128                          map
     00001ACD  A$map$129                          map
     00001ACE  A$map$130                          map
     00001AD1  A$map$131                          map
     00001AD2  A$map$132                          map
     00001AD3  A$map$136                          map
     00001AD3  C$map.c$23$1$59                    map
     00001AD5  A$map$141                          map
     00001AD5  C$map.c$24$1$59                    map
     00001AD5  XG$getTileAt$0$0                   map
     00001AD6  A$map$154                          map
     00001AD6  C$map.c$26$1$59                    map
     00001AD6  C$map.c$28$1$61                    map
     00001AD6  G$SetMapLines$0$0                  map
     00001AD6  _SetMapLines                       map
     00001AD9  A$map$155                          map
     00001ADA  A$map$156                          map
     00001ADB  A$map$157                          map
ASxxxx Linker V03.00 + NoICE + sdld,  page 79.
Hexadecimal  [32-Bits]

Area                                    Addr        Size        Decimal Bytes (Attributes)
--------------------------------        ----        ----        ------- ----- ------------
_CODE                               00000200    0000438F =       17295. bytes (REL,CON)

      Value  Global                              Global Defined In Module
      -----  --------------------------------   ------------------------
     00001ADE  A$map$158                          map
     00001AE1  A$map$159                          map
     00001AE2  A$map$160                          map
     00001AE3  A$map$161                          map
     00001AE6  A$map$165                          map
     00001AE6  C$map.c$29$1$61                    map
     00001AE9  A$map$166                          map
     00001AEA  A$map$167                          map
     00001AEB  A$map$168                          map
     00001AEE  A$map$169                          map
     00001AF1  A$map$170                          map
     00001AF2  A$map$171                          map
     00001AF3  A$map$172                          map
     00001AF6  A$map$176                          map
     00001AF6  C$map.c$30$1$61                    map
     00001AF9  A$map$177                          map
     00001AFA  A$map$178                          map
     00001AFB  A$map$179                          map
     00001AFE  A$map$180                          map
     00001B01  A$map$181                          map
     00001B02  A$map$182                          map
     00001B03  A$map$183                          map
     00001B06  A$map$188                          map
     00001B06  C$map.c$31$1$61                    map
     00001B06  XG$SetMapLines$0$0                 map
     00001B07  A$map$201                          map
     00001B07  C$map.c$33$1$61                    map
     00001B07  C$map.c$35$1$63                    map
     00001B07  G$SetStaticEnemies$0$0             map
     00001B07  _SetStaticEnemies                  map
     00001B0A  A$map$202                          map
     00001B0B  A$map$203                          map
     00001B0C  A$map$204                          map
     00001B0F  A$map$205                          map
     00001B12  A$map$206                          map
     00001B13  A$map$207                          map
     00001B14  A$map$208                          map
     00001B17  A$map$212                          map
     00001B17  C$map.c$36$1$63                    map
     00001B1A  A$map$213                          map
     00001B1B  A$map$214                          map
     00001B1C  A$map$215                          map
     00001B1F  A$map$219                          map
     00001B1F  C$map.c$37$1$63                    map
     00001B22  A$map$220                          map
     00001B25  A$map$225                          map
     00001B25  C$map.c$38$1$63                    map
     00001B25  XG$SetStaticEnemies$0$0            map
     00001B26  A$map$235                          map
     00001B26  C$map.c$40$1$63                    map
     00001B26  G$DrawMap$0$0                      map
ASxxxx Linker V03.00 + NoICE + sdld,  page 80.
Hexadecimal  [32-Bits]

Area                                    Addr        Size        Decimal Bytes (Attributes)
--------------------------------        ----        ----        ------- ----- ------------
_CODE                               00000200    0000438F =       17295. bytes (REL,CON)

      Value  Global                              Global Defined In Module
      -----  --------------------------------   ------------------------
     00001B26  _DrawMap                           map
     00001B28  A$map$236                          map
     00001B2C  A$map$237                          map
     00001B2E  A$map$238                          map
     00001B2F  A$map$242                          map
     00001B2F  C$map.c$45$1$64                    map
     00001B33  A$map$243                          map
     00001B35  A$map$244                          map
     00001B37  A$map$245                          map
     00001B39  A$map$246                          map
     00001B3B  A$map$247                          map
     00001B3D  A$map$248                          map
     00001B3F  A$map$249                          map
     00001B41  A$map$250                          map
     00001B43  A$map$251                          map
     00001B45  A$map$252                          map
     00001B47  A$map$256                          map
     00001B47  C$map.c$48$1$64                    map
     00001B48  A$map$257                          map
     00001B4B  A$map$258                          map
     00001B4C  A$map$259                          map
     00001B4D  A$map$260                          map
     00001B50  A$map$261                          map
     00001B51  A$map$262                          map
     00001B52  A$map$266                          map
     00001B52  C$map.c$51$1$64                    map
     00001B55  A$map$267                          map
     00001B56  A$map$272                          map
     00001B56  C$map.c$53$3$66                    map
     00001B57  A$map$273                          map
     00001B58  A$map$274                          map
     00001B59  A$map$275                          map
     00001B5A  A$map$276                          map
     00001B5B  A$map$277                          map
     00001B5E  A$map$278                          map
     00001B5F  A$map$279                          map
     00001B60  A$map$280                          map
     00001B63  A$map$281                          map
     00001B64  A$map$282                          map
     00001B65  A$map$283                          map
     00001B66  A$map$284                          map
     00001B67  A$map$288                          map
     00001B67  C$map.c$54$3$66                    map
     00001B6B  A$map$289                          map
     00001B6D  A$map$290                          map
     00001B70  A$map$291                          map
     00001B72  A$map$295                          map
     00001B72  C$map.c$55$3$66                    map
     00001B73  A$map$296                          map
     00001B74  A$map$297                          map
     00001B75  A$map$298                          map
ASxxxx Linker V03.00 + NoICE + sdld,  page 81.
Hexadecimal  [32-Bits]

Area                                    Addr        Size        Decimal Bytes (Attributes)
--------------------------------        ----        ----        ------- ----- ------------
_CODE                               00000200    0000438F =       17295. bytes (REL,CON)

      Value  Global                              Global Defined In Module
      -----  --------------------------------   ------------------------
     00001B76  A$map$299                          map
     00001B77  A$map$300                          map
     00001B78  A$map$301                          map
     00001B79  A$map$302                          map
     00001B7D  A$map$303                          map
     00001B7F  A$map$304                          map
     00001B82  A$map$305                          map
     00001B83  A$map$306                          map
     00001B86  A$map$307                          map
     00001B87  A$map$308                          map
     00001B89  A$map$309                          map
     00001B8A  A$map$310                          map
     00001B8B  A$map$311                          map
     00001B8C  A$map$312                          map
     00001B8D  A$map$313                          map
     00001B8E  A$map$314                          map
     00001B91  A$map$315                          map
     00001B94  A$map$316                          map
     00001B95  A$map$317                          map
     00001B96  A$map$318                          map
     00001B97  A$map$322                          map
     00001B97  C$map.c$51$2$65                    map
     00001B9A  A$map$323                          map
     00001B9C  A$map$324                          map
     00001B9F  A$map$326                          map
     00001BA2  A$map$327                          map
     00001BA4  A$map$328                          map
     00001BA7  A$map$329                          map
     00001BA8  A$map$330                          map
     00001BA9  A$map$331                          map
     00001BAA  A$map$332                          map
     00001BAC  A$map$333                          map
     00001BAE  A$map$337                          map
     00001BAE  C$map.c$59$1$64                    map
     00001BB1  A$map$338                          map
     00001BB4  A$map$342                          map
     00001BB4  C$map.c$62$1$64                    map
     00001BB5  A$map$343                          map
     00001BB6  A$map$344                          map
     00001BB7  A$map$345                          map
     00001BBA  A$map$346                          map
     00001BBB  A$map$350                          map
     00001BBB  C$map.c$63$1$64                    map
     00001BBC  A$map$351                          map
     00001BBD  A$map$352                          map
     00001BBE  A$map$353                          map
     00001BC1  A$map$354                          map
     00001BC3  A$map$355                          map
     00001BC5  A$map$360                          map
     00001BC5  C$map.c$64$1$64                    map
     00001BC5  XG$DrawMap$0$0                     map
ASxxxx Linker V03.00 + NoICE + sdld,  page 82.
Hexadecimal  [32-Bits]

Area                                    Addr        Size        Decimal Bytes (Attributes)
--------------------------------        ----        ----        ------- ----- ------------
_CODE                               00000200    0000438F =       17295. bytes (REL,CON)

      Value  Global                              Global Defined In Module
      -----  --------------------------------   ------------------------
     00001BC6  A$map$373                          map
     00001BC6  C$map.c$66$1$64                    map
     00001BC6  C$map.c$68$1$68                    map
     00001BC6  G$InitMap$0$0                      map
     00001BC6  _InitMap                           map
     00001BC9  A$map$374                          map
     00001BCC  A$map$378                          map
     00001BCC  C$map.c$69$1$68                    map
     00001BD0  A$map$379                          map
     00001BD2  A$map$380                          map
     00001BD4  A$map$381                          map
     00001BD6  A$map$382                          map
     00001BD8  A$map$383                          map
     00001BDA  A$map$384                          map
     00001BDC  A$map$385                          map
     00001BDE  A$map$386                          map
     00001BE0  A$map$387                          map
     00001BE2  A$map$388                          map
     00001BE4  A$map$389                          map
     00001BE7  A$map$390                          map
     00001BE8  A$map$391                          map
     00001BEA  A$map$392                          map
     00001BEB  A$map$393                          map
     00001BEC  A$map$394                          map
     00001BEE  A$map$395                          map
     00001BEF  A$map$396                          map
     00001BF0  A$map$400                          map
     00001BF0  C$map.c$70$1$68                    map
     00001BF3  A$map$401                          map
     00001BF4  A$map$402                          map
     00001BF5  A$map$403                          map
     00001BF8  A$map$407                          map
     00001BF8  C$map.c$71$1$68                    map
     00001BFB  A$map$408                          map
     00001BFE  A$map$416                          map
     00001BFE  C$map.c$72$1$68                    map
     00001BFE  C$map.c$73$1$68                    map
     00001BFE  XG$InitMap$0$0                     map
     00001C01  A$map$426                          map
     00001C01  C$map.c$75$1$68                    map
     00001C01  G$MoveMap$0$0                      map
     00001C01  _MoveMap                           map
     00001C03  A$map$427                          map
     00001C07  A$map$428                          map
     00001C09  A$map$429                          map
     00001C0A  A$map$430                          map
     00001C0B  A$map$434                          map
     00001C0B  C$map.c$81$1$70                    map
     00001C0E  A$map$435                          map
     00001C11  A$map$436                          map
     00001C14  A$map$437                          map
ASxxxx Linker V03.00 + NoICE + sdld,  page 83.
Hexadecimal  [32-Bits]

Area                                    Addr        Size        Decimal Bytes (Attributes)
--------------------------------        ----        ----        ------- ----- ------------
_CODE                               00000200    0000438F =       17295. bytes (REL,CON)

      Value  Global                              Global Defined In Module
      -----  --------------------------------   ------------------------
     00001C15  A$map$438                          map
     00001C16  A$map$439                          map
     00001C17  A$map$440                          map
     00001C18  A$map$441                          map
     00001C19  A$map$442                          map
     00001C1A  A$map$443                          map
     00001C1B  A$map$447                          map
     00001C1B  C$map.c$82$1$70                    map
     00001C1E  A$map$448                          map
     00001C1F  A$map$449                          map
     00001C22  A$map$450                          map
     00001C23  A$map$451                          map
     00001C24  A$map$452                          map
     00001C25  A$map$453                          map
     00001C28  A$map$454                          map
     00001C29  A$map$458                          map
     00001C29  C$map.c$85$1$70                    map
     00001C2C  A$map$459                          map
     00001C2E  A$map$460                          map
     00001C30  A$map$461                          map
     00001C32  A$map$462                          map
     00001C34  A$map$466                          map
     00001C34  C$map.c$86$1$70                    map
     00001C35  A$map$467                          map
     00001C36  A$map$468                          map
     00001C38  A$map$469                          map
     00001C3A  A$map$470                          map
     00001C3C  A$map$471                          map
     00001C3E  A$map$472                          map
     00001C40  A$map$473                          map
     00001C42  A$map$477                          map
     00001C42  C$map.c$89$1$70                    map
     00001C43  A$map$478                          map
     00001C46  A$map$479                          map
     00001C47  A$map$480                          map
     00001C48  A$map$481                          map
     00001C4B  A$map$482                          map
     00001C4C  A$map$483                          map
     00001C4D  A$map$484                          map
     00001C50  A$map$485                          map
     00001C53  A$map$486                          map
     00001C54  A$map$487                          map
     00001C57  A$map$488                          map
     00001C59  A$map$489                          map
     00001C5B  A$map$490                          map
     00001C5D  A$map$491                          map
     00001C5F  A$map$492                          map
     00001C61  A$map$493                          map
     00001C62  A$map$494                          map
     00001C65  A$map$495                          map
     00001C68  A$map$496                          map
ASxxxx Linker V03.00 + NoICE + sdld,  page 84.
Hexadecimal  [32-Bits]

Area                                    Addr        Size        Decimal Bytes (Attributes)
--------------------------------        ----        ----        ------- ----- ------------
_CODE                               00000200    0000438F =       17295. bytes (REL,CON)

      Value  Global                              Global Defined In Module
      -----  --------------------------------   ------------------------
     00001C69  A$map$497                          map
     00001C6A  A$map$498                          map
     00001C6D  A$map$499                          map
     00001C6E  A$map$500                          map
     00001C6F  A$map$501                          map
     00001C70  A$map$505                          map
     00001C70  C$map.c$92$1$70                    map
     00001C74  A$map$506                          map
     00001C76  A$map$507                          map
     00001C78  A$map$508                          map
     00001C7A  A$map$509                          map
     00001C7C  A$map$510                          map
     00001C7E  A$map$511                          map
     00001C80  A$map$512                          map
     00001C82  A$map$513                          map
     00001C84  A$map$514                          map
     00001C86  A$map$515                          map
     00001C88  A$map$516                          map
     00001C89  A$map$517                          map
     00001C8A  A$map$518                          map
     00001C8C  A$map$519                          map
     00001C8D  A$map$520                          map
     00001C8E  A$map$521                          map
     00001C91  A$map$526                          map
     00001C91  C$map.c$95$2$71                    map
     00001C92  A$map$527                          map
     00001C95  A$map$528                          map
     00001C96  A$map$529                          map
     00001C97  A$map$530                          map
     00001C9A  A$map$531                          map
     00001C9B  A$map$532                          map
     00001C9C  A$map$536                          map
     00001C9C  C$map.c$101$1$70                   map
     00001C9F  A$map$537                          map
     00001CA0  A$map$538                          map
     00001CA1  A$map$539                          map
     00001CA4  A$map$540                          map
     00001CA5  A$map$541                          map
     00001CA6  A$map$542                          map
     00001CA7  A$map$543                          map
     00001CA8  A$map$547                          map
     00001CA8  C$map.c$102$2$71                   map
     00001CAB  A$map$548                          map
     00001CAC  A$map$549                          map
     00001CAD  A$map$550                          map
     00001CAF  A$map$554                          map
     00001CAF  C$map.c$103$2$71                   map
     00001CB0  A$map$555                          map
     00001CB1  A$map$556                          map
     00001CB2  A$map$557                          map
     00001CB3  A$map$558                          map
ASxxxx Linker V03.00 + NoICE + sdld,  page 85.
Hexadecimal  [32-Bits]

Area                                    Addr        Size        Decimal Bytes (Attributes)
--------------------------------        ----        ----        ------- ----- ------------
_CODE                               00000200    0000438F =       17295. bytes (REL,CON)

      Value  Global                              Global Defined In Module
      -----  --------------------------------   ------------------------
     00001CB4  A$map$559                          map
     00001CB5  A$map$560                          map
     00001CB6  A$map$561                          map
     00001CBA  A$map$562                          map
     00001CBC  A$map$563                          map
     00001CBF  A$map$564                          map
     00001CC2  A$map$565                          map
     00001CC4  A$map$566                          map
     00001CC6  A$map$567                          map
     00001CC8  A$map$568                          map
     00001CCA  A$map$569                          map
     00001CCC  A$map$570                          map
     00001CCE  A$map$571                          map
     00001CCF  A$map$572                          map
     00001CD2  A$map$573                          map
     00001CD3  A$map$574                          map
     00001CD5  A$map$575                          map
     00001CD6  A$map$576                          map
     00001CD7  A$map$577                          map
     00001CD8  A$map$578                          map
     00001CD9  A$map$579                          map
     00001CDA  A$map$580                          map
     00001CDD  A$map$581                          map
     00001CE0  A$map$582                          map
     00001CE1  A$map$583                          map
     00001CE2  A$map$584                          map
     00001CE4  A$map$585                          map
     00001CE5  A$map$586                          map
     00001CE6  A$map$587                          map
     00001CE9  A$map$588                          map
     00001CEA  A$map$589                          map
     00001CEB  A$map$593                          map
     00001CEB  C$map.c$112$2$71                   map
     00001CEF  A$map$594                          map
     00001CF2  A$map$595                          map
     00001CF5  A$map$596                          map
     00001CF8  A$map$601                          map
     00001CF8  C$map.c$115$3$72                   map
     00001CFC  A$map$602                          map
     00001CFE  A$map$603                          map
     00001D00  A$map$604                          map
     00001D04  A$map$605                          map
     00001D06  A$map$606                          map
     00001D09  A$map$607                          map
     00001D0C  A$map$608                          map
     00001D0F  A$map$609                          map
     00001D12  A$map$610                          map
     00001D13  A$map$611                          map
     00001D16  A$map$612                          map
     00001D18  A$map$613                          map
     00001D19  A$map$614                          map
ASxxxx Linker V03.00 + NoICE + sdld,  page 86.
Hexadecimal  [32-Bits]

Area                                    Addr        Size        Decimal Bytes (Attributes)
--------------------------------        ----        ----        ------- ----- ------------
_CODE                               00000200    0000438F =       17295. bytes (REL,CON)

      Value  Global                              Global Defined In Module
      -----  --------------------------------   ------------------------
     00001D1C  A$map$615                          map
     00001D1E  A$map$619                          map
     00001D1E  C$map.c$119$4$73                   map
     00001D21  A$map$620                          map
     00001D22  A$map$621                          map
     00001D23  A$map$622                          map
     00001D24  A$map$623                          map
     00001D28  A$map$624                          map
     00001D2A  A$map$625                          map
     00001D2D  A$map$626                          map
     00001D30  A$map$630                          map
     00001D30  C$map.c$118$4$73                   map
     00001D33  A$map$631                          map
     00001D34  A$map$632                          map
     00001D35  A$map$633                          map
     00001D36  A$map$634                          map
     00001D37  A$map$635                          map
     00001D38  A$map$636                          map
     00001D3C  A$map$637                          map
     00001D3E  A$map$638                          map
     00001D41  A$map$639                          map
     00001D44  A$map$643                          map
     00001D44  C$map.c$117$4$73                   map
     00001D47  A$map$644                          map
     00001D48  A$map$645                          map
     00001D49  A$map$646                          map
     00001D4A  A$map$647                          map
     00001D4B  A$map$648                          map
     00001D4F  A$map$649                          map
     00001D51  A$map$650                          map
     00001D54  A$map$651                          map
     00001D57  A$map$652                          map
     00001D58  A$map$653                          map
     00001D5B  A$map$654                          map
     00001D5E  A$map$655                          map
     00001D5F  A$map$656                          map
     00001D60  A$map$657                          map
     00001D61  A$map$658                          map
     00001D64  A$map$659                          map
     00001D65  A$map$660                          map
     00001D66  A$map$661                          map
     00001D67  A$map$665                          map
     00001D67  C$map.c$120$4$73                   map
     00001D6A  A$map$666                          map
     00001D6B  A$map$667                          map
     00001D6D  A$map$668                          map
     00001D6E  A$map$669                          map
     00001D6F  A$map$670                          map
     00001D70  A$map$671                          map
     00001D72  A$map$672                          map
     00001D73  A$map$673                          map
ASxxxx Linker V03.00 + NoICE + sdld,  page 87.
Hexadecimal  [32-Bits]

Area                                    Addr        Size        Decimal Bytes (Attributes)
--------------------------------        ----        ----        ------- ----- ------------
_CODE                               00000200    0000438F =       17295. bytes (REL,CON)

      Value  Global                              Global Defined In Module
      -----  --------------------------------   ------------------------
     00001D75  A$map$678                          map
     00001D75  C$map.c$126$1$70                   map
     00001D78  A$map$679                          map
     00001D7B  A$map$680                          map
     00001D7D  A$map$681                          map
     00001D7F  A$map$686                          map
     00001D7F  C$map.c$127$1$70                   map
     00001D7F  XG$MoveMap$0$0                     map
     00001D80  A$mikgamesstage$64                 mikgamesstage
     00001D80  C$mikgamesstage.c$11$1$46          mikgamesstage
     00001D80  C$mikgamesstage.c$8$0$0            mikgamesstage
     00001D80  G$InitMikGamesStage$0$0            mikgamesstage
     00001D80  _InitMikGamesStage                 mikgamesstage
     00001D83  A$mikgamesstage$68                 mikgamesstage
     00001D83  C$mikgamesstage.c$14$1$46          mikgamesstage
     00001D86  A$mikgamesstage$72                 mikgamesstage
     00001D86  C$mikgamesstage.c$17$1$46          mikgamesstage
     00001D88  A$mikgamesstage$73                 mikgamesstage
     00001D89  A$mikgamesstage$74                 mikgamesstage
     00001D8A  A$mikgamesstage$75                 mikgamesstage
     00001D8D  A$mikgamesstage$76                 mikgamesstage
     00001D8E  A$mikgamesstage$77                 mikgamesstage
     00001D91  A$mikgamesstage$78                 mikgamesstage
     00001D92  A$mikgamesstage$79                 mikgamesstage
     00001D93  A$mikgamesstage$83                 mikgamesstage
     00001D93  C$mikgamesstage.c$20$1$46          mikgamesstage
     00001D95  A$mikgamesstage$84                 mikgamesstage
     00001D96  A$mikgamesstage$85                 mikgamesstage
     00001D97  A$mikgamesstage$86                 mikgamesstage
     00001D9A  A$mikgamesstage$87                 mikgamesstage
     00001D9B  A$mikgamesstage$88                 mikgamesstage
     00001D9E  A$mikgamesstage$89                 mikgamesstage
     00001D9F  A$mikgamesstage$90                 mikgamesstage
     00001DA2  A$mikgamesstage$91                 mikgamesstage
     00001DA3  A$mikgamesstage$92                 mikgamesstage
     00001DA6  A$mikgamesstage$93                 mikgamesstage
     00001DA9  A$mikgamesstage$94                 mikgamesstage
     00001DAA  A$mikgamesstage$95                 mikgamesstage
     00001DAB  A$mikgamesstage$99                 mikgamesstage
     00001DAB  C$mikgamesstage.c$23$1$46          mikgamesstage
     00001DAD  A$mikgamesstage$100                mikgamesstage
     00001DAE  A$mikgamesstage$101                mikgamesstage
     00001DAF  A$mikgamesstage$102                mikgamesstage
     00001DB2  A$mikgamesstage$103                mikgamesstage
     00001DB3  A$mikgamesstage$107                mikgamesstage
     00001DB3  C$mikgamesstage.c$26$1$46          mikgamesstage
     00001DB6  A$mikgamesstage$115                mikgamesstage
     00001DB6  C$mikgamesstage.c$29$1$46          mikgamesstage
     00001DB6  C$mikgamesstage.c$32$2$47          mikgamesstage
     00001DB9  A$mikgamesstage$119                mikgamesstage
     00001DB9  C$mikgamesstage.c$35$2$47          mikgamesstage
ASxxxx Linker V03.00 + NoICE + sdld,  page 88.
Hexadecimal  [32-Bits]

Area                                    Addr        Size        Decimal Bytes (Attributes)
--------------------------------        ----        ----        ------- ----- ------------
_CODE                               00000200    0000438F =       17295. bytes (REL,CON)

      Value  Global                              Global Defined In Module
      -----  --------------------------------   ------------------------
     00001DBD  A$mikgamesstage$120                mikgamesstage
     00001DC0  A$mikgamesstage$121                mikgamesstage
     00001DC2  A$mikgamesstage$122                mikgamesstage
     00001DC5  A$mikgamesstage$123                mikgamesstage
     00001DC7  A$mikgamesstage$124                mikgamesstage
     00001DC9  A$mikgamesstage$128                mikgamesstage
     00001DC9  C$mikgamesstage.c$36$2$47          mikgamesstage
     00001DCC  A$mikgamesstage$129                mikgamesstage
     00001DCD  A$mikgamesstage$130                mikgamesstage
     00001DCE  A$mikgamesstage$131                mikgamesstage
     00001DD0  A$mikgamesstage$132                mikgamesstage
     00001DD1  A$mikgamesstage$133                mikgamesstage
     00001DD2  A$mikgamesstage$134                mikgamesstage
     00001DD3  A$mikgamesstage$135                mikgamesstage
     00001DD6  A$mikgamesstage$136                mikgamesstage
     00001DD7  A$mikgamesstage$141                mikgamesstage
     00001DD7  C$mikgamesstage.c$39$2$47          mikgamesstage
     00001DDA  A$mikgamesstage$142                mikgamesstage
     00001DDB  A$mikgamesstage$143                mikgamesstage
     00001DDC  A$mikgamesstage$144                mikgamesstage
     00001DE0  A$mikgamesstage$145                mikgamesstage
     00001DE3  A$mikgamesstage$146                mikgamesstage
     00001DE4  A$mikgamesstage$147                mikgamesstage
     00001DE5  A$mikgamesstage$148                mikgamesstage
     00001DE8  A$mikgamesstage$149                mikgamesstage
     00001DE9  A$mikgamesstage$153                mikgamesstage
     00001DE9  C$mikgamesstage.c$41$3$48          mikgamesstage
     00001DEA  A$mikgamesstage$157                mikgamesstage
     00001DEA  C$mikgamesstage.c$45$2$47          mikgamesstage
     00001DEC  A$mikgamesstage$158                mikgamesstage
     00001DF0  A$mikgamesstage$159                mikgamesstage
     00001DF3  A$mikgamesstage$160                mikgamesstage
     00001DF5  A$mikgamesstage$161                mikgamesstage
     00001DF8  A$mikgamesstage$165                mikgamesstage
     00001DF8  C$mikgamesstage.c$47$3$49          mikgamesstage
     00001DF9  A$mikgamesstage$169                mikgamesstage
     00001DF9  C$mikgamesstage.c$51$2$47          mikgamesstage
     00001DFC  A$mikgamesstage$174                mikgamesstage
     00001DFC  C$mikgamesstage.c$53$1$46          mikgamesstage
     00001DFC  XG$InitMikGamesStage$0$0           mikgamesstage
     00001DFE  A$powerup$62                       powerup
     00001DFE  C$powerup.c$7$0$0                  powerup
     00001DFE  C$powerup.c$9$1$21                 powerup
     00001DFE  G$InitPowerupSprites$0$0           powerup
     00001DFE  _InitPowerupSprites                powerup
     00001E00  A$powerup$63                       powerup
     00001E01  A$powerup$64                       powerup
     00001E02  A$powerup$65                       powerup
     00001E05  A$powerup$66                       powerup
     00001E06  A$powerup$67                       powerup
     00001E09  A$powerup$68                       powerup
ASxxxx Linker V03.00 + NoICE + sdld,  page 89.
Hexadecimal  [32-Bits]

Area                                    Addr        Size        Decimal Bytes (Attributes)
--------------------------------        ----        ----        ------- ----- ------------
_CODE                               00000200    0000438F =       17295. bytes (REL,CON)

      Value  Global                              Global Defined In Module
      -----  --------------------------------   ------------------------
     00001E0A  A$powerup$69                       powerup
     00001E0D  A$powerup$70                       powerup
     00001E0E  A$powerup$71                       powerup
     00001E0F  A$powerup$72                       powerup
     00001E10  A$powerup$77                       powerup
     00001E10  C$powerup.c$10$1$21                powerup
     00001E10  XG$InitPowerupSprites$0$0          powerup
     00001E11  A$powerup$94                       powerup
     00001E11  C$powerup.c$12$1$21                powerup
     00001E11  C$powerup.c$14$1$22                powerup
     00001E11  C$powerup.c$15$1$22                powerup
     00001E11  G$InitPowerups$0$0                 powerup
     00001E11  XG$InitPowerups$0$0                powerup
     00001E11  _InitPowerups                      powerup
     00001E14  A$powerup$107                      powerup
     00001E14  C$powerup.c$17$1$22                powerup
     00001E14  C$powerup.c$19$1$23                powerup
     00001E14  G$UpdatePowerup$0$0                powerup
     00001E14  _UpdatePowerup                     powerup
     00001E17  A$powerup$108                      powerup
     00001E18  A$powerup$109                      powerup
     00001E19  A$powerup$113                      powerup
     00001E19  C$powerup.c$21$2$24                powerup
     00001E1C  A$powerup$114                      powerup
     00001E1E  A$powerup$115                      powerup
     00001E20  A$powerup$116                      powerup
     00001E23  A$powerup$117                      powerup
     00001E24  A$powerup$122                      powerup
     00001E24  C$powerup.c$22$2$24                powerup
     00001E28  A$powerup$123                      powerup
     00001E2B  A$powerup$124                      powerup
     00001E2E  A$powerup$125                      powerup
     00001E2F  A$powerup$126                      powerup
     00001E32  A$powerup$130                      powerup
     00001E32  C$powerup.c$23$2$24                powerup
     00001E36  A$powerup$131                      powerup
     00001E39  A$powerup$132                      powerup
     00001E3B  A$powerup$133                      powerup
     00001E3C  A$powerup$134                      powerup
     00001E3F  A$powerup$135                      powerup
     00001E40  A$powerup$136                      powerup
     00001E41  A$powerup$137                      powerup
     00001E42  A$powerup$138                      powerup
     00001E45  A$powerup$139                      powerup
     00001E46  A$powerup$140                      powerup
     00001E49  A$powerup$141                      powerup
     00001E4A  A$powerup$142                      powerup
     00001E4B  A$powerup$143                      powerup
     00001E4E  A$powerup$144                      powerup
     00001E4F  A$powerup$145                      powerup
     00001E50  A$powerup$146                      powerup
ASxxxx Linker V03.00 + NoICE + sdld,  page 90.
Hexadecimal  [32-Bits]

Area                                    Addr        Size        Decimal Bytes (Attributes)
--------------------------------        ----        ----        ------- ----- ------------
_CODE                               00000200    0000438F =       17295. bytes (REL,CON)

      Value  Global                              Global Defined In Module
      -----  --------------------------------   ------------------------
     00001E51  A$powerup$147                      powerup
     00001E54  A$powerup$148                      powerup
     00001E57  A$powerup$149                      powerup
     00001E58  A$powerup$150                      powerup
     00001E59  A$powerup$154                      powerup
     00001E59  C$powerup.c$24$2$24                powerup
     00001E5C  A$powerup$155                      powerup
     00001E5E  A$powerup$156                      powerup
     00001E60  A$powerup$157                      powerup
     00001E63  A$powerup$158                      powerup
     00001E65  A$powerup$163                      powerup
     00001E65  C$powerup.c$27$2$24                powerup
     00001E69  A$powerup$164                      powerup
     00001E6C  A$powerup$165                      powerup
     00001E6E  A$powerup$166                      powerup
     00001E70  A$powerup$167                      powerup
     00001E73  A$powerup$168                      powerup
     00001E75  A$powerup$169                      powerup
     00001E76  A$powerup$174                      powerup
     00001E76  C$powerup.c$29$3$25                powerup
     00001E79  A$powerup$175                      powerup
     00001E7A  A$powerup$176                      powerup
     00001E7C  A$powerup$177                      powerup
     00001E7F  A$powerup$178                      powerup
     00001E80  A$powerup$179                      powerup
     00001E81  A$powerup$180                      powerup
     00001E85  A$powerup$181                      powerup
     00001E88  A$powerup$182                      powerup
     00001E8A  A$powerup$183                      powerup
     00001E8B  A$powerup$184                      powerup
     00001E8C  A$powerup$185                      powerup
     00001E8D  A$powerup$186                      powerup
     00001E8E  A$powerup$187                      powerup
     00001E91  A$powerup$188                      powerup
     00001E93  A$powerup$190                      powerup
     00001E94  A$powerup$191                      powerup
     00001E97  A$powerup$192                      powerup
     00001E98  A$powerup$193                      powerup
     00001E99  A$powerup$194                      powerup
     00001E9A  A$powerup$195                      powerup
     00001E9B  A$powerup$196                      powerup
     00001E9C  A$powerup$197                      powerup
     00001E9F  A$powerup$198                      powerup
     00001EA1  A$powerup$200                      powerup
     00001EA2  A$powerup$201                      powerup
     00001EA5  A$powerup$202                      powerup
     00001EA6  A$powerup$203                      powerup
     00001EA8  A$powerup$204                      powerup
     00001EAB  A$powerup$205                      powerup
     00001EAC  A$powerup$206                      powerup
     00001EAD  A$powerup$207                      powerup
ASxxxx Linker V03.00 + NoICE + sdld,  page 91.
Hexadecimal  [32-Bits]

Area                                    Addr        Size        Decimal Bytes (Attributes)
--------------------------------        ----        ----        ------- ----- ------------
_CODE                               00000200    0000438F =       17295. bytes (REL,CON)

      Value  Global                              Global Defined In Module
      -----  --------------------------------   ------------------------
     00001EB1  A$powerup$208                      powerup
     00001EB4  A$powerup$209                      powerup
     00001EB6  A$powerup$210                      powerup
     00001EB7  A$powerup$211                      powerup
     00001EB8  A$powerup$212                      powerup
     00001EB9  A$powerup$213                      powerup
     00001EBA  A$powerup$214                      powerup
     00001EBD  A$powerup$215                      powerup
     00001EBF  A$powerup$217                      powerup
     00001EC0  A$powerup$218                      powerup
     00001EC3  A$powerup$219                      powerup
     00001EC4  A$powerup$220                      powerup
     00001EC5  A$powerup$221                      powerup
     00001EC6  A$powerup$222                      powerup
     00001EC7  A$powerup$223                      powerup
     00001EC8  A$powerup$224                      powerup
     00001ECB  A$powerup$225                      powerup
     00001ECD  A$powerup$227                      powerup
     00001ECE  A$powerup$231                      powerup
     00001ECE  C$powerup.c$32$4$26                powerup
     00001ED1  A$powerup$232                      powerup
     00001ED2  A$powerup$233                      powerup
     00001ED4  A$powerup$234                      powerup
     00001ED7  A$powerup$235                      powerup
     00001ED9  A$powerup$236                      powerup
     00001EDB  A$powerup$241                      powerup
     00001EDB  C$powerup.c$33$4$26                powerup
     00001EDE  A$powerup$242                      powerup
     00001EE0  A$powerup$243                      powerup
     00001EE2  A$powerup$244                      powerup
     00001EE5  A$powerup$245                      powerup
     00001EE7  A$powerup$246                      powerup
     00001EE9  A$powerup$251                      powerup
     00001EE9  C$powerup.c$34$4$26                powerup
     00001EEC  A$powerup$252                      powerup
     00001EEE  A$powerup$257                      powerup
     00001EEE  C$powerup.c$37$4$26                powerup
     00001EF1  A$powerup$258                      powerup
     00001EF3  A$powerup$262                      powerup
     00001EF3  C$powerup.c$40$4$26                powerup
     00001EF5  A$powerup$263                      powerup
     00001EF6  A$powerup$264                      powerup
     00001EF7  A$powerup$265                      powerup
     00001EFA  A$powerup$266                      powerup
     00001EFB  A$powerup$267                      powerup
     00001EFE  A$powerup$268                      powerup
     00001EFF  A$powerup$269                      powerup
     00001F00  A$powerup$274                      powerup
     00001F00  C$powerup.c$44$1$23                powerup
     00001F00  XG$UpdatePowerup$0$0               powerup
     00001F01  A$powerup$287                      powerup
ASxxxx Linker V03.00 + NoICE + sdld,  page 92.
Hexadecimal  [32-Bits]

Area                                    Addr        Size        Decimal Bytes (Attributes)
--------------------------------        ----        ----        ------- ----- ------------
_CODE                               00000200    0000438F =       17295. bytes (REL,CON)

      Value  Global                              Global Defined In Module
      -----  --------------------------------   ------------------------
     00001F01  C$powerup.c$46$1$23                powerup
     00001F01  C$powerup.c$48$1$28                powerup
     00001F01  G$InitPowerup$0$0                  powerup
     00001F01  _InitPowerup                       powerup
     00001F04  A$powerup$288                      powerup
     00001F06  A$powerup$289                      powerup
     00001F07  A$powerup$293                      powerup
     00001F07  C$powerup.c$49$1$28                powerup
     00001F0A  A$powerup$294                      powerup
     00001F0B  A$powerup$295                      powerup
     00001F0C  A$powerup$299                      powerup
     00001F0C  C$powerup.c$51$2$29                powerup
     00001F10  A$powerup$300                      powerup
     00001F13  A$powerup$301                      powerup
     00001F15  A$powerup$302                      powerup
     00001F18  A$powerup$307                      powerup
     00001F18  C$powerup.c$52$2$29                powerup
     00001F1B  A$powerup$308                      powerup
     00001F1D  A$powerup$309                      powerup
     00001F20  A$powerup$310                      powerup
     00001F21  A$powerup$314                      powerup
     00001F21  C$powerup.c$54$3$30                powerup
     00001F24  A$powerup$315                      powerup
     00001F25  A$powerup$316                      powerup
     00001F27  A$powerup$317                      powerup
     00001F28  A$powerup$318                      powerup
     00001F29  A$powerup$319                      powerup
     00001F2A  A$powerup$320                      powerup
     00001F2B  A$powerup$321                      powerup
     00001F2E  A$powerup$322                      powerup
     00001F2F  A$powerup$323                      powerup
     00001F30  A$powerup$324                      powerup
     00001F33  A$powerup$325                      powerup
     00001F34  A$powerup$326                      powerup
     00001F35  A$powerup$330                      powerup
     00001F35  C$powerup.c$55$3$30                powerup
     00001F36  A$powerup$331                      powerup
     00001F37  A$powerup$332                      powerup
     00001F38  A$powerup$333                      powerup
     00001F39  A$powerup$334                      powerup
     00001F3A  A$powerup$335                      powerup
     00001F3D  A$powerup$339                      powerup
     00001F3D  C$powerup.c$56$3$30                powerup
     00001F3E  A$powerup$340                      powerup
     00001F3F  A$powerup$341                      powerup
     00001F40  A$powerup$342                      powerup
     00001F41  A$powerup$343                      powerup
     00001F44  A$powerup$347                      powerup
     00001F44  C$powerup.c$57$3$30                powerup
     00001F47  A$powerup$348                      powerup
     00001F4A  A$powerup$352                      powerup
ASxxxx Linker V03.00 + NoICE + sdld,  page 93.
Hexadecimal  [32-Bits]

Area                                    Addr        Size        Decimal Bytes (Attributes)
--------------------------------        ----        ----        ------- ----- ------------
_CODE                               00000200    0000438F =       17295. bytes (REL,CON)

      Value  Global                              Global Defined In Module
      -----  --------------------------------   ------------------------
     00001F4A  C$powerup.c$58$3$30                powerup
     00001F4D  A$powerup$353                      powerup
     00001F4F  A$powerup$358                      powerup
     00001F4F  C$powerup.c$61$1$28                powerup
     00001F4F  XG$InitPowerup$0$0                 powerup
     00001F50  A$rectship$55                      rectship
     00001F50  C$rectship.c$7$0$0                 rectship
     00001F50  G$UpdateRectShip$0$0               rectship
     00001F50  _UpdateRectShip                    rectship
     00001F52  A$rectship$56                      rectship
     00001F56  A$rectship$57                      rectship
     00001F58  A$rectship$58                      rectship
     00001F59  A$rectship$62                      rectship
     00001F59  C$rectship.c$9$1$58                rectship
     00001F5C  A$rectship$63                      rectship
     00001F5F  A$rectship$64                      rectship
     00001F62  A$rectship$65                      rectship
     00001F65  A$rectship$66                      rectship
     00001F66  A$rectship$67                      rectship
     00001F67  A$rectship$68                      rectship
     00001F68  A$rectship$69                      rectship
     00001F69  A$rectship$70                      rectship
     00001F6A  A$rectship$71                      rectship
     00001F6B  A$rectship$72                      rectship
     00001F6C  A$rectship$73                      rectship
     00001F6D  A$rectship$74                      rectship
     00001F6E  A$rectship$75                      rectship
     00001F71  A$rectship$76                      rectship
     00001F72  A$rectship$77                      rectship
     00001F73  A$rectship$78                      rectship
     00001F76  A$rectship$79                      rectship
     00001F77  A$rectship$80                      rectship
     00001F78  A$rectship$81                      rectship
     00001F79  A$rectship$85                      rectship
     00001F79  C$rectship.c$10$1$58               rectship
     00001F7C  A$rectship$86                      rectship
     00001F7D  A$rectship$87                      rectship
     00001F7F  A$rectship$88                      rectship
     00001F83  A$rectship$89                      rectship
     00001F85  A$rectship$90                      rectship
     00001F86  A$rectship$91                      rectship
     00001F88  A$rectship$92                      rectship
     00001F89  A$rectship$93                      rectship
     00001F8A  A$rectship$94                      rectship
     00001F8B  A$rectship$95                      rectship
     00001F8C  A$rectship$96                      rectship
     00001F8D  A$rectship$97                      rectship
     00001F8E  A$rectship$98                      rectship
     00001F8F  A$rectship$99                      rectship
     00001F90  A$rectship$100                     rectship
     00001F91  A$rectship$101                     rectship
ASxxxx Linker V03.00 + NoICE + sdld,  page 94.
Hexadecimal  [32-Bits]

Area                                    Addr        Size        Decimal Bytes (Attributes)
--------------------------------        ----        ----        ------- ----- ------------
_CODE                               00000200    0000438F =       17295. bytes (REL,CON)

      Value  Global                              Global Defined In Module
      -----  --------------------------------   ------------------------
     00001F93  A$rectship$102                     rectship
     00001F94  A$rectship$103                     rectship
     00001F95  A$rectship$104                     rectship
     00001F96  A$rectship$105                     rectship
     00001F97  A$rectship$106                     rectship
     00001F98  A$rectship$107                     rectship
     00001F9B  A$rectship$108                     rectship
     00001F9C  A$rectship$109                     rectship
     00001F9D  A$rectship$110                     rectship
     00001F9E  A$rectship$114                     rectship
     00001F9E  C$rectship.c$12$1$58               rectship
     00001F9F  A$rectship$115                     rectship
     00001FA0  A$rectship$116                     rectship
     00001FA2  A$rectship$117                     rectship
     00001FA3  A$rectship$118                     rectship
     00001FA5  A$rectship$119                     rectship
     00001FA6  A$rectship$120                     rectship
     00001FA8  A$rectship$121                     rectship
     00001FAA  A$rectship$125                     rectship
     00001FAA  C$rectship.c$13$1$58               rectship
     00001FAC  A$rectship$126                     rectship
     00001FAE  A$rectship$131                     rectship
     00001FAE  C$rectship.c$17$2$59               rectship
     00001FAF  A$rectship$132                     rectship
     00001FB1  A$rectship$133                     rectship
     00001FB2  A$rectship$137                     rectship
     00001FB2  C$rectship.c$20$2$59               rectship
     00001FB4  A$rectship$138                     rectship
     00001FB5  A$rectship$139                     rectship
     00001FB6  A$rectship$140                     rectship
     00001FB9  A$rectship$141                     rectship
     00001FBC  A$rectship$142                     rectship
     00001FBD  A$rectship$143                     rectship
     00001FC0  A$rectship$144                     rectship
     00001FC1  A$rectship$145                     rectship
     00001FC2  A$rectship$149                     rectship
     00001FC2  C$rectship.c$22$1$58               rectship
     00001FC4  A$rectship$151                     rectship
     00001FC6  A$rectship$152                     rectship
     00001FC8  A$rectship$157                     rectship
     00001FC8  C$rectship.c$23$1$58               rectship
     00001FC8  XG$UpdateRectShip$0$0              rectship
     00001FC9  A$rsgthing$59                      rsgthing
     00001FC9  C$rsgthing.c$3$0$0                 rsgthing
     00001FC9  C$rsgthing.c$5$0$0                 rsgthing
     00001FC9  G$rsgthing_foo$0$0                 rsgthing
     00001FC9  XG$rsgthing_foo$0$0                rsgthing
     00001FC9  _rsgthing_foo                      rsgthing
     00001FCA  A$scripter$67                      scripter
     00001FCA  C$scripter.c$11$0$0                scripter
     00001FCA  C$scripter.c$13$1$65               scripter
ASxxxx Linker V03.00 + NoICE + sdld,  page 95.
Hexadecimal  [32-Bits]

Area                                    Addr        Size        Decimal Bytes (Attributes)
--------------------------------        ----        ----        ------- ----- ------------
_CODE                               00000200    0000438F =       17295. bytes (REL,CON)

      Value  Global                              Global Defined In Module
      -----  --------------------------------   ------------------------
     00001FCA  G$InitScripts$0$0                  scripter
     00001FCA  _InitScripts                       scripter
     00001FCD  A$scripter$68                      scripter
     00001FCF  A$scripter$73                      scripter
     00001FCF  C$scripter.c$14$1$65               scripter
     00001FCF  XG$InitScripts$0$0                 scripter
     00001FD0  A$scripter$83                      scripter
     00001FD0  C$scripter.c$16$1$65               scripter
     00001FD0  G$InitScript$0$0                   scripter
     00001FD0  _InitScript                        scripter
     00001FD2  A$scripter$84                      scripter
     00001FD6  A$scripter$85                      scripter
     00001FD8  A$scripter$89                      scripter
     00001FD8  C$scripter.c$20$1$67               scripter
     00001FDC  A$scripter$90                      scripter
     00001FDF  A$scripter$91                      scripter
     00001FE1  A$scripter$92                      scripter
     00001FE3  A$scripter$96                      scripter
     00001FE3  C$scripter.c$23$2$68               scripter
     00001FE6  A$scripter$97                      scripter
     00001FE9  A$scripter$98                      scripter
     00001FEC  A$scripter$99                      scripter
     00001FEE  A$scripter$100                     scripter
     00001FEF  A$scripter$101                     scripter
     00001FF0  A$scripter$102                     scripter
     00001FF1  A$scripter$103                     scripter
     00001FF2  A$scripter$104                     scripter
     00001FF3  A$scripter$108                     scripter
     00001FF3  C$scripter.c$26$2$68               scripter
     00001FF4  A$scripter$109                     scripter
     00001FF5  A$scripter$110                     scripter
     00001FF6  A$scripter$111                     scripter
     00001FF7  A$scripter$112                     scripter
     00001FF8  A$scripter$113                     scripter
     00001FF9  A$scripter$117                     scripter
     00001FF9  C$scripter.c$27$2$68               scripter
     00001FFC  A$scripter$118                     scripter
     00001FFD  A$scripter$119                     scripter
     00001FFF  A$scripter$123                     scripter
     00001FFF  C$scripter.c$28$2$68               scripter
     00002000  A$scripter$124                     scripter
     00002001  A$scripter$125                     scripter
     00002002  A$scripter$126                     scripter
     00002003  A$scripter$127                     scripter
     00002006  A$scripter$128                     scripter
     00002007  A$scripter$129                     scripter
     00002008  A$scripter$130                     scripter
     0000200B  A$scripter$131                     scripter
     0000200C  A$scripter$135                     scripter
     0000200C  C$scripter.c$29$2$68               scripter
     0000200F  A$scripter$136                     scripter
ASxxxx Linker V03.00 + NoICE + sdld,  page 96.
Hexadecimal  [32-Bits]

Area                                    Addr        Size        Decimal Bytes (Attributes)
--------------------------------        ----        ----        ------- ----- ------------
_CODE                               00000200    0000438F =       17295. bytes (REL,CON)

      Value  Global                              Global Defined In Module
      -----  --------------------------------   ------------------------
     00002010  A$scripter$137                     scripter
     00002013  A$scripter$138                     scripter
     00002014  A$scripter$139                     scripter
     00002015  A$scripter$140                     scripter
     00002018  A$scripter$141                     scripter
     00002019  A$scripter$145                     scripter
     00002019  C$scripter.c$30$2$68               scripter
     0000201C  A$scripter$146                     scripter
     0000201D  A$scripter$147                     scripter
     0000201F  A$scripter$149                     scripter
     00002021  A$scripter$154                     scripter
     00002021  C$scripter.c$32$1$67               scripter
     00002021  XG$InitScript$0$0                  scripter
     00002022  A$scripter$164                     scripter
     00002022  C$scripter.c$35$1$67               scripter
     00002022  G$RemoveScript$0$0                 scripter
     00002022  _RemoveScript                      scripter
     00002024  A$scripter$165                     scripter
     00002028  A$scripter$166                     scripter
     0000202A  A$scripter$167                     scripter
     0000202B  A$scripter$171                     scripter
     0000202B  C$scripter.c$40$1$70               scripter
     0000202E  A$scripter$172                     scripter
     0000202F  A$scripter$173                     scripter
     00002031  A$scripter$174                     scripter
     00002032  A$scripter$175                     scripter
     00002035  A$scripter$176                     scripter
     00002038  A$scripter$177                     scripter
     00002039  A$scripter$178                     scripter
     0000203A  A$scripter$179                     scripter
     0000203B  A$scripter$180                     scripter
     0000203C  A$scripter$181                     scripter
     0000203D  A$scripter$182                     scripter
     0000203E  A$scripter$183                     scripter
     0000203F  A$scripter$184                     scripter
     00002042  A$scripter$185                     scripter
     00002044  A$scripter$187                     scripter
     00002047  A$scripter$191                     scripter
     00002047  C$scripter.c$42$2$71               scripter
     0000204A  A$scripter$192                     scripter
     0000204B  A$scripter$193                     scripter
     0000204C  A$scripter$194                     scripter
     0000204D  A$scripter$195                     scripter
     0000204E  A$scripter$196                     scripter
     0000204F  A$scripter$197                     scripter
     00002050  A$scripter$198                     scripter
     00002051  A$scripter$199                     scripter
     00002052  A$scripter$203                     scripter
     00002052  C$scripter.c$43$2$71               scripter
     00002055  A$scripter$204                     scripter
     00002057  A$scripter$205                     scripter
ASxxxx Linker V03.00 + NoICE + sdld,  page 97.
Hexadecimal  [32-Bits]

Area                                    Addr        Size        Decimal Bytes (Attributes)
--------------------------------        ----        ----        ------- ----- ------------
_CODE                               00000200    0000438F =       17295. bytes (REL,CON)

      Value  Global                              Global Defined In Module
      -----  --------------------------------   ------------------------
     00002058  A$scripter$206                     scripter
     0000205A  A$scripter$207                     scripter
     0000205B  A$scripter$208                     scripter
     0000205C  A$scripter$209                     scripter
     0000205D  A$scripter$210                     scripter
     0000205E  A$scripter$211                     scripter
     0000205F  A$scripter$215                     scripter
     0000205F  C$scripter.c$45$2$71               scripter
     00002060  A$scripter$216                     scripter
     00002063  A$scripter$217                     scripter
     00002064  A$scripter$218                     scripter
     00002065  A$scripter$219                     scripter
     00002068  A$scripter$220                     scripter
     00002069  A$scripter$221                     scripter
     0000206A  A$scripter$222                     scripter
     0000206B  A$scripter$223                     scripter
     0000206E  A$scripter$224                     scripter
     0000206F  A$scripter$225                     scripter
     00002070  A$scripter$226                     scripter
     00002073  A$scripter$227                     scripter
     00002074  A$scripter$231                     scripter
     00002074  C$scripter.c$46$2$71               scripter
     00002075  A$scripter$232                     scripter
     00002077  A$scripter$233                     scripter
     00002079  A$scripter$234                     scripter
     0000207B  A$scripter$235                     scripter
     0000207C  A$scripter$236                     scripter
     0000207D  A$scripter$237                     scripter
     0000207E  A$scripter$238                     scripter
     0000207F  A$scripter$239                     scripter
     00002080  A$scripter$240                     scripter
     00002081  A$scripter$241                     scripter
     00002082  A$scripter$242                     scripter
     00002085  A$scripter$243                     scripter
     00002088  A$scripter$247                     scripter
     00002088  C$scripter.c$47$2$71               scripter
     0000208C  A$scripter$248                     scripter
     0000208E  A$scripter$249                     scripter
     0000208F  A$scripter$250                     scripter
     00002090  A$scripter$251                     scripter
     00002091  A$scripter$252                     scripter
     00002092  A$scripter$253                     scripter
     00002093  A$scripter$254                     scripter
     00002094  A$scripter$255                     scripter
     00002095  A$scripter$256                     scripter
     00002096  A$scripter$257                     scripter
     00002097  A$scripter$258                     scripter
     0000209A  A$scripter$259                     scripter
     0000209D  A$scripter$263                     scripter
     0000209D  C$scripter.c$48$2$71               scripter
     000020A1  A$scripter$264                     scripter
ASxxxx Linker V03.00 + NoICE + sdld,  page 98.
Hexadecimal  [32-Bits]

Area                                    Addr        Size        Decimal Bytes (Attributes)
--------------------------------        ----        ----        ------- ----- ------------
_CODE                               00000200    0000438F =       17295. bytes (REL,CON)

      Value  Global                              Global Defined In Module
      -----  --------------------------------   ------------------------
     000020A3  A$scripter$265                     scripter
     000020A4  A$scripter$266                     scripter
     000020A5  A$scripter$267                     scripter
     000020A6  A$scripter$268                     scripter
     000020A9  A$scripter$269                     scripter
     000020AA  A$scripter$270                     scripter
     000020AB  A$scripter$271                     scripter
     000020AC  A$scripter$272                     scripter
     000020AF  A$scripter$276                     scripter
     000020AF  C$scripter.c$49$2$71               scripter
     000020B2  A$scripter$277                     scripter
     000020B3  A$scripter$278                     scripter
     000020B4  A$scripter$279                     scripter
     000020B5  A$scripter$280                     scripter
     000020B6  A$scripter$281                     scripter
     000020B8  A$scripter$282                     scripter
     000020BB  A$scripter$283                     scripter
     000020BC  A$scripter$288                     scripter
     000020BC  C$scripter.c$52$1$70               scripter
     000020BF  A$scripter$289                     scripter
     000020C0  A$scripter$290                     scripter
     000020C2  A$scripter$291                     scripter
     000020C4  A$scripter$296                     scripter
     000020C4  C$scripter.c$53$1$70               scripter
     000020C4  XG$RemoveScript$0$0                scripter
     000020C5  A$scripter$306                     scripter
     000020C5  C$scripter.c$55$1$70               scripter
     000020C5  G$UpdateScript$0$0                 scripter
     000020C5  _UpdateScript                      scripter
     000020C7  A$scripter$307                     scripter
     000020CB  A$scripter$308                     scripter
     000020CD  A$scripter$309                     scripter
     000020D0  A$scripter$310                     scripter
     000020D1  A$scripter$311                     scripter
     000020D2  A$scripter$315                     scripter
     000020D2  C$scripter.c$64$1$73               scripter
     000020D5  A$scripter$316                     scripter
     000020D8  A$scripter$317                     scripter
     000020DA  A$scripter$318                     scripter
     000020DB  A$scripter$319                     scripter
     000020DC  A$scripter$320                     scripter
     000020DD  A$scripter$321                     scripter
     000020DE  A$scripter$322                     scripter
     000020DF  A$scripter$323                     scripter
     000020E0  A$scripter$327                     scripter
     000020E0  C$scripter.c$67$1$73               scripter
     000020E3  A$scripter$328                     scripter
     000020E4  A$scripter$329                     scripter
     000020E7  A$scripter$330                     scripter
     000020EA  A$scripter$331                     scripter
     000020EB  A$scripter$332                     scripter
ASxxxx Linker V03.00 + NoICE + sdld,  page 99.
Hexadecimal  [32-Bits]

Area                                    Addr        Size        Decimal Bytes (Attributes)
--------------------------------        ----        ----        ------- ----- ------------
_CODE                               00000200    0000438F =       17295. bytes (REL,CON)

      Value  Global                              Global Defined In Module
      -----  --------------------------------   ------------------------
     000020EC  A$scripter$333                     scripter
     000020EF  A$scripter$334                     scripter
     000020F2  A$scripter$335                     scripter
     000020F3  A$scripter$339                     scripter
     000020F3  C$scripter.c$70$1$73               scripter
     000020F6  A$scripter$343                     scripter
     000020F6  C$scripter.c$71$1$73               scripter
     000020F7  A$scripter$344                     scripter
     000020FA  A$scripter$345                     scripter
     000020FB  A$scripter$346                     scripter
     000020FC  A$scripter$347                     scripter
     000020FF  A$scripter$348                     scripter
     00002100  A$scripter$352                     scripter
     00002100  C$scripter.c$72$1$73               scripter
     00002101  A$scripter$353                     scripter
     00002102  A$scripter$354                     scripter
     00002103  A$scripter$355                     scripter
     00002104  A$scripter$356                     scripter
     00002105  A$scripter$357                     scripter
     00002108  A$scripter$358                     scripter
     00002109  A$scripter$359                     scripter
     0000210A  A$scripter$360                     scripter
     0000210D  A$scripter$364                     scripter
     0000210D  C$scripter.c$75$3$75               scripter
     00002110  A$scripter$365                     scripter
     00002113  A$scripter$367                     scripter
     00002116  A$scripter$368                     scripter
     00002119  A$scripter$369                     scripter
     0000211A  A$scripter$370                     scripter
     0000211D  A$scripter$371                     scripter
     00002120  A$scripter$372                     scripter
     00002121  A$scripter$373                     scripter
     00002124  A$scripter$374                     scripter
     00002125  A$scripter$375                     scripter
     00002128  A$scripter$379                     scripter
     00002128  C$scripter.c$77$2$74               scripter
     0000212B  A$scripter$380                     scripter
     0000212E  A$scripter$381                     scripter
     0000212F  A$scripter$382                     scripter
     00002130  A$scripter$383                     scripter
     00002133  A$scripter$384                     scripter
     00002136  A$scripter$385                     scripter
     00002137  A$scripter$386                     scripter
     00002138  A$scripter$387                     scripter
     0000213B  A$scripter$391                     scripter
     0000213B  C$scripter.c$78$2$74               scripter
     0000213E  A$scripter$392                     scripter
     00002141  A$scripter$393                     scripter
     00002142  A$scripter$394                     scripter
     00002143  A$scripter$395                     scripter
     00002144  A$scripter$396                     scripter
ASxxxx Linker V03.00 + NoICE + sdld,  page 100.
Hexadecimal  [32-Bits]

Area                                    Addr        Size        Decimal Bytes (Attributes)
--------------------------------        ----        ----        ------- ----- ------------
_CODE                               00000200    0000438F =       17295. bytes (REL,CON)

      Value  Global                              Global Defined In Module
      -----  --------------------------------   ------------------------
     00002147  A$scripter$397                     scripter
     0000214A  A$scripter$398                     scripter
     0000214B  A$scripter$399                     scripter
     0000214C  A$scripter$400                     scripter
     0000214F  A$scripter$404                     scripter
     0000214F  C$scripter.c$79$2$74               scripter
     00002152  A$scripter$405                     scripter
     00002154  A$scripter$406                     scripter
     00002155  A$scripter$407                     scripter
     00002158  A$scripter$408                     scripter
     0000215A  A$scripter$409                     scripter
     0000215B  A$scripter$410                     scripter
     0000215E  A$scripter$411                     scripter
     00002161  A$scripter$412                     scripter
     00002162  A$scripter$413                     scripter
     00002163  A$scripter$417                     scripter
     00002163  C$scripter.c$81$2$74               scripter
     00002166  A$scripter$418                     scripter
     00002169  A$scripter$419                     scripter
     0000216A  A$scripter$420                     scripter
     0000216B  A$scripter$421                     scripter
     0000216E  A$scripter$422                     scripter
     0000216F  A$scripter$423                     scripter
     00002170  A$scripter$424                     scripter
     00002173  A$scripter$425                     scripter
     00002174  A$scripter$426                     scripter
     00002175  A$scripter$427                     scripter
     00002177  A$scripter$428                     scripter
     00002178  A$scripter$429                     scripter
     0000217B  A$scripter$430                     scripter
     0000217C  A$scripter$431                     scripter
     0000217D  A$scripter$432                     scripter
     0000217F  A$scripter$433                     scripter
     00002182  A$scripter$434                     scripter
     00002183  A$scripter$435                     scripter
     00002184  A$scripter$436                     scripter
     00002185  A$scripter$437                     scripter
     00002186  A$scripter$438                     scripter
     00002187  A$scripter$440                     scripter
     0000218A  A$scripter$441                     scripter
     0000218D  A$scripter$442                     scripter
     00002190  A$scripter$443                     scripter
     00002193  A$scripter$444                     scripter
     00002196  A$scripter$445                     scripter
     00002199  A$scripter$446                     scripter
     0000219C  A$scripter$447                     scripter
     0000219F  A$scripter$448                     scripter
     000021A2  A$scripter$449                     scripter
     000021A5  A$scripter$450                     scripter
     000021A8  A$scripter$458                     scripter
     000021A8  C$scripter.c$83$3$75               scripter
ASxxxx Linker V03.00 + NoICE + sdld,  page 101.
Hexadecimal  [32-Bits]

Area                                    Addr        Size        Decimal Bytes (Attributes)
--------------------------------        ----        ----        ------- ----- ------------
_CODE                               00000200    0000438F =       17295. bytes (REL,CON)

      Value  Global                              Global Defined In Module
      -----  --------------------------------   ------------------------
     000021A8  C$scripter.c$84$3$75               scripter
     000021A9  A$scripter$459                     scripter
     000021AC  A$scripter$460                     scripter
     000021AD  A$scripter$464                     scripter
     000021AD  C$scripter.c$85$3$75               scripter
     000021B0  A$scripter$472                     scripter
     000021B0  C$scripter.c$86$3$75               scripter
     000021B0  C$scripter.c$87$3$75               scripter
     000021B3  A$scripter$473                     scripter
     000021B5  A$scripter$474                     scripter
     000021B6  A$scripter$475                     scripter
     000021B9  A$scripter$476                     scripter
     000021BA  A$scripter$477                     scripter
     000021BB  A$scripter$478                     scripter
     000021BC  A$scripter$479                     scripter
     000021BD  A$scripter$480                     scripter
     000021BE  A$scripter$481                     scripter
     000021C1  A$scripter$482                     scripter
     000021C2  A$scripter$483                     scripter
     000021C3  A$scripter$484                     scripter
     000021C6  A$scripter$485                     scripter
     000021C7  A$scripter$486                     scripter
     000021C8  A$scripter$487                     scripter
     000021C9  A$scripter$491                     scripter
     000021C9  C$scripter.c$88$3$75               scripter
     000021CC  A$scripter$499                     scripter
     000021CC  C$scripter.c$89$3$75               scripter
     000021CC  C$scripter.c$90$3$75               scripter
     000021CF  A$scripter$500                     scripter
     000021D3  A$scripter$501                     scripter
     000021D6  A$scripter$502                     scripter
     000021D9  A$scripter$503                     scripter
     000021DC  A$scripter$504                     scripter
     000021DD  A$scripter$505                     scripter
     000021DE  A$scripter$506                     scripter
     000021DF  A$scripter$507                     scripter
     000021E0  A$scripter$508                     scripter
     000021E3  A$scripter$509                     scripter
     000021E5  A$scripter$510                     scripter
     000021E6  A$scripter$511                     scripter
     000021E7  A$scripter$512                     scripter
     000021E8  A$scripter$513                     scripter
     000021E9  A$scripter$514                     scripter
     000021EA  A$scripter$515                     scripter
     000021EB  A$scripter$516                     scripter
     000021EE  A$scripter$517                     scripter
     000021F1  A$scripter$518                     scripter
     000021F2  A$scripter$519                     scripter
     000021F5  A$scripter$520                     scripter
     000021F6  A$scripter$521                     scripter
     000021F7  A$scripter$522                     scripter
ASxxxx Linker V03.00 + NoICE + sdld,  page 102.
Hexadecimal  [32-Bits]

Area                                    Addr        Size        Decimal Bytes (Attributes)
--------------------------------        ----        ----        ------- ----- ------------
_CODE                               00000200    0000438F =       17295. bytes (REL,CON)

      Value  Global                              Global Defined In Module
      -----  --------------------------------   ------------------------
     000021F8  A$scripter$523                     scripter
     000021FB  A$scripter$524                     scripter
     000021FC  A$scripter$525                     scripter
     000021FD  A$scripter$526                     scripter
     000021FE  A$scripter$527                     scripter
     000021FF  A$scripter$531                     scripter
     000021FF  C$scripter.c$91$3$75               scripter
     00002202  A$scripter$539                     scripter
     00002202  C$scripter.c$92$3$75               scripter
     00002202  C$scripter.c$93$3$75               scripter
     00002203  A$scripter$540                     scripter
     00002206  A$scripter$541                     scripter
     00002207  A$scripter$542                     scripter
     0000220A  A$scripter$543                     scripter
     0000220B  A$scripter$544                     scripter
     0000220C  A$scripter$545                     scripter
     0000220F  A$scripter$546                     scripter
     00002210  A$scripter$547                     scripter
     00002211  A$scripter$548                     scripter
     00002212  A$scripter$552                     scripter
     00002212  C$scripter.c$94$3$75               scripter
     00002215  A$scripter$560                     scripter
     00002215  C$scripter.c$95$3$75               scripter
     00002215  C$scripter.c$96$3$75               scripter
     00002216  A$scripter$561                     scripter
     00002219  A$scripter$562                     scripter
     0000221C  A$scripter$563                     scripter
     0000221D  A$scripter$564                     scripter
     00002220  A$scripter$565                     scripter
     00002221  A$scripter$566                     scripter
     00002222  A$scripter$570                     scripter
     00002222  C$scripter.c$97$3$75               scripter
     00002225  A$scripter$578                     scripter
     00002225  C$scripter.c$98$3$75               scripter
     00002225  C$scripter.c$99$3$75               scripter
     00002226  A$scripter$579                     scripter
     00002229  A$scripter$580                     scripter
     0000222A  A$scripter$584                     scripter
     0000222A  C$scripter.c$100$3$75              scripter
     0000222D  A$scripter$592                     scripter
     0000222D  C$scripter.c$101$3$75              scripter
     0000222D  C$scripter.c$102$3$75              scripter
     0000222E  A$scripter$593                     scripter
     00002231  A$scripter$594                     scripter
     00002232  A$scripter$598                     scripter
     00002232  C$scripter.c$103$3$75              scripter
     00002235  A$scripter$606                     scripter
     00002235  C$scripter.c$104$3$75              scripter
     00002235  C$scripter.c$106$3$75              scripter
     00002238  A$scripter$607                     scripter
     00002239  A$scripter$608                     scripter
ASxxxx Linker V03.00 + NoICE + sdld,  page 103.
Hexadecimal  [32-Bits]

Area                                    Addr        Size        Decimal Bytes (Attributes)
--------------------------------        ----        ----        ------- ----- ------------
_CODE                               00000200    0000438F =       17295. bytes (REL,CON)

      Value  Global                              Global Defined In Module
      -----  --------------------------------   ------------------------
     0000223A  A$scripter$609                     scripter
     0000223B  A$scripter$610                     scripter
     0000223C  A$scripter$611                     scripter
     0000223E  A$scripter$615                     scripter
     0000223E  C$scripter.c$108$4$76              scripter
     0000223F  A$scripter$619                     scripter
     0000223F  C$scripter.c$109$4$76              scripter
     00002240  A$scripter$620                     scripter
     00002241  A$scripter$621                     scripter
     00002242  A$scripter$622                     scripter
     00002243  A$scripter$623                     scripter
     00002244  A$scripter$624                     scripter
     00002245  A$scripter$625                     scripter
     00002248  A$scripter$626                     scripter
     0000224A  A$scripter$627                     scripter
     0000224B  A$scripter$628                     scripter
     0000224C  A$scripter$629                     scripter
     0000224D  A$scripter$630                     scripter
     0000224E  A$scripter$631                     scripter
     0000224F  A$scripter$632                     scripter
     00002250  A$scripter$633                     scripter
     00002251  A$scripter$634                     scripter
     00002252  A$scripter$635                     scripter
     00002253  A$scripter$636                     scripter
     00002254  A$scripter$637                     scripter
     00002255  A$scripter$638                     scripter
     00002256  A$scripter$639                     scripter
     00002257  A$scripter$640                     scripter
     00002258  A$scripter$641                     scripter
     00002259  A$scripter$642                     scripter
     0000225A  A$scripter$643                     scripter
     0000225B  A$scripter$647                     scripter
     0000225B  C$scripter.c$110$4$76              scripter
     0000225E  A$scripter$648                     scripter
     0000225F  A$scripter$649                     scripter
     00002262  A$scripter$650                     scripter
     00002265  A$scripter$651                     scripter
     00002266  A$scripter$655                     scripter
     00002266  C$scripter.c$111$4$76              scripter
     00002268  A$scripter$660                     scripter
     00002268  C$scripter.c$115$4$77              scripter
     00002269  A$scripter$661                     scripter
     0000226A  A$scripter$665                     scripter
     0000226A  C$scripter.c$116$4$77              scripter
     0000226C  A$scripter$666                     scripter
     0000226E  A$scripter$670                     scripter
     0000226E  C$scripter.c$118$5$78              scripter
     0000226F  A$scripter$671                     scripter
     00002270  A$scripter$672                     scripter
     00002271  A$scripter$673                     scripter
     00002272  A$scripter$674                     scripter
ASxxxx Linker V03.00 + NoICE + sdld,  page 104.
Hexadecimal  [32-Bits]

Area                                    Addr        Size        Decimal Bytes (Attributes)
--------------------------------        ----        ----        ------- ----- ------------
_CODE                               00000200    0000438F =       17295. bytes (REL,CON)

      Value  Global                              Global Defined In Module
      -----  --------------------------------   ------------------------
     00002273  A$scripter$675                     scripter
     00002274  A$scripter$676                     scripter
     00002277  A$scripter$677                     scripter
     00002279  A$scripter$678                     scripter
     0000227A  A$scripter$679                     scripter
     0000227B  A$scripter$680                     scripter
     0000227C  A$scripter$681                     scripter
     0000227D  A$scripter$682                     scripter
     0000227E  A$scripter$683                     scripter
     0000227F  A$scripter$684                     scripter
     00002280  A$scripter$685                     scripter
     00002281  A$scripter$686                     scripter
     00002282  A$scripter$687                     scripter
     00002283  A$scripter$688                     scripter
     00002284  A$scripter$689                     scripter
     00002285  A$scripter$690                     scripter
     00002286  A$scripter$691                     scripter
     00002287  A$scripter$692                     scripter
     00002288  A$scripter$693                     scripter
     00002289  A$scripter$694                     scripter
     0000228A  A$scripter$698                     scripter
     0000228A  C$scripter.c$119$5$78              scripter
     0000228D  A$scripter$699                     scripter
     0000228E  A$scripter$700                     scripter
     00002291  A$scripter$701                     scripter
     00002294  A$scripter$702                     scripter
     00002295  A$scripter$706                     scripter
     00002295  C$scripter.c$120$5$78              scripter
     00002297  A$scripter$714                     scripter
     00002297  C$scripter.c$124$3$75              scripter
     00002297  C$scripter.c$125$3$75              scripter
     00002298  A$scripter$715                     scripter
     00002299  A$scripter$716                     scripter
     0000229C  A$scripter$717                     scripter
     0000229D  A$scripter$718                     scripter
     000022A0  A$scripter$719                     scripter
     000022A1  A$scripter$720                     scripter
     000022A2  A$scripter$721                     scripter
     000022A5  A$scripter$722                     scripter
     000022A6  A$scripter$723                     scripter
     000022A7  A$scripter$724                     scripter
     000022A8  A$scripter$728                     scripter
     000022A8  C$scripter.c$126$3$75              scripter
     000022AA  A$scripter$736                     scripter
     000022AA  C$scripter.c$127$3$75              scripter
     000022AA  C$scripter.c$128$3$75              scripter
     000022AD  A$scripter$737                     scripter
     000022AE  A$scripter$738                     scripter
     000022AF  A$scripter$739                     scripter
     000022B2  A$scripter$740                     scripter
     000022B3  A$scripter$744                     scripter
ASxxxx Linker V03.00 + NoICE + sdld,  page 105.
Hexadecimal  [32-Bits]

Area                                    Addr        Size        Decimal Bytes (Attributes)
--------------------------------        ----        ----        ------- ----- ------------
_CODE                               00000200    0000438F =       17295. bytes (REL,CON)

      Value  Global                              Global Defined In Module
      -----  --------------------------------   ------------------------
     000022B3  C$scripter.c$129$3$75              scripter
     000022B5  A$scripter$752                     scripter
     000022B5  C$scripter.c$131$2$74              scripter
     000022B5  C$scripter.c$132$2$74              scripter
     000022B8  A$scripter$753                     scripter
     000022BA  A$scripter$754                     scripter
     000022BD  A$scripter$755                     scripter
     000022C0  A$scripter$756                     scripter
     000022C2  A$scripter$757                     scripter
     000022C5  A$scripter$761                     scripter
     000022C5  C$scripter.c$133$2$74              scripter
     000022C6  A$scripter$762                     scripter
     000022C7  A$scripter$763                     scripter
     000022C8  A$scripter$764                     scripter
     000022C9  A$scripter$765                     scripter
     000022CA  A$scripter$766                     scripter
     000022CB  A$scripter$767                     scripter
     000022CC  A$scripter$768                     scripter
     000022CD  A$scripter$769                     scripter
     000022CE  A$scripter$770                     scripter
     000022CF  A$scripter$771                     scripter
     000022D0  A$scripter$772                     scripter
     000022D1  A$scripter$773                     scripter
     000022D2  A$scripter$774                     scripter
     000022D3  A$scripter$775                     scripter
     000022D4  A$scripter$776                     scripter
     000022D7  A$scripter$778                     scripter
     000022D9  A$scripter$779                     scripter
     000022DB  A$scripter$784                     scripter
     000022DB  C$scripter.c$135$1$73              scripter
     000022DB  XG$UpdateScript$0$0                scripter
     000022DC  A$scripter$797                     scripter
     000022DC  C$scripter.c$138$1$73              scripter
     000022DC  C$scripter.c$143$1$79              scripter
     000022DC  G$UpdateScripts$0$0                scripter
     000022DC  _UpdateScripts                     scripter
     000022DE  A$scripter$798                     scripter
     000022DF  A$scripter$799                     scripter
     000022E0  A$scripter$800                     scripter
     000022E3  A$scripter$801                     scripter
     000022E4  A$scripter$805                     scripter
     000022E4  C$scripter.c$146$1$79              scripter
     000022E8  A$scripter$806                     scripter
     000022EB  A$scripter$807                     scripter
     000022EC  A$scripter$808                     scripter
     000022ED  A$scripter$812                     scripter
     000022F0  A$scripter$813                     scripter
     000022F1  A$scripter$815                     scripter
     000022F3  A$scripter$816                     scripter
     000022F4  A$scripter$820                     scripter
     000022F4  C$scripter.c$149$3$81              scripter
ASxxxx Linker V03.00 + NoICE + sdld,  page 106.
Hexadecimal  [32-Bits]

Area                                    Addr        Size        Decimal Bytes (Attributes)
--------------------------------        ----        ----        ------- ----- ------------
_CODE                               00000200    0000438F =       17295. bytes (REL,CON)

      Value  Global                              Global Defined In Module
      -----  --------------------------------   ------------------------
     000022F5  A$scripter$821                     scripter
     000022F6  A$scripter$822                     scripter
     000022F7  A$scripter$823                     scripter
     000022FA  A$scripter$824                     scripter
     000022FB  A$scripter$825                     scripter
     000022FC  A$scripter$829                     scripter
     000022FC  C$scripter.c$147$2$80              scripter
     000022FD  A$scripter$834                     scripter
     000022FD  C$scripter.c$151$1$79              scripter
     000022FD  XG$UpdateScripts$0$0               scripter
     000022FF  A$scroller$60                      scroller
     000022FF  C$scroller.c$7$0$0                 scroller
     000022FF  C$scroller.c$9$1$26                scroller
     000022FF  G$InitScroller$0$0                 scroller
     000022FF  _InitScroller                      scroller
     00002302  A$scroller$61                      scroller
     00002304  A$scroller$65                      scroller
     00002304  C$scroller.c$10$1$26               scroller
     00002307  A$scroller$66                      scroller
     00002309  A$scroller$70                      scroller
     00002309  C$scroller.c$11$1$26               scroller
     0000230C  A$scroller$71                      scroller
     0000230E  A$scroller$75                      scroller
     0000230E  C$scroller.c$12$1$26               scroller
     00002311  A$scroller$76                      scroller
     00002313  A$scroller$80                      scroller
     00002313  C$scroller.c$13$1$26               scroller
     00002316  A$scroller$81                      scroller
     00002318  A$scroller$85                      scroller
     00002318  C$scroller.c$14$1$26               scroller
     0000231B  A$scroller$86                      scroller
     0000231E  A$scroller$91                      scroller
     0000231E  C$scroller.c$15$1$26               scroller
     0000231E  XG$InitScroller$0$0                scroller
     0000231F  A$scroller$104                     scroller
     0000231F  C$scroller.c$17$1$26               scroller
     0000231F  C$scroller.c$19$1$28               scroller
     0000231F  G$AddScrollers$0$0                 scroller
     0000231F  _AddScrollers                      scroller
     00002322  A$scroller$105                     scroller
     00002323  A$scroller$106                     scroller
     00002324  A$scroller$107                     scroller
     00002327  A$scroller$108                     scroller
     0000232A  A$scroller$109                     scroller
     0000232B  A$scroller$110                     scroller
     0000232C  A$scroller$111                     scroller
     0000232F  A$scroller$115                     scroller
     0000232F  C$scroller.c$20$1$28               scroller
     00002332  A$scroller$116                     scroller
     00002333  A$scroller$117                     scroller
     00002334  A$scroller$118                     scroller
ASxxxx Linker V03.00 + NoICE + sdld,  page 107.
Hexadecimal  [32-Bits]

Area                                    Addr        Size        Decimal Bytes (Attributes)
--------------------------------        ----        ----        ------- ----- ------------
_CODE                               00000200    0000438F =       17295. bytes (REL,CON)

      Value  Global                              Global Defined In Module
      -----  --------------------------------   ------------------------
     00002337  A$scroller$123                     scroller
     00002337  C$scroller.c$21$1$28               scroller
     00002337  XG$AddScrollers$0$0                scroller
     00002338  A$scroller$133                     scroller
     00002338  C$scroller.c$23$1$28               scroller
     00002338  G$UpdateScroller$0$0               scroller
     00002338  _UpdateScroller                    scroller
     0000233A  A$scroller$134                     scroller
     0000233E  A$scroller$135                     scroller
     00002340  A$scroller$136                     scroller
     00002341  A$scroller$140                     scroller
     00002341  C$scroller.c$27$1$29               scroller
     00002344  A$scroller$141                     scroller
     00002345  A$scroller$142                     scroller
     00002348  A$scroller$146                     scroller
     00002348  C$scroller.c$30$2$30               scroller
     0000234A  A$scroller$147                     scroller
     0000234B  A$scroller$148                     scroller
     0000234C  A$scroller$149                     scroller
     0000234F  A$scroller$150                     scroller
     00002350  A$scroller$154                     scroller
     00002350  C$scroller.c$33$2$30               scroller
     00002354  A$scroller$155                     scroller
     00002356  A$scroller$156                     scroller
     00002357  A$scroller$157                     scroller
     00002358  A$scroller$158                     scroller
     00002359  A$scroller$159                     scroller
     0000235A  A$scroller$160                     scroller
     0000235B  A$scroller$161                     scroller
     0000235C  A$scroller$162                     scroller
     0000235D  A$scroller$163                     scroller
     0000235E  A$scroller$164                     scroller
     00002361  A$scroller$165                     scroller
     00002362  A$scroller$166                     scroller
     00002363  A$scroller$167                     scroller
     00002364  A$scroller$171                     scroller
     00002364  C$scroller.c$36$2$30               scroller
     00002367  A$scroller$172                     scroller
     00002368  A$scroller$173                     scroller
     0000236A  A$scroller$177                     scroller
     0000236A  C$scroller.c$38$3$31               scroller
     0000236B  A$scroller$178                     scroller
     0000236C  A$scroller$179                     scroller
     0000236F  A$scroller$180                     scroller
     00002370  A$scroller$181                     scroller
     00002371  A$scroller$182                     scroller
     00002372  A$scroller$183                     scroller
     00002373  A$scroller$184                     scroller
     00002377  A$scroller$185                     scroller
     0000237A  A$scroller$186                     scroller
     0000237D  A$scroller$187                     scroller
ASxxxx Linker V03.00 + NoICE + sdld,  page 108.
Hexadecimal  [32-Bits]

Area                                    Addr        Size        Decimal Bytes (Attributes)
--------------------------------        ----        ----        ------- ----- ------------
_CODE                               00000200    0000438F =       17295. bytes (REL,CON)

      Value  Global                              Global Defined In Module
      -----  --------------------------------   ------------------------
     0000237E  A$scroller$188                     scroller
     0000237F  A$scroller$189                     scroller
     00002380  A$scroller$190                     scroller
     00002381  A$scroller$191                     scroller
     00002382  A$scroller$192                     scroller
     00002383  A$scroller$193                     scroller
     00002384  A$scroller$194                     scroller
     00002387  A$scroller$195                     scroller
     00002389  A$scroller$197                     scroller
     0000238C  A$scroller$198                     scroller
     0000238E  A$scroller$199                     scroller
     00002390  A$scroller$201                     scroller
     00002391  A$scroller$202                     scroller
     00002392  A$scroller$203                     scroller
     00002393  A$scroller$204                     scroller
     00002394  A$scroller$205                     scroller
     00002397  A$scroller$206                     scroller
     00002399  A$scroller$208                     scroller
     0000239C  A$scroller$209                     scroller
     0000239E  A$scroller$210                     scroller
     000023A0  A$scroller$212                     scroller
     000023A2  A$scroller$215                     scroller
     000023A5  A$scroller$216                     scroller
     000023A6  A$scroller$217                     scroller
     000023A7  A$scroller$218                     scroller
     000023A8  A$scroller$222                     scroller
     000023A8  C$scroller.c$39$3$31               scroller
     000023A9  A$scroller$223                     scroller
     000023AA  A$scroller$224                     scroller
     000023AD  A$scroller$225                     scroller
     000023AE  A$scroller$226                     scroller
     000023AF  A$scroller$227                     scroller
     000023B0  A$scroller$228                     scroller
     000023B1  A$scroller$229                     scroller
     000023B5  A$scroller$230                     scroller
     000023B8  A$scroller$231                     scroller
     000023BB  A$scroller$232                     scroller
     000023BC  A$scroller$233                     scroller
     000023BD  A$scroller$234                     scroller
     000023BE  A$scroller$235                     scroller
     000023BF  A$scroller$236                     scroller
     000023C0  A$scroller$237                     scroller
     000023C1  A$scroller$238                     scroller
     000023C2  A$scroller$239                     scroller
     000023C5  A$scroller$240                     scroller
     000023C7  A$scroller$242                     scroller
     000023CA  A$scroller$243                     scroller
     000023CC  A$scroller$244                     scroller
     000023CE  A$scroller$246                     scroller
     000023CF  A$scroller$247                     scroller
     000023D0  A$scroller$248                     scroller
ASxxxx Linker V03.00 + NoICE + sdld,  page 109.
Hexadecimal  [32-Bits]

Area                                    Addr        Size        Decimal Bytes (Attributes)
--------------------------------        ----        ----        ------- ----- ------------
_CODE                               00000200    0000438F =       17295. bytes (REL,CON)

      Value  Global                              Global Defined In Module
      -----  --------------------------------   ------------------------
     000023D1  A$scroller$249                     scroller
     000023D2  A$scroller$250                     scroller
     000023D5  A$scroller$251                     scroller
     000023D7  A$scroller$253                     scroller
     000023DA  A$scroller$254                     scroller
     000023DC  A$scroller$255                     scroller
     000023DE  A$scroller$257                     scroller
     000023E0  A$scroller$260                     scroller
     000023E3  A$scroller$261                     scroller
     000023E4  A$scroller$262                     scroller
     000023E5  A$scroller$263                     scroller
     000023E6  A$scroller$268                     scroller
     000023E6  C$scroller.c$43$2$30               scroller
     000023EA  A$scroller$269                     scroller
     000023ED  A$scroller$270                     scroller
     000023F0  A$scroller$271                     scroller
     000023F3  A$scroller$272                     scroller
     000023F4  A$scroller$273                     scroller
     000023F5  A$scroller$274                     scroller
     000023F8  A$scroller$275                     scroller
     000023FC  A$scroller$276                     scroller
     000023FF  A$scroller$277                     scroller
     00002402  A$scroller$278                     scroller
     00002403  A$scroller$279                     scroller
     00002406  A$scroller$280                     scroller
     00002409  A$scroller$281                     scroller
     0000240A  A$scroller$282                     scroller
     0000240B  A$scroller$283                     scroller
     0000240C  A$scroller$284                     scroller
     0000240D  A$scroller$285                     scroller
     0000240E  A$scroller$286                     scroller
     0000240F  A$scroller$287                     scroller
     00002410  A$scroller$288                     scroller
     00002411  A$scroller$289                     scroller
     00002412  A$scroller$290                     scroller
     00002413  A$scroller$291                     scroller
     00002414  A$scroller$292                     scroller
     00002417  A$scroller$293                     scroller
     00002419  A$scroller$295                     scroller
     0000241C  A$scroller$299                     scroller
     0000241C  C$scroller.c$45$3$32               scroller
     0000241F  A$scroller$300                     scroller
     00002420  A$scroller$301                     scroller
     00002421  A$scroller$302                     scroller
     00002422  A$scroller$303                     scroller
     00002423  A$scroller$304                     scroller
     00002426  A$scroller$305                     scroller
     00002427  A$scroller$306                     scroller
     00002428  A$scroller$307                     scroller
     00002429  A$scroller$308                     scroller
     0000242A  A$scroller$309                     scroller
ASxxxx Linker V03.00 + NoICE + sdld,  page 110.
Hexadecimal  [32-Bits]

Area                                    Addr        Size        Decimal Bytes (Attributes)
--------------------------------        ----        ----        ------- ----- ------------
_CODE                               00000200    0000438F =       17295. bytes (REL,CON)

      Value  Global                              Global Defined In Module
      -----  --------------------------------   ------------------------
     0000242B  A$scroller$310                     scroller
     0000242C  A$scroller$311                     scroller
     0000242D  A$scroller$315                     scroller
     0000242D  C$scroller.c$46$3$32               scroller
     00002430  A$scroller$316                     scroller
     00002431  A$scroller$317                     scroller
     00002432  A$scroller$318                     scroller
     00002433  A$scroller$319                     scroller
     00002434  A$scroller$320                     scroller
     00002435  A$scroller$321                     scroller
     00002436  A$scroller$322                     scroller
     00002437  A$scroller$326                     scroller
     00002437  C$scroller.c$48$3$32               scroller
     0000243B  A$scroller$327                     scroller
     0000243E  A$scroller$328                     scroller
     00002440  A$scroller$329                     scroller
     00002443  A$scroller$334                     scroller
     00002443  C$scroller.c$49$3$32               scroller
     00002444  A$scroller$335                     scroller
     00002445  A$scroller$336                     scroller
     00002446  A$scroller$337                     scroller
     00002447  A$scroller$338                     scroller
     00002448  A$scroller$339                     scroller
     00002449  A$scroller$340                     scroller
     0000244A  A$scroller$341                     scroller
     0000244D  A$scroller$342                     scroller
     0000244E  A$scroller$343                     scroller
     00002450  A$scroller$344                     scroller
     00002453  A$scroller$345                     scroller
     00002454  A$scroller$346                     scroller
     00002456  A$scroller$350                     scroller
     00002456  C$scroller.c$51$4$33               scroller
     00002459  A$scroller$351                     scroller
     0000245C  A$scroller$355                     scroller
     0000245C  C$scroller.c$52$4$33               scroller
     00002460  A$scroller$356                     scroller
     00002463  A$scroller$360                     scroller
     00002463  C$scroller.c$53$4$33               scroller
     00002466  A$scroller$361                     scroller
     00002469  A$scroller$362                     scroller
     0000246A  A$scroller$363                     scroller
     0000246C  A$scroller$367                     scroller
     0000246C  C$scroller.c$54$4$33               scroller
     0000246F  A$scroller$368                     scroller
     00002471  A$scroller$373                     scroller
     00002471  C$scroller.c$58$2$30               scroller
     00002472  A$scroller$374                     scroller
     00002475  A$scroller$375                     scroller
     00002476  A$scroller$376                     scroller
     00002478  A$scroller$377                     scroller
     0000247B  A$scroller$378                     scroller
ASxxxx Linker V03.00 + NoICE + sdld,  page 111.
Hexadecimal  [32-Bits]

Area                                    Addr        Size        Decimal Bytes (Attributes)
--------------------------------        ----        ----        ------- ----- ------------
_CODE                               00000200    0000438F =       17295. bytes (REL,CON)

      Value  Global                              Global Defined In Module
      -----  --------------------------------   ------------------------
     0000247C  A$scroller$379                     scroller
     00002480  A$scroller$380                     scroller
     00002483  A$scroller$381                     scroller
     00002486  A$scroller$382                     scroller
     00002487  A$scroller$383                     scroller
     00002488  A$scroller$384                     scroller
     00002489  A$scroller$385                     scroller
     0000248A  A$scroller$386                     scroller
     0000248B  A$scroller$387                     scroller
     0000248E  A$scroller$388                     scroller
     0000248F  A$scroller$389                     scroller
     00002490  A$scroller$391                     scroller
     00002492  A$scroller$392                     scroller
     00002494  A$scroller$397                     scroller
     00002494  C$scroller.c$60$1$29               scroller
     00002494  XG$UpdateScroller$0$0              scroller
     00002495  A$scroller$410                     scroller
     00002495  C$scroller.c$62$1$29               scroller
     00002495  C$scroller.c$64$1$34               scroller
     00002495  G$updatescrollact$0$0              scroller
     00002495  _updatescrollact                   scroller
     00002498  A$scroller$411                     scroller
     00002499  A$scroller$415                     scroller
     00002499  C$scroller.c$65$1$34               scroller
     0000249C  A$scroller$416                     scroller
     0000249F  A$scroller$421                     scroller
     0000249F  C$scroller.c$66$1$34               scroller
     0000249F  XG$updatescrollact$0$0             scroller
     000024A0  A$selectorstage$69                 selectorstage
     000024A0  C$selectorstage.c$10$0$0           selectorstage
     000024A0  G$UpdateSelectorMarks$0$0          selectorstage
     000024A0  _UpdateSelectorMarks               selectorstage
     000024A2  A$selectorstage$70                 selectorstage
     000024A6  A$selectorstage$71                 selectorstage
     000024A8  A$selectorstage$72                 selectorstage
     000024A9  A$selectorstage$73                 selectorstage
     000024AA  A$selectorstage$74                 selectorstage
     000024AB  A$selectorstage$78                 selectorstage
     000024AB  C$selectorstage.c$18$1$48          selectorstage
     000024AD  A$selectorstage$79                 selectorstage
     000024AE  A$selectorstage$80                 selectorstage
     000024AF  A$selectorstage$81                 selectorstage
     000024B2  A$selectorstage$82                 selectorstage
     000024B3  A$selectorstage$86                 selectorstage
     000024B3  C$selectorstage.c$21$5$52          selectorstage
     000024B7  A$selectorstage$91                 selectorstage
     000024B7  C$selectorstage.c$24$3$50          selectorstage
     000024BA  A$selectorstage$92                 selectorstage
     000024BB  A$selectorstage$93                 selectorstage
     000024BC  A$selectorstage$94                 selectorstage
     000024BD  A$selectorstage$95                 selectorstage
ASxxxx Linker V03.00 + NoICE + sdld,  page 112.
Hexadecimal  [32-Bits]

Area                                    Addr        Size        Decimal Bytes (Attributes)
--------------------------------        ----        ----        ------- ----- ------------
_CODE                               00000200    0000438F =       17295. bytes (REL,CON)

      Value  Global                              Global Defined In Module
      -----  --------------------------------   ------------------------
     000024BE  A$selectorstage$96                 selectorstage
     000024BF  A$selectorstage$97                 selectorstage
     000024C0  A$selectorstage$101                selectorstage
     000024C0  C$selectorstage.c$25$5$52          selectorstage
     000024C3  A$selectorstage$102                selectorstage
     000024C6  A$selectorstage$103                selectorstage
     000024C8  A$selectorstage$104                selectorstage
     000024CA  A$selectorstage$105                selectorstage
     000024CC  A$selectorstage$107                selectorstage
     000024CD  A$selectorstage$109                selectorstage
     000024CE  A$selectorstage$110                selectorstage
     000024D0  A$selectorstage$115                selectorstage
     000024D0  C$selectorstage.c$27$5$52          selectorstage
     000024D3  A$selectorstage$116                selectorstage
     000024D5  A$selectorstage$117                selectorstage
     000024D6  A$selectorstage$118                selectorstage
     000024D7  A$selectorstage$119                selectorstage
     000024D9  A$selectorstage$120                selectorstage
     000024DA  A$selectorstage$121                selectorstage
     000024DB  A$selectorstage$122                selectorstage
     000024DD  A$selectorstage$123                selectorstage
     000024DF  A$selectorstage$124                selectorstage
     000024E0  A$selectorstage$125                selectorstage
     000024E1  A$selectorstage$126                selectorstage
     000024E2  A$selectorstage$127                selectorstage
     000024E3  A$selectorstage$128                selectorstage
     000024E4  A$selectorstage$129                selectorstage
     000024E5  A$selectorstage$130                selectorstage
     000024E6  A$selectorstage$131                selectorstage
     000024E7  A$selectorstage$132                selectorstage
     000024EA  A$selectorstage$133                selectorstage
     000024EB  A$selectorstage$134                selectorstage
     000024EC  A$selectorstage$135                selectorstage
     000024ED  A$selectorstage$139                selectorstage
     000024ED  C$selectorstage.c$28$5$52          selectorstage
     000024EE  A$selectorstage$140                selectorstage
     000024EF  A$selectorstage$141                selectorstage
     000024F1  A$selectorstage$142                selectorstage
     000024F4  A$selectorstage$143                selectorstage
     000024F6  A$selectorstage$144                selectorstage
     000024F7  A$selectorstage$145                selectorstage
     000024F8  A$selectorstage$146                selectorstage
     000024FA  A$selectorstage$148                selectorstage
     000024FC  A$selectorstage$150                selectorstage
     000024FD  A$selectorstage$151                selectorstage
     000024FE  A$selectorstage$152                selectorstage
     000024FF  A$selectorstage$153                selectorstage
     00002500  A$selectorstage$154                selectorstage
     00002503  A$selectorstage$155                selectorstage
     00002504  A$selectorstage$156                selectorstage
     00002505  A$selectorstage$157                selectorstage
ASxxxx Linker V03.00 + NoICE + sdld,  page 113.
Hexadecimal  [32-Bits]

Area                                    Addr        Size        Decimal Bytes (Attributes)
--------------------------------        ----        ----        ------- ----- ------------
_CODE                               00000200    0000438F =       17295. bytes (REL,CON)

      Value  Global                              Global Defined In Module
      -----  --------------------------------   ------------------------
     00002506  A$selectorstage$161                selectorstage
     00002506  C$selectorstage.c$25$4$51          selectorstage
     00002507  A$selectorstage$162                selectorstage
     00002508  A$selectorstage$163                selectorstage
     0000250A  A$selectorstage$164                selectorstage
     0000250C  A$selectorstage$168                selectorstage
     0000250C  C$selectorstage.c$32$3$50          selectorstage
     0000250E  A$selectorstage$169                selectorstage
     00002511  A$selectorstage$170                selectorstage
     00002512  A$selectorstage$171                selectorstage
     00002514  A$selectorstage$172                selectorstage
     00002516  A$selectorstage$173                selectorstage
     00002517  A$selectorstage$174                selectorstage
     00002518  A$selectorstage$178                selectorstage
     00002518  C$selectorstage.c$35$5$54          selectorstage
     0000251B  A$selectorstage$179                selectorstage
     0000251C  A$selectorstage$180                selectorstage
     0000251D  A$selectorstage$181                selectorstage
     0000251E  A$selectorstage$182                selectorstage
     0000251F  A$selectorstage$183                selectorstage
     00002521  A$selectorstage$184                selectorstage
     00002524  A$selectorstage$185                selectorstage
     00002528  A$selectorstage$190                selectorstage
     00002528  C$selectorstage.c$37$5$54          selectorstage
     0000252B  A$selectorstage$191                selectorstage
     0000252D  A$selectorstage$192                selectorstage
     0000252E  A$selectorstage$193                selectorstage
     0000252F  A$selectorstage$194                selectorstage
     00002530  A$selectorstage$195                selectorstage
     00002531  A$selectorstage$196                selectorstage
     00002534  A$selectorstage$197                selectorstage
     00002535  A$selectorstage$198                selectorstage
     00002536  A$selectorstage$199                selectorstage
     00002539  A$selectorstage$200                selectorstage
     0000253A  A$selectorstage$201                selectorstage
     0000253B  A$selectorstage$205                selectorstage
     0000253B  C$selectorstage.c$38$1$48          selectorstage
     0000253E  A$selectorstage$206                selectorstage
     00002542  A$selectorstage$211                selectorstage
     00002542  C$selectorstage.c$39$6$55          selectorstage
     00002545  A$selectorstage$212                selectorstage
     00002548  A$selectorstage$213                selectorstage
     00002549  A$selectorstage$214                selectorstage
     0000254A  A$selectorstage$215                selectorstage
     0000254D  A$selectorstage$216                selectorstage
     0000254E  A$selectorstage$220                selectorstage
     0000254E  C$selectorstage.c$38$6$55          selectorstage
     00002551  A$selectorstage$221                selectorstage
     00002554  A$selectorstage$222                selectorstage
     00002556  A$selectorstage$223                selectorstage
     00002558  A$selectorstage$227                selectorstage
ASxxxx Linker V03.00 + NoICE + sdld,  page 114.
Hexadecimal  [32-Bits]

Area                                    Addr        Size        Decimal Bytes (Attributes)
--------------------------------        ----        ----        ------- ----- ------------
_CODE                               00000200    0000438F =       17295. bytes (REL,CON)

      Value  Global                              Global Defined In Module
      -----  --------------------------------   ------------------------
     00002558  C$selectorstage.c$40$5$54          selectorstage
     0000255B  A$selectorstage$228                selectorstage
     0000255C  A$selectorstage$229                selectorstage
     0000255D  A$selectorstage$230                selectorstage
     0000255E  A$selectorstage$231                selectorstage
     0000255F  A$selectorstage$235                selectorstage
     0000255F  C$selectorstage.c$35$4$53          selectorstage
     00002562  A$selectorstage$236                selectorstage
     00002565  A$selectorstage$237                selectorstage
     00002567  A$selectorstage$238                selectorstage
     00002569  A$selectorstage$242                selectorstage
     00002569  C$selectorstage.c$21$2$49          selectorstage
     0000256C  A$selectorstage$243                selectorstage
     0000256F  A$selectorstage$244                selectorstage
     00002571  A$selectorstage$245                selectorstage
     00002574  A$selectorstage$249                selectorstage
     00002574  C$selectorstage.c$45$1$48          selectorstage
     00002577  A$selectorstage$250                selectorstage
     00002579  A$selectorstage$251                selectorstage
     0000257A  A$selectorstage$252                selectorstage
     0000257D  A$selectorstage$253                selectorstage
     0000257E  A$selectorstage$254                selectorstage
     0000257F  A$selectorstage$255                selectorstage
     00002580  A$selectorstage$256                selectorstage
     00002581  A$selectorstage$257                selectorstage
     00002584  A$selectorstage$258                selectorstage
     00002585  A$selectorstage$259                selectorstage
     00002586  A$selectorstage$260                selectorstage
     00002589  A$selectorstage$261                selectorstage
     0000258B  A$selectorstage$262                selectorstage
     0000258D  A$selectorstage$267                selectorstage
     0000258D  C$selectorstage.c$46$1$48          selectorstage
     0000258D  XG$UpdateSelectorMarks$0$0         selectorstage
     0000258E  A$selectorstage$283                selectorstage
     0000258E  C$selectorstage.c$48$1$48          selectorstage
     0000258E  C$selectorstage.c$50$1$48          selectorstage
     0000258E  C$selectorstage.c$51$1$48          selectorstage
     0000258E  G$InitSelectorStage$0$0            selectorstage
     0000258E  _InitSelectorStage                 selectorstage
     00002591  A$selectorstage$287                selectorstage
     00002591  C$selectorstage.c$54$1$56          selectorstage
     00002592  A$selectorstage$288                selectorstage
     00002595  A$selectorstage$289                selectorstage
     00002598  A$selectorstage$290                selectorstage
     0000259A  A$selectorstage$291                selectorstage
     0000259B  A$selectorstage$292                selectorstage
     0000259C  A$selectorstage$293                selectorstage
     0000259F  A$selectorstage$294                selectorstage
     000025A0  A$selectorstage$295                selectorstage
     000025A3  A$selectorstage$296                selectorstage
     000025A4  A$selectorstage$297                selectorstage
ASxxxx Linker V03.00 + NoICE + sdld,  page 115.
Hexadecimal  [32-Bits]

Area                                    Addr        Size        Decimal Bytes (Attributes)
--------------------------------        ----        ----        ------- ----- ------------
_CODE                               00000200    0000438F =       17295. bytes (REL,CON)

      Value  Global                              Global Defined In Module
      -----  --------------------------------   ------------------------
     000025A5  A$selectorstage$298                selectorstage
     000025A7  A$selectorstage$299                selectorstage
     000025A8  A$selectorstage$300                selectorstage
     000025A9  A$selectorstage$301                selectorstage
     000025AC  A$selectorstage$302                selectorstage
     000025AD  A$selectorstage$303                selectorstage
     000025B0  A$selectorstage$304                selectorstage
     000025B1  A$selectorstage$305                selectorstage
     000025B4  A$selectorstage$306                selectorstage
     000025B5  A$selectorstage$307                selectorstage
     000025B8  A$selectorstage$308                selectorstage
     000025B9  A$selectorstage$309                selectorstage
     000025BC  A$selectorstage$310                selectorstage
     000025BD  A$selectorstage$311                selectorstage
     000025BE  A$selectorstage$312                selectorstage
     000025C1  A$selectorstage$313                selectorstage
     000025C4  A$selectorstage$314                selectorstage
     000025C5  A$selectorstage$315                selectorstage
     000025C8  A$selectorstage$316                selectorstage
     000025C9  A$selectorstage$317                selectorstage
     000025CC  A$selectorstage$318                selectorstage
     000025CD  A$selectorstage$319                selectorstage
     000025CE  A$selectorstage$320                selectorstage
     000025CF  A$selectorstage$328                selectorstage
     000025CF  C$selectorstage.c$75$1$56          selectorstage
     000025CF  C$selectorstage.c$78$2$57          selectorstage
     000025D0  A$selectorstage$329                selectorstage
     000025D3  A$selectorstage$330                selectorstage
     000025D4  A$selectorstage$334                selectorstage
     000025D4  C$selectorstage.c$81$2$57          selectorstage
     000025D5  A$selectorstage$335                selectorstage
     000025D6  A$selectorstage$336                selectorstage
     000025D7  A$selectorstage$337                selectorstage
     000025D8  A$selectorstage$338                selectorstage
     000025DB  A$selectorstage$339                selectorstage
     000025DC  A$selectorstage$340                selectorstage
     000025DF  A$selectorstage$341                selectorstage
     000025E0  A$selectorstage$342                selectorstage
     000025E1  A$selectorstage$343                selectorstage
     000025E2  A$selectorstage$344                selectorstage
     000025E6  A$selectorstage$345                selectorstage
     000025E9  A$selectorstage$346                selectorstage
     000025EA  A$selectorstage$347                selectorstage
     000025EB  A$selectorstage$348                selectorstage
     000025EE  A$selectorstage$349                selectorstage
     000025EF  A$selectorstage$350                selectorstage
     000025F1  A$selectorstage$354                selectorstage
     000025F1  C$selectorstage.c$86$3$58          selectorstage
     000025F3  A$selectorstage$358                selectorstage
     000025F3  C$selectorstage.c$87$3$58          selectorstage
     000025F4  A$selectorstage$359                selectorstage
ASxxxx Linker V03.00 + NoICE + sdld,  page 116.
Hexadecimal  [32-Bits]

Area                                    Addr        Size        Decimal Bytes (Attributes)
--------------------------------        ----        ----        ------- ----- ------------
_CODE                               00000200    0000438F =       17295. bytes (REL,CON)

      Value  Global                              Global Defined In Module
      -----  --------------------------------   ------------------------
     000025F5  A$selectorstage$360                selectorstage
     000025F7  A$selectorstage$364                selectorstage
     000025F7  C$selectorstage.c$88$3$58          selectorstage
     000025F8  A$selectorstage$369                selectorstage
     000025F8  C$selectorstage.c$89$3$58          selectorstage
     000025FA  A$selectorstage$370                selectorstage
     000025FC  A$selectorstage$375                selectorstage
     000025FC  C$selectorstage.c$93$2$57          selectorstage
     000025FD  A$selectorstage$376                selectorstage
     00002600  A$selectorstage$377                selectorstage
     00002601  A$selectorstage$378                selectorstage
     00002602  A$selectorstage$379                selectorstage
     00002603  A$selectorstage$380                selectorstage
     00002607  A$selectorstage$381                selectorstage
     0000260A  A$selectorstage$382                selectorstage
     0000260B  A$selectorstage$383                selectorstage
     0000260C  A$selectorstage$384                selectorstage
     0000260F  A$selectorstage$385                selectorstage
     00002610  A$selectorstage$386                selectorstage
     00002612  A$selectorstage$390                selectorstage
     00002612  C$selectorstage.c$95$3$59          selectorstage
     00002614  A$selectorstage$394                selectorstage
     00002614  C$selectorstage.c$96$3$59          selectorstage
     00002615  A$selectorstage$395                selectorstage
     00002617  A$selectorstage$396                selectorstage
     00002619  A$selectorstage$400                selectorstage
     00002619  C$selectorstage.c$97$3$59          selectorstage
     0000261A  A$selectorstage$405                selectorstage
     0000261A  C$selectorstage.c$98$3$59          selectorstage
     0000261C  A$selectorstage$406                selectorstage
     0000261E  A$selectorstage$411                selectorstage
     0000261E  C$selectorstage.c$101$2$57         selectorstage
     00002620  A$selectorstage$416                selectorstage
     00002620  C$selectorstage.c$104$2$57         selectorstage
     00002621  A$selectorstage$417                selectorstage
     00002624  A$selectorstage$418                selectorstage
     00002625  A$selectorstage$419                selectorstage
     00002626  A$selectorstage$420                selectorstage
     00002627  A$selectorstage$421                selectorstage
     0000262B  A$selectorstage$422                selectorstage
     0000262E  A$selectorstage$423                selectorstage
     0000262F  A$selectorstage$424                selectorstage
     00002630  A$selectorstage$425                selectorstage
     00002633  A$selectorstage$426                selectorstage
     00002634  A$selectorstage$427                selectorstage
     00002636  A$selectorstage$431                selectorstage
     00002636  C$selectorstage.c$106$3$60         selectorstage
     00002639  A$selectorstage$432                selectorstage
     0000263A  A$selectorstage$439                selectorstage
     0000263A  C$selectorstage.c$107$3$60         selectorstage
     0000263A  C$selectorstage.c$108$3$60         selectorstage
ASxxxx Linker V03.00 + NoICE + sdld,  page 117.
Hexadecimal  [32-Bits]

Area                                    Addr        Size        Decimal Bytes (Attributes)
--------------------------------        ----        ----        ------- ----- ------------
_CODE                               00000200    0000438F =       17295. bytes (REL,CON)

      Value  Global                              Global Defined In Module
      -----  --------------------------------   ------------------------
     0000263D  A$selectorstage$444                selectorstage
     0000263D  C$selectorstage.c$112$2$57         selectorstage
     0000263E  A$selectorstage$445                selectorstage
     00002641  A$selectorstage$446                selectorstage
     00002642  A$selectorstage$451                selectorstage
     00002642  C$selectorstage.c$114$1$56         selectorstage
     00002642  XG$InitSelectorStage$0$0           selectorstage
     00002644  Fselectorstage$__str_0$0$0         selectorstage
     00002659  A$skullbone$59                     skullbone
     00002659  C$skullbone.c$3$0$0                skullbone
     00002659  C$skullbone.c$5$0$0                skullbone
     00002659  G$skullbone_foo$0$0                skullbone
     00002659  XG$skullbone_foo$0$0               skullbone
     00002659  _skullbone_foo                     skullbone
     0000265A  A$spreadship$59                    spreadship
     0000265A  C$spreadship.c$3$0$0               spreadship
     0000265A  C$spreadship.c$5$0$0               spreadship
     0000265A  G$spreadship_foo$0$0               spreadship
     0000265A  XG$spreadship_foo$0$0              spreadship
     0000265A  _spreadship_foo                    spreadship
     0000265B  A$timeredlabel$64                  timeredlabel
     0000265B  C$timeredlabel.c$12$1$71           timeredlabel
     0000265B  C$timeredlabel.c$7$0$0             timeredlabel
     0000265B  G$ClearTimeredLabelLine$0$0        timeredlabel
     0000265B  _ClearTimeredLabelLine             timeredlabel
     0000265E  A$timeredlabel$65                  timeredlabel
     0000265F  A$timeredlabel$66                  timeredlabel
     00002660  A$timeredlabel$67                  timeredlabel
     00002661  A$timeredlabel$68                  timeredlabel
     00002662  A$timeredlabel$69                  timeredlabel
     00002663  A$timeredlabel$70                  timeredlabel
     00002664  A$timeredlabel$71                  timeredlabel
     00002665  A$timeredlabel$72                  timeredlabel
     00002668  A$timeredlabel$73                  timeredlabel
     00002669  A$timeredlabel$77                  timeredlabel
     0000266B  A$timeredlabel$82                  timeredlabel
     0000266B  C$timeredlabel.c$14$2$72           timeredlabel
     0000266C  A$timeredlabel$83                  timeredlabel
     0000266D  A$timeredlabel$84                  timeredlabel
     0000266E  A$timeredlabel$85                  timeredlabel
     0000266F  A$timeredlabel$86                  timeredlabel
     00002672  A$timeredlabel$87                  timeredlabel
     00002673  A$timeredlabel$88                  timeredlabel
     00002674  A$timeredlabel$92                  timeredlabel
     00002674  C$timeredlabel.c$13$2$72           timeredlabel
     00002675  A$timeredlabel$93                  timeredlabel
     00002676  A$timeredlabel$94                  timeredlabel
     00002678  A$timeredlabel$95                  timeredlabel
     0000267A  A$timeredlabel$100                 timeredlabel
     0000267A  C$timeredlabel.c$15$2$72           timeredlabel
     0000267A  XG$ClearTimeredLabelLine$0$0       timeredlabel
ASxxxx Linker V03.00 + NoICE + sdld,  page 118.
Hexadecimal  [32-Bits]

Area                                    Addr        Size        Decimal Bytes (Attributes)
--------------------------------        ----        ----        ------- ----- ------------
_CODE                               00000200    0000438F =       17295. bytes (REL,CON)

      Value  Global                              Global Defined In Module
      -----  --------------------------------   ------------------------
     0000267B  A$timeredlabel$110                 timeredlabel
     0000267B  C$timeredlabel.c$18$2$72           timeredlabel
     0000267B  G$RemoveTimeredLabel$0$0           timeredlabel
     0000267B  _RemoveTimeredLabel                timeredlabel
     0000267D  A$timeredlabel$111                 timeredlabel
     00002681  A$timeredlabel$112                 timeredlabel
     00002683  A$timeredlabel$116                 timeredlabel
     00002683  C$timeredlabel.c$23$1$74           timeredlabel
     00002686  A$timeredlabel$117                 timeredlabel
     00002689  A$timeredlabel$118                 timeredlabel
     0000268A  A$timeredlabel$119                 timeredlabel
     0000268B  A$timeredlabel$120                 timeredlabel
     0000268C  A$timeredlabel$121                 timeredlabel
     0000268D  A$timeredlabel$122                 timeredlabel
     0000268E  A$timeredlabel$123                 timeredlabel
     0000268F  A$timeredlabel$124                 timeredlabel
     00002692  A$timeredlabel$125                 timeredlabel
     00002693  A$timeredlabel$126                 timeredlabel
     00002694  A$timeredlabel$127                 timeredlabel
     00002695  A$timeredlabel$131                 timeredlabel
     00002695  C$timeredlabel.c$26$1$74           timeredlabel
     00002696  A$timeredlabel$132                 timeredlabel
     00002697  A$timeredlabel$133                 timeredlabel
     00002698  A$timeredlabel$134                 timeredlabel
     00002699  A$timeredlabel$135                 timeredlabel
     0000269A  A$timeredlabel$136                 timeredlabel
     0000269B  A$timeredlabel$137                 timeredlabel
     0000269E  A$timeredlabel$138                 timeredlabel
     0000269F  A$timeredlabel$139                 timeredlabel
     000026A0  A$timeredlabel$140                 timeredlabel
     000026A1  A$timeredlabel$144                 timeredlabel
     000026A1  C$timeredlabel.c$29$1$74           timeredlabel
     000026A5  A$timeredlabel$145                 timeredlabel
     000026A8  A$timeredlabel$146                 timeredlabel
     000026AA  A$timeredlabel$147                 timeredlabel
     000026AB  A$timeredlabel$148                 timeredlabel
     000026AC  A$timeredlabel$149                 timeredlabel
     000026AD  A$timeredlabel$150                 timeredlabel
     000026AE  A$timeredlabel$151                 timeredlabel
     000026AF  A$timeredlabel$152                 timeredlabel
     000026B2  A$timeredlabel$153                 timeredlabel
     000026B4  A$timeredlabel$155                 timeredlabel
     000026B7  A$timeredlabel$159                 timeredlabel
     000026B7  C$timeredlabel.c$32$2$75           timeredlabel
     000026BA  A$timeredlabel$160                 timeredlabel
     000026BB  A$timeredlabel$161                 timeredlabel
     000026BC  A$timeredlabel$162                 timeredlabel
     000026BD  A$timeredlabel$163                 timeredlabel
     000026BF  A$timeredlabel$164                 timeredlabel
     000026C0  A$timeredlabel$165                 timeredlabel
     000026C3  A$timeredlabel$166                 timeredlabel
ASxxxx Linker V03.00 + NoICE + sdld,  page 119.
Hexadecimal  [32-Bits]

Area                                    Addr        Size        Decimal Bytes (Attributes)
--------------------------------        ----        ----        ------- ----- ------------
_CODE                               00000200    0000438F =       17295. bytes (REL,CON)

      Value  Global                              Global Defined In Module
      -----  --------------------------------   ------------------------
     000026C4  A$timeredlabel$167                 timeredlabel
     000026C5  A$timeredlabel$171                 timeredlabel
     000026C5  C$timeredlabel.c$34$2$75           timeredlabel
     000026C6  A$timeredlabel$172                 timeredlabel
     000026C7  A$timeredlabel$176                 timeredlabel
     000026C7  C$timeredlabel.c$35$2$75           timeredlabel
     000026C8  A$timeredlabel$177                 timeredlabel
     000026C9  A$timeredlabel$178                 timeredlabel
     000026CA  A$timeredlabel$179                 timeredlabel
     000026CB  A$timeredlabel$180                 timeredlabel
     000026CC  A$timeredlabel$185                 timeredlabel
     000026CC  C$timeredlabel.c$38$1$74           timeredlabel
     000026CF  A$timeredlabel$186                 timeredlabel
     000026D0  A$timeredlabel$187                 timeredlabel
     000026D2  A$timeredlabel$192                 timeredlabel
     000026D2  C$timeredlabel.c$39$1$74           timeredlabel
     000026D2  XG$RemoveTimeredLabel$0$0          timeredlabel
     000026D3  A$timeredlabel$202                 timeredlabel
     000026D3  C$timeredlabel.c$42$1$74           timeredlabel
     000026D3  G$UpdateTimeredLabel$0$0           timeredlabel
     000026D3  _UpdateTimeredLabel                timeredlabel
     000026D5  A$timeredlabel$203                 timeredlabel
     000026D9  A$timeredlabel$204                 timeredlabel
     000026DB  A$timeredlabel$208                 timeredlabel
     000026DB  C$timeredlabel.c$46$1$77           timeredlabel
     000026DE  A$timeredlabel$209                 timeredlabel
     000026E1  A$timeredlabel$210                 timeredlabel
     000026E2  A$timeredlabel$211                 timeredlabel
     000026E3  A$timeredlabel$212                 timeredlabel
     000026E4  A$timeredlabel$213                 timeredlabel
     000026E5  A$timeredlabel$214                 timeredlabel
     000026E8  A$timeredlabel$215                 timeredlabel
     000026E9  A$timeredlabel$219                 timeredlabel
     000026E9  C$timeredlabel.c$48$1$77           timeredlabel
     000026EA  A$timeredlabel$220                 timeredlabel
     000026EB  A$timeredlabel$221                 timeredlabel
     000026EC  A$timeredlabel$222                 timeredlabel
     000026ED  A$timeredlabel$226                 timeredlabel
     000026ED  C$timeredlabel.c$49$1$77           timeredlabel
     000026EE  A$timeredlabel$227                 timeredlabel
     000026EF  A$timeredlabel$228                 timeredlabel
     000026F1  A$timeredlabel$232                 timeredlabel
     000026F1  C$timeredlabel.c$50$1$77           timeredlabel
     000026F4  A$timeredlabel$233                 timeredlabel
     000026F5  A$timeredlabel$234                 timeredlabel
     000026F6  A$timeredlabel$235                 timeredlabel
     000026F9  A$timeredlabel$236                 timeredlabel
     000026FA  A$timeredlabel$238                 timeredlabel
     000026FC  A$timeredlabel$243                 timeredlabel
     000026FC  C$timeredlabel.c$51$1$77           timeredlabel
     000026FC  XG$UpdateTimeredLabel$0$0          timeredlabel
ASxxxx Linker V03.00 + NoICE + sdld,  page 120.
Hexadecimal  [32-Bits]

Area                                    Addr        Size        Decimal Bytes (Attributes)
--------------------------------        ----        ----        ------- ----- ------------
_CODE                               00000200    0000438F =       17295. bytes (REL,CON)

      Value  Global                              Global Defined In Module
      -----  --------------------------------   ------------------------
     000026FD  A$timeredlabel$256                 timeredlabel
     000026FD  C$timeredlabel.c$54$1$77           timeredlabel
     000026FD  C$timeredlabel.c$57$1$78           timeredlabel
     000026FD  G$UpdateTimeredLabels$0$0          timeredlabel
     000026FD  _UpdateTimeredLabels               timeredlabel
     00002701  A$timeredlabel$257                 timeredlabel
     00002704  A$timeredlabel$258                 timeredlabel
     00002705  A$timeredlabel$259                 timeredlabel
     00002706  A$timeredlabel$263                 timeredlabel
     00002709  A$timeredlabel$264                 timeredlabel
     0000270A  A$timeredlabel$266                 timeredlabel
     0000270C  A$timeredlabel$267                 timeredlabel
     0000270D  A$timeredlabel$271                 timeredlabel
     0000270D  C$timeredlabel.c$59$2$79           timeredlabel
     0000270E  A$timeredlabel$272                 timeredlabel
     0000270F  A$timeredlabel$273                 timeredlabel
     00002710  A$timeredlabel$274                 timeredlabel
     00002713  A$timeredlabel$275                 timeredlabel
     00002714  A$timeredlabel$276                 timeredlabel
     00002715  A$timeredlabel$280                 timeredlabel
     00002715  C$timeredlabel.c$58$2$79           timeredlabel
     00002716  A$timeredlabel$285                 timeredlabel
     00002716  C$timeredlabel.c$60$1$78           timeredlabel
     00002716  XG$UpdateTimeredLabels$0$0         timeredlabel
     00002718  A$timeredlabel$295                 timeredlabel
     00002718  C$timeredlabel.c$62$1$78           timeredlabel
     00002718  G$InitTimeredLabel$0$0             timeredlabel
     00002718  _InitTimeredLabel                  timeredlabel
     0000271A  A$timeredlabel$296                 timeredlabel
     0000271E  A$timeredlabel$297                 timeredlabel
     00002720  A$timeredlabel$301                 timeredlabel
     00002720  C$timeredlabel.c$66$1$81           timeredlabel
     00002724  A$timeredlabel$302                 timeredlabel
     00002727  A$timeredlabel$303                 timeredlabel
     00002729  A$timeredlabel$304                 timeredlabel
     0000272B  A$timeredlabel$308                 timeredlabel
     0000272B  C$timeredlabel.c$69$2$82           timeredlabel
     0000272E  A$timeredlabel$309                 timeredlabel
     00002731  A$timeredlabel$310                 timeredlabel
     00002733  A$timeredlabel$311                 timeredlabel
     00002734  A$timeredlabel$312                 timeredlabel
     00002735  A$timeredlabel$316                 timeredlabel
     00002735  C$timeredlabel.c$72$2$82           timeredlabel
     00002738  A$timeredlabel$317                 timeredlabel
     00002739  A$timeredlabel$321                 timeredlabel
     00002739  C$timeredlabel.c$73$2$82           timeredlabel
     0000273A  A$timeredlabel$322                 timeredlabel
     0000273D  A$timeredlabel$323                 timeredlabel
     0000273E  A$timeredlabel$327                 timeredlabel
     0000273E  C$timeredlabel.c$76$2$82           timeredlabel
     00002741  A$timeredlabel$331                 timeredlabel
ASxxxx Linker V03.00 + NoICE + sdld,  page 121.
Hexadecimal  [32-Bits]

Area                                    Addr        Size        Decimal Bytes (Attributes)
--------------------------------        ----        ----        ------- ----- ------------
_CODE                               00000200    0000438F =       17295. bytes (REL,CON)

      Value  Global                              Global Defined In Module
      -----  --------------------------------   ------------------------
     00002741  C$timeredlabel.c$79$2$82           timeredlabel
     00002744  A$timeredlabel$332                 timeredlabel
     00002745  A$timeredlabel$333                 timeredlabel
     00002746  A$timeredlabel$334                 timeredlabel
     00002749  A$timeredlabel$335                 timeredlabel
     0000274A  A$timeredlabel$339                 timeredlabel
     0000274A  C$timeredlabel.c$82$2$82           timeredlabel
     0000274D  A$timeredlabel$340                 timeredlabel
     00002750  A$timeredlabel$341                 timeredlabel
     00002751  A$timeredlabel$342                 timeredlabel
     00002754  A$timeredlabel$343                 timeredlabel
     00002755  A$timeredlabel$344                 timeredlabel
     00002757  A$timeredlabel$345                 timeredlabel
     00002759  A$timeredlabel$346                 timeredlabel
     0000275A  A$timeredlabel$347                 timeredlabel
     0000275B  A$timeredlabel$348                 timeredlabel
     0000275E  A$timeredlabel$349                 timeredlabel
     0000275F  A$timeredlabel$350                 timeredlabel
     00002760  A$timeredlabel$351                 timeredlabel
     00002761  A$timeredlabel$352                 timeredlabel
     00002762  A$timeredlabel$353                 timeredlabel
     00002765  A$timeredlabel$354                 timeredlabel
     00002768  A$timeredlabel$355                 timeredlabel
     00002769  A$timeredlabel$356                 timeredlabel
     0000276C  A$timeredlabel$357                 timeredlabel
     0000276D  A$timeredlabel$358                 timeredlabel
     0000276E  A$timeredlabel$360                 timeredlabel
     00002770  A$timeredlabel$365                 timeredlabel
     00002770  C$timeredlabel.c$84$1$81           timeredlabel
     00002770  XG$InitTimeredLabel$0$0            timeredlabel
     00002771  A$timeredlabel$378                 timeredlabel
     00002771  C$timeredlabel.c$87$1$81           timeredlabel
     00002771  C$timeredlabel.c$89$1$83           timeredlabel
     00002771  G$InitTimeredLabels$0$0            timeredlabel
     00002771  _InitTimeredLabels                 timeredlabel
     00002774  A$timeredlabel$379                 timeredlabel
     00002776  A$timeredlabel$384                 timeredlabel
     00002776  C$timeredlabel.c$90$1$83           timeredlabel
     00002776  XG$InitTimeredLabels$0$0           timeredlabel
     00002777  A$turnship$59                      turnship
     00002777  C$turnship.c$3$0$0                 turnship
     00002777  C$turnship.c$5$0$0                 turnship
     00002777  G$turnship_foo$0$0                 turnship
     00002777  XG$turnship_foo$0$0                turnship
     00002777  _turnship_foo                      turnship
     00002778  A$warning$58                       warning
     00002778  C$warning.c$10$0$0                 warning
     00002778  C$warning.c$12$1$49                warning
     00002778  G$InitWarning$0$0                  warning
     00002778  _InitWarning                       warning
     00002779  A$warning$59                       warning
ASxxxx Linker V03.00 + NoICE + sdld,  page 122.
Hexadecimal  [32-Bits]

Area                                    Addr        Size        Decimal Bytes (Attributes)
--------------------------------        ----        ----        ------- ----- ------------
_CODE                               00000200    0000438F =       17295. bytes (REL,CON)

      Value  Global                              Global Defined In Module
      -----  --------------------------------   ------------------------
     0000277A  A$warning$60                       warning
     0000277B  A$warning$61                       warning
     0000277C  A$warning$62                       warning
     0000277D  A$warning$63                       warning
     0000277E  A$warning$64                       warning
     0000277F  A$warning$65                       warning
     00002780  A$warning$66                       warning
     00002781  A$warning$70                       warning
     00002781  C$warning.c$13$1$49                warning
     00002784  A$warning$71                       warning
     00002785  A$warning$72                       warning
     00002788  A$warning$73                       warning
     00002789  A$warning$74                       warning
     0000278C  A$warning$75                       warning
     0000278D  A$warning$76                       warning
     0000278E  A$warning$81                       warning
     0000278E  C$warning.c$14$1$49                warning
     0000278E  XG$InitWarning$0$0                 warning
     0000278F  A$warning$91                       warning
     0000278F  C$warning.c$16$1$49                warning
     0000278F  G$UpdateWarning$0$0                warning
     0000278F  _UpdateWarning                     warning
     00002791  A$warning$92                       warning
     00002795  A$warning$93                       warning
     00002797  A$warning$97                       warning
     00002797  C$warning.c$21$1$51                warning
     0000279A  A$warning$98                       warning
     0000279D  A$warning$99                       warning
     0000279E  A$warning$100                      warning
     0000279F  A$warning$101                      warning
     000027A0  A$warning$102                      warning
     000027A1  A$warning$103                      warning
     000027A2  A$warning$104                      warning
     000027A3  A$warning$105                      warning
     000027A5  A$warning$106                      warning
     000027A7  A$warning$110                      warning
     000027A7  C$warning.c$23$2$52                warning
     000027A8  A$warning$111                      warning
     000027A9  A$warning$112                      warning
     000027AB  A$warning$116                      warning
     000027AB  C$warning.c$25$3$53                warning
     000027AE  A$warning$117                      warning
     000027B0  A$warning$118                      warning
     000027B2  A$warning$122                      warning
     000027B2  C$warning.c$26$3$53                warning
     000027B3  A$warning$123                      warning
     000027B6  A$warning$124                      warning
     000027B7  A$warning$125                      warning
     000027BA  A$warning$126                      warning
     000027BB  A$warning$127                      warning
     000027BE  A$warning$128                      warning
ASxxxx Linker V03.00 + NoICE + sdld,  page 123.
Hexadecimal  [32-Bits]

Area                                    Addr        Size        Decimal Bytes (Attributes)
--------------------------------        ----        ----        ------- ----- ------------
_CODE                               00000200    0000438F =       17295. bytes (REL,CON)

      Value  Global                              Global Defined In Module
      -----  --------------------------------   ------------------------
     000027BF  A$warning$129                      warning
     000027C0  A$warning$130                      warning
     000027C1  A$warning$131                      warning
     000027C3  A$warning$136                      warning
     000027C3  C$warning.c$28$3$53                warning
     000027C4  A$warning$137                      warning
     000027C7  A$warning$138                      warning
     000027C8  A$warning$139                      warning
     000027CB  A$warning$140                      warning
     000027CC  A$warning$141                      warning
     000027CF  A$warning$142                      warning
     000027D0  A$warning$143                      warning
     000027D1  A$warning$144                      warning
     000027D2  A$warning$149                      warning
     000027D2  C$warning.c$30$2$52                warning
     000027D3  A$warning$150                      warning
     000027D5  A$warning$151                      warning
     000027D7  A$warning$155                      warning
     000027D7  C$warning.c$31$2$52                warning
     000027DA  A$warning$156                      warning
     000027DB  A$warning$157                      warning
     000027DE  A$warning$158                      warning
     000027DF  A$warning$159                      warning
     000027E2  A$warning$160                      warning
     000027E3  A$warning$161                      warning
     000027E4  A$warning$166                      warning
     000027E4  C$warning.c$32$2$52                warning
     000027E6  A$warning$167                      warning
     000027E8  A$warning$172                      warning
     000027E8  C$warning.c$35$1$51                warning
     000027EA  A$warning$173                      warning
     000027EC  A$warning$177                      warning
     000027EC  C$warning.c$37$2$54                warning
     000027ED  A$warning$178                      warning
     000027EE  A$warning$179                      warning
     000027EF  A$warning$180                      warning
     000027F0  A$warning$181                      warning
     000027F2  A$warning$182                      warning
     000027F3  A$warning$183                      warning
     000027F5  A$warning$187                      warning
     000027F5  C$warning.c$39$3$55                warning
     000027F8  A$warning$191                      warning
     000027FA  A$warning$196                      warning
     000027FA  C$warning.c$41$1$51                warning
     000027FB  A$warning$197                      warning
     000027FD  A$warning$198                      warning
     000027FE  A$warning$199                      warning
     00002800  A$warning$204                      warning
     00002800  C$warning.c$42$5$57                warning
     00002801  A$warning$205                      warning
     00002803  A$warning$206                      warning
ASxxxx Linker V03.00 + NoICE + sdld,  page 124.
Hexadecimal  [32-Bits]

Area                                    Addr        Size        Decimal Bytes (Attributes)
--------------------------------        ----        ----        ------- ----- ------------
_CODE                               00000200    0000438F =       17295. bytes (REL,CON)

      Value  Global                              Global Defined In Module
      -----  --------------------------------   ------------------------
     00002804  A$warning$207                      warning
     00002805  A$warning$208                      warning
     00002807  A$warning$209                      warning
     00002808  A$warning$210                      warning
     00002809  A$warning$211                      warning
     0000280A  A$warning$212                      warning
     0000280B  A$warning$213                      warning
     0000280D  A$warning$214                      warning
     0000280E  A$warning$215                      warning
     0000280F  A$warning$216                      warning
     00002812  A$warning$217                      warning
     00002813  A$warning$218                      warning
     00002814  A$warning$219                      warning
     00002815  A$warning$220                      warning
     00002816  A$warning$221                      warning
     00002817  A$warning$225                      warning
     00002817  C$warning.c$41$5$57                warning
     00002818  A$warning$226                      warning
     0000281A  A$warning$227                      warning
     0000281B  A$warning$228                      warning
     0000281D  A$warning$229                      warning
     0000281F  A$warning$233                      warning
     0000281F  C$warning.c$40$1$51                warning
     00002820  A$warning$234                      warning
     00002822  A$warning$235                      warning
     00002823  A$warning$236                      warning
     00002825  A$warning$237                      warning
     00002827  A$warning$242                      warning
     00002827  C$warning.c$46$1$51                warning
     00002829  A$warning$244                      warning
     0000282B  A$warning$249                      warning
     0000282B  C$warning.c$47$1$51                warning
     0000282B  XG$UpdateWarning$0$0               warning
     0000282C  A$waveship$59                      waveship
     0000282C  C$waveship.c$3$0$0                 waveship
     0000282C  C$waveship.c$5$0$0                 waveship
     0000282C  G$waveship_foo$0$0                 waveship
     0000282C  XG$waveship_foo$0$0                waveship
     0000282C  _waveship_foo                      waveship
     0000282D  A$intro1stage$59                   intro1stage
     0000282D  C$intro1stage.c$12$1$23            intro1stage
     0000282D  C$intro1stage.c$9$0$0              intro1stage
     0000282D  G$InitIntro1Stage$0$0              intro1stage
     0000282D  _InitIntro1Stage                   intro1stage
     0000282F  A$intro1stage$60                   intro1stage
     00002830  A$intro1stage$61                   intro1stage
     00002831  A$intro1stage$62                   intro1stage
     00002834  A$intro1stage$63                   intro1stage
     00002835  A$intro1stage$64                   intro1stage
     00002838  A$intro1stage$65                   intro1stage
     00002839  A$intro1stage$66                   intro1stage
ASxxxx Linker V03.00 + NoICE + sdld,  page 125.
Hexadecimal  [32-Bits]

Area                                    Addr        Size        Decimal Bytes (Attributes)
--------------------------------        ----        ----        ------- ----- ------------
_CODE                               00000200    0000438F =       17295. bytes (REL,CON)

      Value  Global                              Global Defined In Module
      -----  --------------------------------   ------------------------
     0000283C  A$intro1stage$67                   intro1stage
     0000283D  A$intro1stage$68                   intro1stage
     00002840  A$intro1stage$69                   intro1stage
     00002843  A$intro1stage$70                   intro1stage
     00002844  A$intro1stage$71                   intro1stage
     00002845  A$intro1stage$75                   intro1stage
     00002845  C$intro1stage.c$15$1$23            intro1stage
     00002847  A$intro1stage$76                   intro1stage
     00002848  A$intro1stage$77                   intro1stage
     00002849  A$intro1stage$78                   intro1stage
     0000284C  A$intro1stage$79                   intro1stage
     0000284D  A$intro1stage$80                   intro1stage
     00002850  A$intro1stage$81                   intro1stage
     00002851  A$intro1stage$82                   intro1stage
     00002854  A$intro1stage$83                   intro1stage
     00002855  A$intro1stage$87                   intro1stage
     00002855  C$intro1stage.c$18$1$23            intro1stage
     00002856  A$intro1stage$88                   intro1stage
     00002859  A$intro1stage$89                   intro1stage
     0000285A  A$intro1stage$90                   intro1stage
     0000285D  A$intro1stage$91                   intro1stage
     0000285E  A$intro1stage$92                   intro1stage
     00002861  A$intro1stage$93                   intro1stage
     00002862  A$intro1stage$97                   intro1stage
     00002862  C$intro1stage.c$21$1$23            intro1stage
     00002865  A$intro1stage$98                   intro1stage
     00002866  A$intro1stage$99                   intro1stage
     00002869  A$intro1stage$100                  intro1stage
     0000286A  A$intro1stage$101                  intro1stage
     0000286D  A$intro1stage$102                  intro1stage
     0000286E  A$intro1stage$103                  intro1stage
     0000286F  A$intro1stage$108                  intro1stage
     0000286F  C$intro1stage.c$22$1$23            intro1stage
     0000286F  XG$InitIntro1Stage$0$0             intro1stage
     00002870  A$intro2stage$61                   intro2stage
     00002870  C$intro2stage.c$10$0$0             intro2stage
     00002870  C$intro2stage.c$13$1$23            intro2stage
     00002870  G$DoIntro2Scroll$0$0               intro2stage
     00002870  _DoIntro2Scroll                    intro2stage
     00002873  A$intro2stage$62                   intro2stage
     00002874  A$intro2stage$63                   intro2stage
     00002875  A$intro2stage$67                   intro2stage
     00002875  C$intro2stage.c$15$2$24            intro2stage
     00002878  A$intro2stage$68                   intro2stage
     0000287B  A$intro2stage$69                   intro2stage
     0000287E  A$intro2stage$70                   intro2stage
     00002882  A$intro2stage$71                   intro2stage
     00002885  A$intro2stage$72                   intro2stage
     00002889  A$intro2stage$73                   intro2stage
     0000288D  A$intro2stage$74                   intro2stage
     00002891  A$intro2stage$75                   intro2stage
ASxxxx Linker V03.00 + NoICE + sdld,  page 126.
Hexadecimal  [32-Bits]

Area                                    Addr        Size        Decimal Bytes (Attributes)
--------------------------------        ----        ----        ------- ----- ------------
_CODE                               00000200    0000438F =       17295. bytes (REL,CON)

      Value  Global                              Global Defined In Module
      -----  --------------------------------   ------------------------
     00002895  A$intro2stage$76                   intro2stage
     00002899  A$intro2stage$77                   intro2stage
     0000289D  A$intro2stage$81                   intro2stage
     0000289D  C$intro2stage.c$16$2$24            intro2stage
     0000289F  A$intro2stage$82                   intro2stage
     000028A2  A$intro2stage$83                   intro2stage
     000028A4  A$intro2stage$84                   intro2stage
     000028A7  A$intro2stage$85                   intro2stage
     000028AA  A$intro2stage$86                   intro2stage
     000028AC  A$intro2stage$88                   intro2stage
     000028AF  A$intro2stage$89                   intro2stage
     000028B2  A$intro2stage$90                   intro2stage
     000028B5  A$intro2stage$95                   intro2stage
     000028B5  C$intro2stage.c$17$2$24            intro2stage
     000028B8  A$intro2stage$96                   intro2stage
     000028B9  A$intro2stage$97                   intro2stage
     000028BD  A$intro2stage$98                   intro2stage
     000028BF  A$intro2stage$99                   intro2stage
     000028C0  A$intro2stage$100                  intro2stage
     000028C1  A$intro2stage$101                  intro2stage
     000028C2  A$intro2stage$102                  intro2stage
     000028C3  A$intro2stage$103                  intro2stage
     000028C4  A$intro2stage$104                  intro2stage
     000028C5  A$intro2stage$105                  intro2stage
     000028C6  A$intro2stage$106                  intro2stage
     000028C7  A$intro2stage$107                  intro2stage
     000028C8  A$intro2stage$108                  intro2stage
     000028C9  A$intro2stage$112                  intro2stage
     000028C9  C$intro2stage.c$18$2$24            intro2stage
     000028CA  A$intro2stage$113                  intro2stage
     000028CD  A$intro2stage$114                  intro2stage
     000028CE  A$intro2stage$115                  intro2stage
     000028D0  A$intro2stage$116                  intro2stage
     000028D3  A$intro2stage$117                  intro2stage
     000028D4  A$intro2stage$118                  intro2stage
     000028D6  A$intro2stage$119                  intro2stage
     000028D8  A$intro2stage$120                  intro2stage
     000028DA  A$intro2stage$121                  intro2stage
     000028DC  A$intro2stage$122                  intro2stage
     000028DF  A$intro2stage$123                  intro2stage
     000028E0  A$intro2stage$124                  intro2stage
     000028E1  A$intro2stage$125                  intro2stage
     000028E4  A$intro2stage$126                  intro2stage
     000028E5  A$intro2stage$127                  intro2stage
     000028E6  A$intro2stage$132                  intro2stage
     000028E6  C$intro2stage.c$20$1$23            intro2stage
     000028E6  XG$DoIntro2Scroll$0$0              intro2stage
     000028E7  A$intro2stage$145                  intro2stage
     000028E7  C$intro2stage.c$22$1$23            intro2stage
     000028E7  C$intro2stage.c$25$1$25            intro2stage
     000028E7  G$InitIntro2Stage$0$0              intro2stage
ASxxxx Linker V03.00 + NoICE + sdld,  page 127.
Hexadecimal  [32-Bits]

Area                                    Addr        Size        Decimal Bytes (Attributes)
--------------------------------        ----        ----        ------- ----- ------------
_CODE                               00000200    0000438F =       17295. bytes (REL,CON)

      Value  Global                              Global Defined In Module
      -----  --------------------------------   ------------------------
     000028E7  _InitIntro2Stage                   intro2stage
     000028E9  A$intro2stage$146                  intro2stage
     000028EA  A$intro2stage$147                  intro2stage
     000028EB  A$intro2stage$148                  intro2stage
     000028EE  A$intro2stage$149                  intro2stage
     000028EF  A$intro2stage$150                  intro2stage
     000028F2  A$intro2stage$151                  intro2stage
     000028F3  A$intro2stage$152                  intro2stage
     000028F6  A$intro2stage$153                  intro2stage
     000028F7  A$intro2stage$154                  intro2stage
     000028FA  A$intro2stage$155                  intro2stage
     000028FD  A$intro2stage$156                  intro2stage
     000028FE  A$intro2stage$157                  intro2stage
     000028FF  A$intro2stage$161                  intro2stage
     000028FF  C$intro2stage.c$28$1$25            intro2stage
     00002901  A$intro2stage$162                  intro2stage
     00002902  A$intro2stage$163                  intro2stage
     00002903  A$intro2stage$164                  intro2stage
     00002906  A$intro2stage$165                  intro2stage
     00002907  A$intro2stage$166                  intro2stage
     0000290A  A$intro2stage$167                  intro2stage
     0000290B  A$intro2stage$168                  intro2stage
     0000290E  A$intro2stage$169                  intro2stage
     0000290F  A$intro2stage$173                  intro2stage
     0000290F  C$intro2stage.c$31$1$25            intro2stage
     00002910  A$intro2stage$174                  intro2stage
     00002913  A$intro2stage$175                  intro2stage
     00002914  A$intro2stage$176                  intro2stage
     00002917  A$intro2stage$177                  intro2stage
     00002918  A$intro2stage$178                  intro2stage
     0000291B  A$intro2stage$179                  intro2stage
     0000291C  A$intro2stage$183                  intro2stage
     0000291C  C$intro2stage.c$34$1$25            intro2stage
     0000291F  A$intro2stage$184                  intro2stage
     00002920  A$intro2stage$185                  intro2stage
     00002923  A$intro2stage$186                  intro2stage
     00002924  A$intro2stage$187                  intro2stage
     00002927  A$intro2stage$188                  intro2stage
     00002928  A$intro2stage$189                  intro2stage
     00002929  A$intro2stage$194                  intro2stage
     00002929  C$intro2stage.c$35$1$25            intro2stage
     00002929  XG$InitIntro2Stage$0$0             intro2stage
     0000292A  A$intro3object$69                  intro3object
     0000292A  C$intro3object.c$10$0$0            intro3object
     0000292A  C$intro3object.c$8$0$0             intro3object
     0000292A  G$intro3object_foo$0$0             intro3object
     0000292A  XG$intro3object_foo$0$0            intro3object
     0000292A  _intro3object_foo                  intro3object
     0000292B  A$intro3object$82                  intro3object
     0000292B  C$intro3object.c$17$0$0            intro3object
     0000292B  C$intro3object.c$20$1$54           intro3object
ASxxxx Linker V03.00 + NoICE + sdld,  page 128.
Hexadecimal  [32-Bits]

Area                                    Addr        Size        Decimal Bytes (Attributes)
--------------------------------        ----        ----        ------- ----- ------------
_CODE                               00000200    0000438F =       17295. bytes (REL,CON)

      Value  Global                              Global Defined In Module
      -----  --------------------------------   ------------------------
     0000292B  G$InitIntro3Object$0$0             intro3object
     0000292B  _InitIntro3Object                  intro3object
     0000292E  A$intro3object$83                  intro3object
     0000292F  A$intro3object$84                  intro3object
     00002932  A$intro3object$85                  intro3object
     00002933  A$intro3object$86                  intro3object
     00002936  A$intro3object$87                  intro3object
     00002937  A$intro3object$88                  intro3object
     00002938  A$intro3object$93                  intro3object
     00002938  C$intro3object.c$21$1$54           intro3object
     00002938  XG$InitIntro3Object$0$0            intro3object
     00002939  A$intro3object$103                 intro3object
     00002939  C$intro3object.c$23$1$54           intro3object
     00002939  G$DrawIntro3Object$0$0             intro3object
     00002939  _DrawIntro3Object                  intro3object
     0000293B  A$intro3object$104                 intro3object
     0000293F  A$intro3object$105                 intro3object
     00002941  A$intro3object$109                 intro3object
     00002941  C$intro3object.c$28$1$56           intro3object
     00002943  A$intro3object$110                 intro3object
     00002944  A$intro3object$111                 intro3object
     00002945  A$intro3object$112                 intro3object
     00002948  A$intro3object$113                 intro3object
     00002949  A$intro3object$117                 intro3object
     00002949  C$intro3object.c$31$1$56           intro3object
     0000294B  A$intro3object$122                 intro3object
     0000294B  C$intro3object.c$33$3$58           intro3object
     0000294C  A$intro3object$123                 intro3object
     0000294D  A$intro3object$124                 intro3object
     0000294E  A$intro3object$125                 intro3object
     0000294F  A$intro3object$126                 intro3object
     00002950  A$intro3object$127                 intro3object
     00002951  A$intro3object$128                 intro3object
     00002954  A$intro3object$129                 intro3object
     00002955  A$intro3object$130                 intro3object
     00002956  A$intro3object$131                 intro3object
     00002959  A$intro3object$132                 intro3object
     0000295A  A$intro3object$133                 intro3object
     0000295B  A$intro3object$137                 intro3object
     0000295B  C$intro3object.c$34$1$56           intro3object
     0000295E  A$intro3object$138                 intro3object
     00002961  A$intro3object$139                 intro3object
     00002963  A$intro3object$141                 intro3object
     00002964  A$intro3object$142                 intro3object
     00002967  A$intro3object$143                 intro3object
     00002969  A$intro3object$147                 intro3object
     00002969  C$intro3object.c$35$4$59           intro3object
     0000296A  A$intro3object$148                 intro3object
     0000296B  A$intro3object$149                 intro3object
     0000296C  A$intro3object$150                 intro3object
     0000296D  A$intro3object$151                 intro3object
ASxxxx Linker V03.00 + NoICE + sdld,  page 129.
Hexadecimal  [32-Bits]

Area                                    Addr        Size        Decimal Bytes (Attributes)
--------------------------------        ----        ----        ------- ----- ------------
_CODE                               00000200    0000438F =       17295. bytes (REL,CON)

      Value  Global                              Global Defined In Module
      -----  --------------------------------   ------------------------
     0000296E  A$intro3object$152                 intro3object
     0000296F  A$intro3object$153                 intro3object
     00002970  A$intro3object$154                 intro3object
     00002972  A$intro3object$155                 intro3object
     00002973  A$intro3object$156                 intro3object
     00002974  A$intro3object$157                 intro3object
     00002976  A$intro3object$158                 intro3object
     00002977  A$intro3object$159                 intro3object
     00002978  A$intro3object$160                 intro3object
     00002979  A$intro3object$161                 intro3object
     0000297A  A$intro3object$162                 intro3object
     0000297B  A$intro3object$163                 intro3object
     0000297E  A$intro3object$164                 intro3object
     0000297F  A$intro3object$165                 intro3object
     00002980  A$intro3object$166                 intro3object
     00002981  A$intro3object$170                 intro3object
     00002981  C$intro3object.c$34$4$59           intro3object
     00002982  A$intro3object$171                 intro3object
     00002984  A$intro3object$176                 intro3object
     00002984  C$intro3object.c$36$3$58           intro3object
     00002987  A$intro3object$177                 intro3object
     00002989  A$intro3object$178                 intro3object
     0000298B  A$intro3object$179                 intro3object
     0000298C  A$intro3object$180                 intro3object
     0000298D  A$intro3object$181                 intro3object
     0000298F  A$intro3object$182                 intro3object
     00002990  A$intro3object$183                 intro3object
     00002991  A$intro3object$184                 intro3object
     00002992  A$intro3object$185                 intro3object
     00002993  A$intro3object$186                 intro3object
     00002994  A$intro3object$187                 intro3object
     00002995  A$intro3object$188                 intro3object
     00002998  A$intro3object$189                 intro3object
     0000299B  A$intro3object$193                 intro3object
     0000299B  C$intro3object.c$31$2$57           intro3object
     0000299C  A$intro3object$194                 intro3object
     0000299D  A$intro3object$195                 intro3object
     0000299F  A$intro3object$196                 intro3object
     000029A1  A$intro3object$200                 intro3object
     000029A1  C$intro3object.c$38$1$56           intro3object
     000029A3  A$intro3object$201                 intro3object
     000029A4  A$intro3object$202                 intro3object
     000029A5  A$intro3object$203                 intro3object
     000029A8  A$intro3object$204                 intro3object
     000029A9  A$intro3object$205                 intro3object
     000029AB  A$intro3object$210                 intro3object
     000029AB  C$intro3object.c$39$1$56           intro3object
     000029AB  XG$DrawIntro3Object$0$0            intro3object
     000029AC  A$intro3object$220                 intro3object
     000029AC  C$intro3object.c$41$1$56           intro3object
     000029AC  G$UpdateIntro3Object1$0$0          intro3object
ASxxxx Linker V03.00 + NoICE + sdld,  page 130.
Hexadecimal  [32-Bits]

Area                                    Addr        Size        Decimal Bytes (Attributes)
--------------------------------        ----        ----        ------- ----- ------------
_CODE                               00000200    0000438F =       17295. bytes (REL,CON)

      Value  Global                              Global Defined In Module
      -----  --------------------------------   ------------------------
     000029AC  _UpdateIntro3Object1               intro3object
     000029AE  A$intro3object$221                 intro3object
     000029B2  A$intro3object$222                 intro3object
     000029B4  A$intro3object$226                 intro3object
     000029B4  C$intro3object.c$43$1$61           intro3object
     000029B7  A$intro3object$227                 intro3object
     000029BA  A$intro3object$228                 intro3object
     000029BB  A$intro3object$229                 intro3object
     000029BC  A$intro3object$230                 intro3object
     000029BD  A$intro3object$231                 intro3object
     000029BE  A$intro3object$232                 intro3object
     000029BF  A$intro3object$233                 intro3object
     000029C0  A$intro3object$234                 intro3object
     000029C2  A$intro3object$235                 intro3object
     000029C4  A$intro3object$239                 intro3object
     000029C4  C$intro3object.c$45$2$62           intro3object
     000029C7  A$intro3object$240                 intro3object
     000029C8  A$intro3object$241                 intro3object
     000029C9  A$intro3object$242                 intro3object
     000029CA  A$intro3object$243                 intro3object
     000029CB  A$intro3object$244                 intro3object
     000029CC  A$intro3object$245                 intro3object
     000029CE  A$intro3object$246                 intro3object
     000029CF  A$intro3object$247                 intro3object
     000029D0  A$intro3object$248                 intro3object
     000029D3  A$intro3object$249                 intro3object
     000029D4  A$intro3object$250                 intro3object
     000029D6  A$intro3object$251                 intro3object
     000029D9  A$intro3object$252                 intro3object
     000029DA  A$intro3object$253                 intro3object
     000029DB  A$intro3object$254                 intro3object
     000029DC  A$intro3object$255                 intro3object
     000029DD  A$intro3object$259                 intro3object
     000029DD  C$intro3object.c$46$2$62           intro3object
     000029DE  A$intro3object$260                 intro3object
     000029DF  A$intro3object$261                 intro3object
     000029E0  A$intro3object$262                 intro3object
     000029E1  A$intro3object$263                 intro3object
     000029E2  A$intro3object$264                 intro3object
     000029E3  A$intro3object$265                 intro3object
     000029E4  A$intro3object$269                 intro3object
     000029E4  C$intro3object.c$47$2$62           intro3object
     000029E5  A$intro3object$270                 intro3object
     000029E6  A$intro3object$272                 intro3object
     000029E8  A$intro3object$277                 intro3object
     000029E8  C$intro3object.c$49$1$61           intro3object
     000029E8  XG$UpdateIntro3Object1$0$0         intro3object
     000029E9  A$intro3object$287                 intro3object
     000029E9  C$intro3object.c$51$1$61           intro3object
     000029E9  G$UpdateIntro3Object2$0$0          intro3object
     000029E9  _UpdateIntro3Object2               intro3object
ASxxxx Linker V03.00 + NoICE + sdld,  page 131.
Hexadecimal  [32-Bits]

Area                                    Addr        Size        Decimal Bytes (Attributes)
--------------------------------        ----        ----        ------- ----- ------------
_CODE                               00000200    0000438F =       17295. bytes (REL,CON)

      Value  Global                              Global Defined In Module
      -----  --------------------------------   ------------------------
     000029EB  A$intro3object$288                 intro3object
     000029EF  A$intro3object$289                 intro3object
     000029F1  A$intro3object$293                 intro3object
     000029F1  C$intro3object.c$53$1$64           intro3object
     000029F4  A$intro3object$294                 intro3object
     000029F7  A$intro3object$295                 intro3object
     000029F8  A$intro3object$296                 intro3object
     000029F9  A$intro3object$297                 intro3object
     000029FA  A$intro3object$298                 intro3object
     000029FB  A$intro3object$299                 intro3object
     000029FC  A$intro3object$300                 intro3object
     000029FD  A$intro3object$301                 intro3object
     000029FF  A$intro3object$302                 intro3object
     00002A01  A$intro3object$306                 intro3object
     00002A01  C$intro3object.c$55$2$65           intro3object
     00002A02  A$intro3object$307                 intro3object
     00002A03  A$intro3object$308                 intro3object
     00002A06  A$intro3object$309                 intro3object
     00002A07  A$intro3object$310                 intro3object
     00002A0A  A$intro3object$311                 intro3object
     00002A0B  A$intro3object$312                 intro3object
     00002A0E  A$intro3object$313                 intro3object
     00002A0F  A$intro3object$314                 intro3object
     00002A10  A$intro3object$315                 intro3object
     00002A11  A$intro3object$316                 intro3object
     00002A12  A$intro3object$320                 intro3object
     00002A12  C$intro3object.c$56$2$65           intro3object
     00002A13  A$intro3object$321                 intro3object
     00002A14  A$intro3object$322                 intro3object
     00002A15  A$intro3object$323                 intro3object
     00002A16  A$intro3object$324                 intro3object
     00002A17  A$intro3object$325                 intro3object
     00002A18  A$intro3object$326                 intro3object
     00002A19  A$intro3object$330                 intro3object
     00002A19  C$intro3object.c$57$2$65           intro3object
     00002A1A  A$intro3object$331                 intro3object
     00002A1B  A$intro3object$333                 intro3object
     00002A1D  A$intro3object$338                 intro3object
     00002A1D  C$intro3object.c$59$1$64           intro3object
     00002A1D  XG$UpdateIntro3Object2$0$0         intro3object
     00002A1E  A$intro3object$348                 intro3object
     00002A1E  C$intro3object.c$61$1$64           intro3object
     00002A1E  G$UpdateIntro3Object3$0$0          intro3object
     00002A1E  _UpdateIntro3Object3               intro3object
     00002A20  A$intro3object$349                 intro3object
     00002A24  A$intro3object$350                 intro3object
     00002A26  A$intro3object$354                 intro3object
     00002A26  C$intro3object.c$63$1$67           intro3object
     00002A29  A$intro3object$355                 intro3object
     00002A2C  A$intro3object$356                 intro3object
     00002A2D  A$intro3object$357                 intro3object
ASxxxx Linker V03.00 + NoICE + sdld,  page 132.
Hexadecimal  [32-Bits]

Area                                    Addr        Size        Decimal Bytes (Attributes)
--------------------------------        ----        ----        ------- ----- ------------
_CODE                               00000200    0000438F =       17295. bytes (REL,CON)

      Value  Global                              Global Defined In Module
      -----  --------------------------------   ------------------------
     00002A2E  A$intro3object$358                 intro3object
     00002A2F  A$intro3object$359                 intro3object
     00002A30  A$intro3object$360                 intro3object
     00002A31  A$intro3object$361                 intro3object
     00002A32  A$intro3object$362                 intro3object
     00002A34  A$intro3object$363                 intro3object
     00002A36  A$intro3object$367                 intro3object
     00002A36  C$intro3object.c$65$2$68           intro3object
     00002A37  A$intro3object$368                 intro3object
     00002A38  A$intro3object$369                 intro3object
     00002A3B  A$intro3object$370                 intro3object
     00002A3C  A$intro3object$371                 intro3object
     00002A3F  A$intro3object$372                 intro3object
     00002A40  A$intro3object$373                 intro3object
     00002A43  A$intro3object$374                 intro3object
     00002A44  A$intro3object$375                 intro3object
     00002A45  A$intro3object$376                 intro3object
     00002A46  A$intro3object$377                 intro3object
     00002A47  A$intro3object$381                 intro3object
     00002A47  C$intro3object.c$66$2$68           intro3object
     00002A48  A$intro3object$382                 intro3object
     00002A49  A$intro3object$383                 intro3object
     00002A4A  A$intro3object$384                 intro3object
     00002A4B  A$intro3object$385                 intro3object
     00002A4C  A$intro3object$386                 intro3object
     00002A4D  A$intro3object$387                 intro3object
     00002A4E  A$intro3object$391                 intro3object
     00002A4E  C$intro3object.c$67$2$68           intro3object
     00002A4F  A$intro3object$392                 intro3object
     00002A50  A$intro3object$394                 intro3object
     00002A52  A$intro3object$399                 intro3object
     00002A52  C$intro3object.c$69$1$67           intro3object
     00002A52  XG$UpdateIntro3Object3$0$0         intro3object
     00002A53  A$intro3object$409                 intro3object
     00002A53  C$intro3object.c$71$1$67           intro3object
     00002A53  G$UpdateIntro3Object$0$0           intro3object
     00002A53  _UpdateIntro3Object                intro3object
     00002A55  A$intro3object$410                 intro3object
     00002A59  A$intro3object$411                 intro3object
     00002A5B  A$intro3object$415                 intro3object
     00002A5B  C$intro3object.c$74$1$70           intro3object
     00002A5E  A$intro3object$416                 intro3object
     00002A61  A$intro3object$417                 intro3object
     00002A62  A$intro3object$418                 intro3object
     00002A64  A$intro3object$419                 intro3object
     00002A67  A$intro3object$420                 intro3object
     00002A68  A$intro3object$421                 intro3object
     00002A6A  A$intro3object$422                 intro3object
     00002A6C  A$intro3object$426                 intro3object
     00002A6C  C$intro3object.c$77$2$71           intro3object
     00002A6F  A$intro3object$427                 intro3object
ASxxxx Linker V03.00 + NoICE + sdld,  page 133.
Hexadecimal  [32-Bits]

Area                                    Addr        Size        Decimal Bytes (Attributes)
--------------------------------        ----        ----        ------- ----- ------------
_CODE                               00000200    0000438F =       17295. bytes (REL,CON)

      Value  Global                              Global Defined In Module
      -----  --------------------------------   ------------------------
     00002A71  A$intro3object$428                 intro3object
     00002A72  A$intro3object$429                 intro3object
     00002A73  A$intro3object$430                 intro3object
     00002A74  A$intro3object$431                 intro3object
     00002A75  A$intro3object$432                 intro3object
     00002A76  A$intro3object$433                 intro3object
     00002A77  A$intro3object$434                 intro3object
     00002A78  A$intro3object$435                 intro3object
     00002A7B  A$intro3object$436                 intro3object
     00002A7C  A$intro3object$441                 intro3object
     00002A7C  C$intro3object.c$81$1$70           intro3object
     00002A7E  A$intro3object$442                 intro3object
     00002A80  A$intro3object$447                 intro3object
     00002A80  C$intro3object.c$82$1$70           intro3object
     00002A80  XG$UpdateIntro3Object$0$0          intro3object
     00002A81  A$intro3stage$60                   intro3stage
     00002A81  C$intro3stage.c$11$0$0             intro3stage
     00002A81  C$intro3stage.c$14$1$23            intro3stage
     00002A81  G$InitIntro3Stage$0$0              intro3stage
     00002A81  _InitIntro3Stage                   intro3stage
     00002A83  A$intro3stage$61                   intro3stage
     00002A84  A$intro3stage$62                   intro3stage
     00002A85  A$intro3stage$63                   intro3stage
     00002A88  A$intro3stage$64                   intro3stage
     00002A89  A$intro3stage$65                   intro3stage
     00002A8C  A$intro3stage$66                   intro3stage
     00002A8D  A$intro3stage$67                   intro3stage
     00002A90  A$intro3stage$68                   intro3stage
     00002A91  A$intro3stage$69                   intro3stage
     00002A92  A$intro3stage$70                   intro3stage
     00002A93  A$intro3stage$74                   intro3stage
     00002A93  C$intro3stage.c$17$1$23            intro3stage
     00002A95  A$intro3stage$75                   intro3stage
     00002A96  A$intro3stage$76                   intro3stage
     00002A97  A$intro3stage$77                   intro3stage
     00002A9A  A$intro3stage$78                   intro3stage
     00002A9B  A$intro3stage$79                   intro3stage
     00002A9E  A$intro3stage$80                   intro3stage
     00002A9F  A$intro3stage$81                   intro3stage
     00002AA0  A$intro3stage$85                   intro3stage
     00002AA0  C$intro3stage.c$20$1$23            intro3stage
     00002AA2  A$intro3stage$86                   intro3stage
     00002AA3  A$intro3stage$87                   intro3stage
     00002AA4  A$intro3stage$88                   intro3stage
     00002AA7  A$intro3stage$89                   intro3stage
     00002AA8  A$intro3stage$90                   intro3stage
     00002AAB  A$intro3stage$94                   intro3stage
     00002AAB  C$intro3stage.c$23$1$23            intro3stage
     00002AAC  A$intro3stage$95                   intro3stage
     00002AAF  A$intro3stage$96                   intro3stage
     00002AB0  A$intro3stage$97                   intro3stage
ASxxxx Linker V03.00 + NoICE + sdld,  page 134.
Hexadecimal  [32-Bits]

Area                                    Addr        Size        Decimal Bytes (Attributes)
--------------------------------        ----        ----        ------- ----- ------------
_CODE                               00000200    0000438F =       17295. bytes (REL,CON)

      Value  Global                              Global Defined In Module
      -----  --------------------------------   ------------------------
     00002AB3  A$intro3stage$98                   intro3stage
     00002AB4  A$intro3stage$99                   intro3stage
     00002AB7  A$intro3stage$100                  intro3stage
     00002AB8  A$intro3stage$104                  intro3stage
     00002AB8  C$intro3stage.c$26$1$23            intro3stage
     00002ABB  A$intro3stage$105                  intro3stage
     00002ABC  A$intro3stage$106                  intro3stage
     00002ABF  A$intro3stage$107                  intro3stage
     00002AC0  A$intro3stage$108                  intro3stage
     00002AC3  A$intro3stage$109                  intro3stage
     00002AC4  A$intro3stage$110                  intro3stage
     00002AC5  A$intro3stage$115                  intro3stage
     00002AC5  C$intro3stage.c$27$1$23            intro3stage
     00002AC5  XG$InitIntro3Stage$0$0             intro3stage
     00002AC6  A$intro4stage$58                   intro4stage
     00002AC6  C$intro4stage.c$11$1$23            intro4stage
     00002AC6  C$intro4stage.c$8$0$0              intro4stage
     00002AC6  G$InitIntro4Stage$0$0              intro4stage
     00002AC6  _InitIntro4Stage                   intro4stage
     00002AC8  A$intro4stage$59                   intro4stage
     00002AC9  A$intro4stage$60                   intro4stage
     00002ACA  A$intro4stage$61                   intro4stage
     00002ACD  A$intro4stage$62                   intro4stage
     00002ACE  A$intro4stage$63                   intro4stage
     00002AD1  A$intro4stage$64                   intro4stage
     00002AD2  A$intro4stage$65                   intro4stage
     00002AD5  A$intro4stage$66                   intro4stage
     00002AD6  A$intro4stage$67                   intro4stage
     00002AD9  A$intro4stage$68                   intro4stage
     00002ADC  A$intro4stage$69                   intro4stage
     00002ADD  A$intro4stage$70                   intro4stage
     00002ADE  A$intro4stage$74                   intro4stage
     00002ADE  C$intro4stage.c$14$1$23            intro4stage
     00002AE1  A$intro4stage$75                   intro4stage
     00002AE2  A$intro4stage$76                   intro4stage
     00002AE5  A$intro4stage$77                   intro4stage
     00002AE6  A$intro4stage$78                   intro4stage
     00002AE9  A$intro4stage$79                   intro4stage
     00002AEA  A$intro4stage$83                   intro4stage
     00002AEA  C$intro4stage.c$17$1$23            intro4stage
     00002AED  A$intro4stage$84                   intro4stage
     00002AEE  A$intro4stage$85                   intro4stage
     00002AF1  A$intro4stage$86                   intro4stage
     00002AF2  A$intro4stage$87                   intro4stage
     00002AF5  A$intro4stage$88                   intro4stage
     00002AF6  A$intro4stage$89                   intro4stage
     00002AF7  A$intro4stage$94                   intro4stage
     00002AF7  C$intro4stage.c$18$1$23            intro4stage
     00002AF7  XG$InitIntro4Stage$0$0             intro4stage
     00002AF8  A$introovni$53                     introovni
     00002AF8  C$introovni.c$4$0$0                introovni
ASxxxx Linker V03.00 + NoICE + sdld,  page 135.
Hexadecimal  [32-Bits]

Area                                    Addr        Size        Decimal Bytes (Attributes)
--------------------------------        ----        ----        ------- ----- ------------
_CODE                               00000200    0000438F =       17295. bytes (REL,CON)

      Value  Global                              Global Defined In Module
      -----  --------------------------------   ------------------------
     00002AF8  G$UpdateIntroOvni$0$0              introovni
     00002AF8  _UpdateIntroOvni                   introovni
     00002AFA  A$introovni$54                     introovni
     00002AFE  A$introovni$55                     introovni
     00002B00  A$introovni$59                     introovni
     00002B03  A$introovni$60                     introovni
     00002B06  A$introovni$61                     introovni
     00002B07  A$introovni$62                     introovni
     00002B08  A$introovni$63                     introovni
     00002B09  A$introovni$64                     introovni
     00002B0A  A$introovni$65                     introovni
     00002B0B  A$introovni$66                     introovni
     00002B0C  A$introovni$67                     introovni
     00002B0D  A$introovni$68                     introovni
     00002B0E  A$introovni$69                     introovni
     00002B10  A$introovni$70                     introovni
     00002B12  A$introovni$71                     introovni
     00002B13  A$introovni$72                     introovni
     00002B15  A$introovni$73                     introovni
     00002B16  A$introovni$74                     introovni
     00002B17  A$introovni$75                     introovni
     00002B18  A$introovni$76                     introovni
     00002B1C  A$introovni$77                     introovni
     00002B1E  A$introovni$78                     introovni
     00002B1F  A$introovni$79                     introovni
     00002B20  A$introovni$80                     introovni
     00002B21  A$introovni$81                     introovni
     00002B22  A$introovni$82                     introovni
     00002B23  A$introovni$83                     introovni
     00002B24  A$introovni$84                     introovni
     00002B26  A$introovni$85                     introovni
     00002B27  A$introovni$86                     introovni
     00002B28  A$introovni$87                     introovni
     00002B2B  A$introovni$88                     introovni
     00002B2C  A$introovni$89                     introovni
     00002B2D  A$introovni$90                     introovni
     00002B2E  A$introovni$94                     introovni
     00002B2F  A$introovni$95                     introovni
     00002B30  A$introovni$96                     introovni
     00002B31  A$introovni$97                     introovni
     00002B32  A$introovni$98                     introovni
     00002B33  A$introovni$102                    introovni
     00002B33  C$introovni.c$7$1$22               introovni
     00002B34  A$introovni$103                    introovni
     00002B35  A$introovni$107                    introovni
     00002B35  C$introovni.c$10$1$22              introovni
     00002B36  A$introovni$108                    introovni
     00002B38  A$introovni$109                    introovni
     00002B3A  A$introovni$113                    introovni
     00002B3A  C$introovni.c$12$2$23              introovni
     00002B3B  A$introovni$114                    introovni
ASxxxx Linker V03.00 + NoICE + sdld,  page 136.
Hexadecimal  [32-Bits]

Area                                    Addr        Size        Decimal Bytes (Attributes)
--------------------------------        ----        ----        ------- ----- ------------
_CODE                               00000200    0000438F =       17295. bytes (REL,CON)

      Value  Global                              Global Defined In Module
      -----  --------------------------------   ------------------------
     00002B3D  A$introovni$115                    introovni
     00002B3F  A$introovni$116                    introovni
     00002B40  A$introovni$117                    introovni
     00002B41  A$introovni$118                    introovni
     00002B42  A$introovni$119                    introovni
     00002B44  A$introovni$124                    introovni
     00002B44  C$introovni.c$16$2$24              introovni
     00002B46  A$introovni$125                    introovni
     00002B47  A$introovni$126                    introovni
     00002B49  A$introovni$127                    introovni
     00002B4A  A$introovni$128                    introovni
     00002B4B  A$introovni$129                    introovni
     00002B4C  A$introovni$134                    introovni
     00002B4C  C$introovni.c$20$1$22              introovni
     00002B4E  A$introovni$135                    introovni
     00002B50  A$introovni$140                    introovni
     00002B50  C$introovni.c$21$1$22              introovni
     00002B50  XG$UpdateIntroOvni$0$0             introovni
     00002B51  A$introsideplayer$58               introsideplayer
     00002B51  C$introsideplayer.c$6$0$0          introsideplayer
     00002B51  C$introsideplayer.c$8$1$49         introsideplayer
     00002B51  G$InitIntroSidePlayer$0$0          introsideplayer
     00002B51  _InitIntroSidePlayer               introsideplayer
     00002B52  A$introsideplayer$59               introsideplayer
     00002B53  A$introsideplayer$60               introsideplayer
     00002B54  A$introsideplayer$61               introsideplayer
     00002B55  A$introsideplayer$62               introsideplayer
     00002B58  A$introsideplayer$63               introsideplayer
     00002B59  A$introsideplayer$64               introsideplayer
     00002B5A  A$introsideplayer$65               introsideplayer
     00002B5B  A$introsideplayer$66               introsideplayer
     00002B5C  A$introsideplayer$67               introsideplayer
     00002B5D  A$introsideplayer$72               introsideplayer
     00002B5D  C$introsideplayer.c$9$1$49         introsideplayer
     00002B5D  XG$InitIntroSidePlayer$0$0         introsideplayer
     00002B5E  A$introsideplayer$82               introsideplayer
     00002B5E  C$introsideplayer.c$11$1$49        introsideplayer
     00002B5E  G$UpdateIntroSidePlayer$0$0        introsideplayer
     00002B5E  _UpdateIntroSidePlayer             introsideplayer
     00002B60  A$introsideplayer$83               introsideplayer
     00002B64  A$introsideplayer$84               introsideplayer
     00002B66  A$introsideplayer$85               introsideplayer
     00002B67  A$introsideplayer$86               introsideplayer
     00002B68  A$introsideplayer$90               introsideplayer
     00002B6B  A$introsideplayer$91               introsideplayer
     00002B6E  A$introsideplayer$92               introsideplayer
     00002B71  A$introsideplayer$93               introsideplayer
     00002B72  A$introsideplayer$94               introsideplayer
     00002B75  A$introsideplayer$95               introsideplayer
     00002B78  A$introsideplayer$96               introsideplayer
     00002B79  A$introsideplayer$97               introsideplayer
ASxxxx Linker V03.00 + NoICE + sdld,  page 137.
Hexadecimal  [32-Bits]

Area                                    Addr        Size        Decimal Bytes (Attributes)
--------------------------------        ----        ----        ------- ----- ------------
_CODE                               00000200    0000438F =       17295. bytes (REL,CON)

      Value  Global                              Global Defined In Module
      -----  --------------------------------   ------------------------
     00002B7A  A$introsideplayer$98               introsideplayer
     00002B7B  A$introsideplayer$99               introsideplayer
     00002B7C  A$introsideplayer$100              introsideplayer
     00002B7F  A$introsideplayer$101              introsideplayer
     00002B80  A$introsideplayer$102              introsideplayer
     00002B81  A$introsideplayer$103              introsideplayer
     00002B84  A$introsideplayer$104              introsideplayer
     00002B85  A$introsideplayer$105              introsideplayer
     00002B86  A$introsideplayer$106              introsideplayer
     00002B87  A$introsideplayer$110              introsideplayer
     00002B87  C$introsideplayer.c$19$1$51        introsideplayer
     00002B8A  A$introsideplayer$111              introsideplayer
     00002B8C  A$introsideplayer$112              introsideplayer
     00002B8E  A$introsideplayer$113              introsideplayer
     00002B90  A$introsideplayer$114              introsideplayer
     00002B92  A$introsideplayer$115              introsideplayer
     00002B93  A$introsideplayer$116              introsideplayer
     00002B95  A$introsideplayer$117              introsideplayer
     00002B96  A$introsideplayer$118              introsideplayer
     00002B98  A$introsideplayer$119              introsideplayer
     00002B9C  A$introsideplayer$120              introsideplayer
     00002B9E  A$introsideplayer$121              introsideplayer
     00002BA1  A$introsideplayer$122              introsideplayer
     00002BA4  A$introsideplayer$123              introsideplayer
     00002BA5  A$introsideplayer$124              introsideplayer
     00002BA6  A$introsideplayer$125              introsideplayer
     00002BA7  A$introsideplayer$126              introsideplayer
     00002BA8  A$introsideplayer$127              introsideplayer
     00002BA9  A$introsideplayer$128              introsideplayer
     00002BAA  A$introsideplayer$129              introsideplayer
     00002BAC  A$introsideplayer$130              introsideplayer
     00002BAD  A$introsideplayer$131              introsideplayer
     00002BAF  A$introsideplayer$132              introsideplayer
     00002BB0  A$introsideplayer$133              introsideplayer
     00002BB1  A$introsideplayer$134              introsideplayer
     00002BB4  A$introsideplayer$135              introsideplayer
     00002BB5  A$introsideplayer$136              introsideplayer
     00002BB6  A$introsideplayer$137              introsideplayer
     00002BB7  A$introsideplayer$141              introsideplayer
     00002BB7  C$introsideplayer.c$22$1$51        introsideplayer
     00002BB8  A$introsideplayer$142              introsideplayer
     00002BBA  A$introsideplayer$143              introsideplayer
     00002BBD  A$introsideplayer$144              introsideplayer
     00002BBE  A$introsideplayer$145              introsideplayer
     00002BC0  A$introsideplayer$146              introsideplayer
     00002BC3  A$introsideplayer$147              introsideplayer
     00002BC5  A$introsideplayer$149              introsideplayer
     00002BC8  A$introsideplayer$154              introsideplayer
     00002BC8  C$introsideplayer.c$16$1$51        introsideplayer
     00002BC9  A$introsideplayer$155              introsideplayer
     00002BCC  A$introsideplayer$159              introsideplayer
ASxxxx Linker V03.00 + NoICE + sdld,  page 138.
Hexadecimal  [32-Bits]

Area                                    Addr        Size        Decimal Bytes (Attributes)
--------------------------------        ----        ----        ------- ----- ------------
_CODE                               00000200    0000438F =       17295. bytes (REL,CON)

      Value  Global                              Global Defined In Module
      -----  --------------------------------   ------------------------
     00002BCC  C$introsideplayer.c$24$1$51        introsideplayer
     00002BD0  A$introsideplayer$160              introsideplayer
     00002BD3  A$introsideplayer$161              introsideplayer
     00002BD4  A$introsideplayer$162              introsideplayer
     00002BD7  A$introsideplayer$163              introsideplayer
     00002BD8  A$introsideplayer$164              introsideplayer
     00002BDA  A$introsideplayer$168              introsideplayer
     00002BDA  C$introsideplayer.c$26$2$52        introsideplayer
     00002BDD  A$introsideplayer$169              introsideplayer
     00002BDE  A$introsideplayer$170              introsideplayer
     00002BDF  A$introsideplayer$171              introsideplayer
     00002BE0  A$introsideplayer$172              introsideplayer
     00002BE1  A$introsideplayer$173              introsideplayer
     00002BE2  A$introsideplayer$174              introsideplayer
     00002BE3  A$introsideplayer$178              introsideplayer
     00002BE3  C$introsideplayer.c$28$2$52        introsideplayer
     00002BE6  A$introsideplayer$179              introsideplayer
     00002BE8  A$introsideplayer$180              introsideplayer
     00002BEA  A$introsideplayer$181              introsideplayer
     00002BED  A$introsideplayer$182              introsideplayer
     00002BEE  A$introsideplayer$183              introsideplayer
     00002BEF  A$introsideplayer$188              introsideplayer
     00002BEF  C$introsideplayer.c$29$2$52        introsideplayer
     00002BF2  A$introsideplayer$189              introsideplayer
     00002BF4  A$introsideplayer$190              introsideplayer
     00002BF5  A$introsideplayer$191              introsideplayer
     00002BF7  A$introsideplayer$192              introsideplayer
     00002BF8  A$introsideplayer$193              introsideplayer
     00002BFA  A$introsideplayer$194              introsideplayer
     00002BFB  A$introsideplayer$195              introsideplayer
     00002BFC  A$introsideplayer$196              introsideplayer
     00002BFE  A$introsideplayer$197              introsideplayer
     00002BFF  A$introsideplayer$198              introsideplayer
     00002C00  A$introsideplayer$199              introsideplayer
     00002C01  A$introsideplayer$200              introsideplayer
     00002C02  A$introsideplayer$201              introsideplayer
     00002C03  A$introsideplayer$202              introsideplayer
     00002C05  A$introsideplayer$203              introsideplayer
     00002C07  A$introsideplayer$204              introsideplayer
     00002C09  A$introsideplayer$205              introsideplayer
     00002C0B  A$introsideplayer$206              introsideplayer
     00002C0D  A$introsideplayer$207              introsideplayer
     00002C0F  A$introsideplayer$208              introsideplayer
     00002C11  A$introsideplayer$209              introsideplayer
     00002C13  A$introsideplayer$210              introsideplayer
     00002C14  A$introsideplayer$211              introsideplayer
     00002C16  A$introsideplayer$212              introsideplayer
     00002C19  A$introsideplayer$213              introsideplayer
     00002C1C  A$introsideplayer$214              introsideplayer
     00002C1D  A$introsideplayer$215              introsideplayer
     00002C1F  A$introsideplayer$220              introsideplayer
ASxxxx Linker V03.00 + NoICE + sdld,  page 139.
Hexadecimal  [32-Bits]

Area                                    Addr        Size        Decimal Bytes (Attributes)
--------------------------------        ----        ----        ------- ----- ------------
_CODE                               00000200    0000438F =       17295. bytes (REL,CON)

      Value  Global                              Global Defined In Module
      -----  --------------------------------   ------------------------
     00002C1F  C$introsideplayer.c$33$2$53        introsideplayer
     00002C22  A$introsideplayer$221              introsideplayer
     00002C23  A$introsideplayer$222              introsideplayer
     00002C24  A$introsideplayer$223              introsideplayer
     00002C25  A$introsideplayer$224              introsideplayer
     00002C26  A$introsideplayer$225              introsideplayer
     00002C27  A$introsideplayer$226              introsideplayer
     00002C28  A$introsideplayer$230              introsideplayer
     00002C28  C$introsideplayer.c$34$2$53        introsideplayer
     00002C2A  A$introsideplayer$231              introsideplayer
     00002C2B  A$introsideplayer$232              introsideplayer
     00002C2D  A$introsideplayer$233              introsideplayer
     00002C2F  A$introsideplayer$234              introsideplayer
     00002C31  A$introsideplayer$239              introsideplayer
     00002C31  C$introsideplayer.c$36$1$51        introsideplayer
     00002C33  A$introsideplayer$241              introsideplayer
     00002C35  A$introsideplayer$242              introsideplayer
     00002C37  A$introsideplayer$247              introsideplayer
     00002C37  C$introsideplayer.c$37$1$51        introsideplayer
     00002C37  XG$UpdateIntroSidePlayer$0$0       introsideplayer
     00002C38  A$introstage$80                    introstage
     00002C38  C$introstage.c$17$0$0              introstage
     00002C38  C$introstage.c$19$1$81             introstage
     00002C38  G$InitIntroScroll$0$0              introstage
     00002C38  _InitIntroScroll                   introstage
     00002C3B  A$introstage$81                    introstage
     00002C3E  A$introstage$85                    introstage
     00002C3E  C$introstage.c$20$1$81             introstage
     00002C40  A$introstage$86                    introstage
     00002C43  A$introstage$91                    introstage
     00002C43  C$introstage.c$21$1$81             introstage
     00002C43  XG$InitIntroScroll$0$0             introstage
     00002C44  A$introstage$104                   introstage
     00002C44  C$introstage.c$23$1$81             introstage
     00002C44  C$introstage.c$26$1$82             introstage
     00002C44  G$setIntroStageGraphics$0$0        introstage
     00002C44  _setIntroStageGraphics             introstage
     00002C46  A$introstage$105                   introstage
     00002C47  A$introstage$106                   introstage
     00002C48  A$introstage$107                   introstage
     00002C4B  A$introstage$108                   introstage
     00002C4C  A$introstage$109                   introstage
     00002C4F  A$introstage$110                   introstage
     00002C50  A$introstage$111                   introstage
     00002C51  A$introstage$115                   introstage
     00002C51  C$introstage.c$29$1$82             introstage
     00002C54  A$introstage$119                   introstage
     00002C54  C$introstage.c$32$1$82             introstage
     00002C57  A$introstage$123                   introstage
     00002C57  C$introstage.c$35$1$82             introstage
     00002C5A  A$introstage$127                   introstage
ASxxxx Linker V03.00 + NoICE + sdld,  page 140.
Hexadecimal  [32-Bits]

Area                                    Addr        Size        Decimal Bytes (Attributes)
--------------------------------        ----        ----        ------- ----- ------------
_CODE                               00000200    0000438F =       17295. bytes (REL,CON)

      Value  Global                              Global Defined In Module
      -----  --------------------------------   ------------------------
     00002C5A  C$introstage.c$38$1$82             introstage
     00002C5D  A$introstage$131                   introstage
     00002C5D  C$introstage.c$41$1$82             introstage
     00002C5F  A$introstage$132                   introstage
     00002C60  A$introstage$133                   introstage
     00002C61  A$introstage$134                   introstage
     00002C64  A$introstage$135                   introstage
     00002C65  A$introstage$140                   introstage
     00002C65  C$introstage.c$42$1$82             introstage
     00002C65  XG$setIntroStageGraphics$0$0       introstage
     00002C66  A$introstage$150                   introstage
     00002C66  C$introstage.c$44$1$82             introstage
     00002C66  G$InitIntroStage$0$0               introstage
     00002C66  _InitIntroStage                    introstage
     00002C67  A$introstage$154                   introstage
     00002C67  C$introstage.c$47$1$84             introstage
     00002C6A  A$introstage$158                   introstage
     00002C6A  C$introstage.c$50$1$84             introstage
     00002C6D  A$introstage$162                   introstage
     00002C6D  C$introstage.c$53$1$84             introstage
     00002C70  A$introstage$166                   introstage
     00002C70  C$introstage.c$56$1$84             introstage
     00002C73  A$introstage$167                   introstage
     00002C74  A$introstage$168                   introstage
     00002C75  A$introstage$169                   introstage
     00002C77  A$introstage$170                   introstage
     00002C79  A$introstage$171                   introstage
     00002C7B  A$introstage$172                   introstage
     00002C7D  A$introstage$174                   introstage
     00002C7E  A$introstage$176                   introstage
     00002C7F  A$introstage$177                   introstage
     00002C80  A$introstage$178                   introstage
     00002C81  A$introstage$179                   introstage
     00002C84  A$introstage$180                   introstage
     00002C85  A$introstage$181                   introstage
     00002C86  A$introstage$182                   introstage
     00002C87  A$introstage$183                   introstage
     00002C89  A$introstage$184                   introstage
     00002C8C  A$introstage$185                   introstage
     00002C8D  A$introstage$186                   introstage
     00002C8E  A$introstage$187                   introstage
     00002C8F  A$introstage$188                   introstage
     00002C91  A$introstage$189                   introstage
     00002C95  A$introstage$190                   introstage
     00002C97  A$introstage$191                   introstage
     00002C9A  A$introstage$192                   introstage
     00002C9C  A$introstage$193                   introstage
     00002C9E  A$introstage$194                   introstage
     00002CA1  A$introstage$195                   introstage
     00002CA3  A$introstage$196                   introstage
     00002CA5  A$introstage$197                   introstage
ASxxxx Linker V03.00 + NoICE + sdld,  page 141.
Hexadecimal  [32-Bits]

Area                                    Addr        Size        Decimal Bytes (Attributes)
--------------------------------        ----        ----        ------- ----- ------------
_CODE                               00000200    0000438F =       17295. bytes (REL,CON)

      Value  Global                              Global Defined In Module
      -----  --------------------------------   ------------------------
     00002CA8  A$introstage$198                   introstage
     00002CAA  A$introstage$199                   introstage
     00002CAC  A$introstage$200                   introstage
     00002CAE  A$introstage$208                   introstage
     00002CAE  C$introstage.c$58$2$85             introstage
     00002CAE  C$introstage.c$59$2$85             introstage
     00002CB1  A$introstage$212                   introstage
     00002CB1  C$introstage.c$60$2$85             introstage
     00002CB3  A$introstage$220                   introstage
     00002CB3  C$introstage.c$61$2$85             introstage
     00002CB3  C$introstage.c$62$2$85             introstage
     00002CB6  A$introstage$224                   introstage
     00002CB6  C$introstage.c$63$2$85             introstage
     00002CB8  A$introstage$232                   introstage
     00002CB8  C$introstage.c$64$2$85             introstage
     00002CB8  C$introstage.c$65$2$85             introstage
     00002CBB  A$introstage$236                   introstage
     00002CBB  C$introstage.c$66$2$85             introstage
     00002CBD  A$introstage$244                   introstage
     00002CBD  C$introstage.c$67$2$85             introstage
     00002CBD  C$introstage.c$68$2$85             introstage
     00002CC0  A$introstage$248                   introstage
     00002CC0  C$introstage.c$69$2$85             introstage
     00002CC2  A$introstage$256                   introstage
     00002CC2  C$introstage.c$70$2$85             introstage
     00002CC2  C$introstage.c$71$2$85             introstage
     00002CC5  A$introstage$264                   introstage
     00002CC5  C$introstage.c$73$1$84             introstage
     00002CC5  C$introstage.c$76$1$84             introstage
     00002CC8  A$introstage$268                   introstage
     00002CC8  C$introstage.c$79$1$84             introstage
     00002CCB  A$introstage$276                   introstage
     00002CCB  C$introstage.c$81$2$86             introstage
     00002CCB  C$introstage.c$84$2$86             introstage
     00002CCE  A$introstage$280                   introstage
     00002CCE  C$introstage.c$87$2$86             introstage
     00002CD1  A$introstage$284                   introstage
     00002CD1  C$introstage.c$90$2$86             introstage
     00002CD4  A$introstage$285                   introstage
     00002CD6  A$introstage$286                   introstage
     00002CD8  A$introstage$290                   introstage
     00002CD8  C$introstage.c$92$3$87             introstage
     00002CDB  A$introstage$295                   introstage
     00002CDB  C$introstage.c$96$2$86             introstage
     00002CDE  A$introstage$296                   introstage
     00002CDF  A$introstage$297                   introstage
     00002CE1  A$introstage$301                   introstage
     00002CE1  C$introstage.c$98$3$88             introstage
     00002CE4  A$introstage$305                   introstage
     00002CE4  C$introstage.c$99$3$88             introstage
     00002CE7  A$introstage$310                   introstage
ASxxxx Linker V03.00 + NoICE + sdld,  page 142.
Hexadecimal  [32-Bits]

Area                                    Addr        Size        Decimal Bytes (Attributes)
--------------------------------        ----        ----        ------- ----- ------------
_CODE                               00000200    0000438F =       17295. bytes (REL,CON)

      Value  Global                              Global Defined In Module
      -----  --------------------------------   ------------------------
     00002CE7  C$introstage.c$103$2$86            introstage
     00002CEA  A$introstage$311                   introstage
     00002CEB  A$introstage$312                   introstage
     00002CEC  A$introstage$313                   introstage
     00002CED  A$introstage$314                   introstage
     00002CEF  A$introstage$318                   introstage
     00002CEF  C$introstage.c$105$3$89            introstage
     00002CF2  A$introstage$323                   introstage
     00002CF2  C$introstage.c$109$2$86            introstage
     00002CF5  A$introstage$324                   introstage
     00002CF6  A$introstage$325                   introstage
     00002CF7  A$introstage$326                   introstage
     00002CFB  A$introstage$327                   introstage
     00002CFE  A$introstage$328                   introstage
     00002CFF  A$introstage$329                   introstage
     00002D00  A$introstage$330                   introstage
     00002D03  A$introstage$331                   introstage
     00002D04  A$introstage$332                   introstage
     00002D06  A$introstage$333                   introstage
     00002D09  A$introstage$334                   introstage
     00002D0A  A$introstage$335                   introstage
     00002D0B  A$introstage$339                   introstage
     00002D0B  C$introstage.c$111$3$90            introstage
     00002D0D  A$introstage$343                   introstage
     00002D0D  C$introstage.c$115$2$86            introstage
     00002D10  A$introstage$344                   introstage
     00002D12  A$introstage$346                   introstage
     00002D13  A$introstage$351                   introstage
     00002D13  C$introstage.c$117$1$84            introstage
     00002D13  XG$InitIntroStage$0$0              introstage
     00002D14  A$introstar$58                     introstar
     00002D14  C$introstar.c$5$0$0                introstar
     00002D14  C$introstar.c$7$1$49               introstar
     00002D14  G$InitIntroStar$0$0                introstar
     00002D14  _InitIntroStar                     introstar
     00002D15  A$introstar$59                     introstar
     00002D16  A$introstar$60                     introstar
     00002D17  A$introstar$61                     introstar
     00002D18  A$introstar$62                     introstar
     00002D19  A$introstar$63                     introstar
     00002D1A  A$introstar$64                     introstar
     00002D1B  A$introstar$65                     introstar
     00002D1C  A$introstar$66                     introstar
     00002D1D  A$introstar$67                     introstar
     00002D20  A$introstar$68                     introstar
     00002D21  A$introstar$69                     introstar
     00002D23  A$introstar$70                     introstar
     00002D24  A$introstar$71                     introstar
     00002D25  A$introstar$72                     introstar
     00002D26  A$introstar$73                     introstar
     00002D27  A$introstar$74                     introstar
ASxxxx Linker V03.00 + NoICE + sdld,  page 143.
Hexadecimal  [32-Bits]

Area                                    Addr        Size        Decimal Bytes (Attributes)
--------------------------------        ----        ----        ------- ----- ------------
_CODE                               00000200    0000438F =       17295. bytes (REL,CON)

      Value  Global                              Global Defined In Module
      -----  --------------------------------   ------------------------
     00002D2A  A$introstar$75                     introstar
     00002D2B  A$introstar$76                     introstar
     00002D2C  A$introstar$77                     introstar
     00002D2D  A$introstar$78                     introstar
     00002D2F  A$introstar$79                     introstar
     00002D30  A$introstar$84                     introstar
     00002D30  C$introstar.c$8$1$49               introstar
     00002D30  XG$InitIntroStar$0$0               introstar
     00002D31  A$introstar$94                     introstar
     00002D31  C$introstar.c$10$1$49              introstar
     00002D31  G$UpdateIntroStar$0$0              introstar
     00002D31  _UpdateIntroStar                   introstar
     00002D33  A$introstar$95                     introstar
     00002D37  A$introstar$96                     introstar
     00002D39  A$introstar$100                    introstar
     00002D39  C$introstar.c$12$1$51              introstar
     00002D3C  A$introstar$101                    introstar
     00002D3F  A$introstar$102                    introstar
     00002D40  A$introstar$103                    introstar
     00002D41  A$introstar$104                    introstar
     00002D42  A$introstar$105                    introstar
     00002D43  A$introstar$106                    introstar
     00002D44  A$introstar$107                    introstar
     00002D45  A$introstar$108                    introstar
     00002D46  A$introstar$109                    introstar
     00002D49  A$introstar$110                    introstar
     00002D4A  A$introstar$111                    introstar
     00002D4B  A$introstar$112                    introstar
     00002D4E  A$introstar$113                    introstar
     00002D4F  A$introstar$114                    introstar
     00002D50  A$introstar$115                    introstar
     00002D51  A$introstar$119                    introstar
     00002D51  C$introstar.c$13$1$51              introstar
     00002D52  A$introstar$120                    introstar
     00002D53  A$introstar$121                    introstar
     00002D54  A$introstar$122                    introstar
     00002D56  A$introstar$123                    introstar
     00002D59  A$introstar$124                    introstar
     00002D5A  A$introstar$125                    introstar
     00002D5B  A$introstar$126                    introstar
     00002D5C  A$introstar$130                    introstar
     00002D5C  C$introstar.c$14$1$51              introstar
     00002D5E  A$introstar$131                    introstar
     00002D60  A$introstar$136                    introstar
     00002D60  C$introstar.c$15$1$51              introstar
     00002D60  XG$UpdateIntroStar$0$0             introstar
     00002D61  A$monsterblob$59                   monsterblob
     00002D61  C$monsterblob.c$3$0$0              monsterblob
     00002D61  C$monsterblob.c$5$0$0              monsterblob
     00002D61  G$monsterblob_foo$0$0              monsterblob
     00002D61  XG$monsterblob_foo$0$0             monsterblob
ASxxxx Linker V03.00 + NoICE + sdld,  page 144.
Hexadecimal  [32-Bits]

Area                                    Addr        Size        Decimal Bytes (Attributes)
--------------------------------        ----        ----        ------- ----- ------------
_CODE                               00000200    0000438F =       17295. bytes (REL,CON)

      Value  Global                              Global Defined In Module
      -----  --------------------------------   ------------------------
     00002D61  _monsterblob_foo                   monsterblob
     00002D62  A$monsterhead$59                   monsterhead
     00002D62  C$monsterhead.c$3$0$0              monsterhead
     00002D62  C$monsterhead.c$5$0$0              monsterhead
     00002D62  G$monsterhead_foo$0$0              monsterhead
     00002D62  XG$monsterhead_foo$0$0             monsterhead
     00002D62  _monsterhead_foo                   monsterhead
     00002D63  A$monstermissil$59                 monstermissil
     00002D63  C$monstermissil.c$3$0$0            monstermissil
     00002D63  C$monstermissil.c$5$0$0            monstermissil
     00002D63  G$monstermissil_foo$0$0            monstermissil
     00002D63  XG$monstermissil_foo$0$0           monstermissil
     00002D63  _monstermissil_foo                 monstermissil
     00002D64  A$player$87                        player
     00002D64  C$player.c$21$0$0                  player
     00002D64  C$player.c$24$1$71                 player
     00002D64  G$RemovePlayer$0$0                 player
     00002D64  _RemovePlayer                      player
     00002D67  A$player$88                        player
     00002D69  A$player$92                        player
     00002D69  C$player.c$27$1$71                 player
     00002D6C  A$player$96                        player
     00002D6C  C$player.c$30$1$71                 player
     00002D6E  A$player$97                        player
     00002D6F  A$player$98                        player
     00002D70  A$player$99                        player
     00002D73  A$player$100                       player
     00002D74  A$player$101                       player
     00002D75  A$player$102                       player
     00002D78  A$player$103                       player
     00002D79  A$player$104                       player
     00002D7A  A$player$105                       player
     00002D7D  A$player$106                       player
     00002D7E  A$player$107                       player
     00002D7F  A$player$111                       player
     00002D7F  C$player.c$33$1$71                 player
     00002D82  A$player$115                       player
     00002D82  C$player.c$36$1$71                 player
     00002D85  A$player$119                       player
     00002D85  C$player.c$37$1$71                 player
     00002D86  A$player$120                       player
     00002D87  A$player$121                       player
     00002D88  A$player$122                       player
     00002D8B  A$player$123                       player
     00002D8C  A$player$128                       player
     00002D8C  C$player.c$38$1$71                 player
     00002D8C  XG$RemovePlayer$0$0                player
     00002D8D  A$player$141                       player
     00002D8D  C$player.c$41$1$71                 player
     00002D8D  C$player.c$47$1$72                 player
     00002D8D  G$CheckPlayerEnemyCollision$0$0    player
ASxxxx Linker V03.00 + NoICE + sdld,  page 145.
Hexadecimal  [32-Bits]

Area                                    Addr        Size        Decimal Bytes (Attributes)
--------------------------------        ----        ----        ------- ----- ------------
_CODE                               00000200    0000438F =       17295. bytes (REL,CON)

      Value  Global                              Global Defined In Module
      -----  --------------------------------   ------------------------
     00002D8D  _CheckPlayerEnemyCollision         player
     00002D8F  A$player$149                       player
     00002D8F  C$player.c$64$1$72                 player
     00002D8F  C$player.c$65$1$72                 player
     00002D8F  XG$CheckPlayerEnemyCollision$0$0   player
     00002D90  A$player$162                       player
     00002D90  C$player.c$68$1$72                 player
     00002D90  C$player.c$74$1$76                 player
     00002D90  G$CheckPlayerEnemyshootCollision   player
     00002D90  _CheckPlayerEnemyshootCollision    player
     00002D92  A$player$170                       player
     00002D92  C$player.c$90$1$76                 player
     00002D92  C$player.c$91$1$76                 player
     00002D92  XG$CheckPlayerEnemyshootCollisio   player
     00002D93  A$player$183                       player
     00002D93  C$player.c$94$1$76                 player
     00002D93  G$UpdatePlayerIndicators$0$0       player
     00002D93  _UpdatePlayerIndicators            player
     00002D95  A$player$185                       player
     00002D98  A$player$189                       player
     00002D98  C$player.c$98$2$81                 player
     00002D99  A$player$190                       player
     00002D9A  A$player$191                       player
     00002D9B  A$player$192                       player
     00002D9C  A$player$193                       player
     00002D9D  A$player$194                       player
     00002D9E  A$player$195                       player
     00002DA0  A$player$196                       player
     00002DA1  A$player$197                       player
     00002DA3  A$player$198                       player
     00002DA4  A$player$199                       player
     00002DA5  A$player$200                       player
     00002DA6  A$player$201                       player
     00002DA9  A$player$202                       player
     00002DAA  A$player$203                       player
     00002DAC  A$player$204                       player
     00002DAD  A$player$205                       player
     00002DAE  A$player$206                       player
     00002DAF  A$player$207                       player
     00002DB0  A$player$208                       player
     00002DB3  A$player$209                       player
     00002DB4  A$player$210                       player
     00002DB5  A$player$211                       player
     00002DB6  A$player$215                       player
     00002DB6  C$player.c$97$2$81                 player
     00002DB7  A$player$220                       player
     00002DB7  C$player.c$99$2$81                 player
     00002DB7  XG$UpdatePlayerIndicators$0$0      player
     00002DB9  A$player$233                       player
     00002DB9  C$player.c$102$2$81                player
     00002DB9  C$player.c$105$1$82                player
ASxxxx Linker V03.00 + NoICE + sdld,  page 146.
Hexadecimal  [32-Bits]

Area                                    Addr        Size        Decimal Bytes (Attributes)
--------------------------------        ----        ----        ------- ----- ------------
_CODE                               00000200    0000438F =       17295. bytes (REL,CON)

      Value  Global                              Global Defined In Module
      -----  --------------------------------   ------------------------
     00002DB9  G$InitPlayer$0$0                   player
     00002DB9  _InitPlayer                        player
     00002DBC  A$player$234                       player
     00002DBE  A$player$238                       player
     00002DBE  C$player.c$106$1$82                player
     00002DC1  A$player$239                       player
     00002DC3  A$player$243                       player
     00002DC3  C$player.c$107$1$82                player
     00002DC6  A$player$244                       player
     00002DC8  A$player$248                       player
     00002DC8  C$player.c$108$1$82                player
     00002DCB  A$player$249                       player
     00002DCD  A$player$254                       player
     00002DCD  C$player.c$109$1$82                player
     00002DCD  XG$InitPlayer$0$0                  player
     00002DCE  A$player$267                       player
     00002DCE  C$player.c$112$1$82                player
     00002DCE  C$player.c$114$1$83                player
     00002DCE  G$InitPlayerSprite$0$0             player
     00002DCE  _InitPlayerSprite                  player
     00002DD0  A$player$268                       player
     00002DD1  A$player$269                       player
     00002DD2  A$player$270                       player
     00002DD5  A$player$271                       player
     00002DD6  A$player$272                       player
     00002DD9  A$player$273                       player
     00002DDA  A$player$274                       player
     00002DDD  A$player$275                       player
     00002DDE  A$player$276                       player
     00002DDF  A$player$277                       player
     00002DE0  A$player$282                       player
     00002DE0  C$player.c$115$1$83                player
     00002DE0  XG$InitPlayerSprite$0$0            player
     00002DE1  A$player$295                       player
     00002DE1  C$player.c$118$1$83                player
     00002DE1  C$player.c$121$1$84                player
     00002DE1  G$DrawPlayer$0$0                   player
     00002DE1  _DrawPlayer                        player
     00002DE4  A$player$296                       player
     00002DE5  A$player$297                       player
     00002DE7  A$player$298                       player
     00002DEA  A$player$299                       player
     00002DEB  A$player$300                       player
     00002DEC  A$player$301                       player
     00002DEF  A$player$302                       player
     00002DF0  A$player$303                       player
     00002DF1  A$player$304                       player
     00002DF4  A$player$305                       player
     00002DF5  A$player$306                       player
     00002DF6  A$player$307                       player
     00002DF9  A$player$308                       player
ASxxxx Linker V03.00 + NoICE + sdld,  page 147.
Hexadecimal  [32-Bits]

Area                                    Addr        Size        Decimal Bytes (Attributes)
--------------------------------        ----        ----        ------- ----- ------------
_CODE                               00000200    0000438F =       17295. bytes (REL,CON)

      Value  Global                              Global Defined In Module
      -----  --------------------------------   ------------------------
     00002DFA  A$player$309                       player
     00002DFB  A$player$313                       player
     00002DFB  C$player.c$124$1$84                player
     00002DFE  A$player$314                       player
     00002DFF  A$player$315                       player
     00002E01  A$player$316                       player
     00002E04  A$player$317                       player
     00002E05  A$player$318                       player
     00002E06  A$player$319                       player
     00002E07  A$player$320                       player
     00002E0A  A$player$321                       player
     00002E0C  A$player$322                       player
     00002E0D  A$player$323                       player
     00002E10  A$player$324                       player
     00002E11  A$player$325                       player
     00002E12  A$player$326                       player
     00002E13  A$player$327                       player
     00002E14  A$player$328                       player
     00002E15  A$player$329                       player
     00002E16  A$player$330                       player
     00002E17  A$player$331                       player
     00002E18  A$player$332                       player
     00002E19  A$player$333                       player
     00002E1A  A$player$334                       player
     00002E1B  A$player$335                       player
     00002E1E  A$player$336                       player
     00002E1F  A$player$337                       player
     00002E20  A$player$342                       player
     00002E20  C$player.c$125$1$84                player
     00002E20  XG$DrawPlayer$0$0                  player
     00002E21  A$player$355                       player
     00002E21  C$player.c$128$1$84                player
     00002E21  C$player.c$131$1$85                player
     00002E21  G$MovePlayer$0$0                   player
     00002E21  _MovePlayer                        player
     00002E24  A$player$356                       player
     00002E25  A$player$357                       player
     00002E26  A$player$358                       player
     00002E2A  A$player$359                       player
     00002E2D  A$player$360                       player
     00002E2E  A$player$361                       player
     00002E2F  A$player$362                       player
     00002E32  A$player$363                       player
     00002E33  A$player$364                       player
     00002E35  A$player$368                       player
     00002E35  C$player.c$133$2$86                player
     00002E38  A$player$369                       player
     00002E3A  A$player$373                       player
     00002E3A  C$player.c$134$2$86                player
     00002E3D  A$player$374                       player
     00002E3E  A$player$375                       player
ASxxxx Linker V03.00 + NoICE + sdld,  page 148.
Hexadecimal  [32-Bits]

Area                                    Addr        Size        Decimal Bytes (Attributes)
--------------------------------        ----        ----        ------- ----- ------------
_CODE                               00000200    0000438F =       17295. bytes (REL,CON)

      Value  Global                              Global Defined In Module
      -----  --------------------------------   ------------------------
     00002E40  A$player$376                       player
     00002E43  A$player$377                       player
     00002E44  A$player$378                       player
     00002E45  A$player$379                       player
     00002E46  A$player$380                       player
     00002E49  A$player$381                       player
     00002E4A  A$player$382                       player
     00002E4C  A$player$383                       player
     00002E4D  A$player$384                       player
     00002E4E  A$player$385                       player
     00002E4F  A$player$386                       player
     00002E50  A$player$387                       player
     00002E53  A$player$388                       player
     00002E55  A$player$390                       player
     00002E58  A$player$394                       player
     00002E58  C$player.c$135$2$86                player
     00002E5B  A$player$395                       player
     00002E5C  A$player$396                       player
     00002E60  A$player$397                       player
     00002E62  A$player$398                       player
     00002E63  A$player$399                       player
     00002E64  A$player$400                       player
     00002E65  A$player$401                       player
     00002E66  A$player$402                       player
     00002E67  A$player$407                       player
     00002E67  C$player.c$137$1$85                player
     00002E6A  A$player$408                       player
     00002E6B  A$player$409                       player
     00002E6C  A$player$410                       player
     00002E70  A$player$411                       player
     00002E73  A$player$412                       player
     00002E74  A$player$413                       player
     00002E75  A$player$414                       player
     00002E78  A$player$415                       player
     00002E79  A$player$416                       player
     00002E7B  A$player$420                       player
     00002E7B  C$player.c$139$2$87                player
     00002E7E  A$player$421                       player
     00002E80  A$player$425                       player
     00002E80  C$player.c$140$2$87                player
     00002E83  A$player$426                       player
     00002E84  A$player$427                       player
     00002E86  A$player$428                       player
     00002E88  A$player$429                       player
     00002E89  A$player$430                       player
     00002E8A  A$player$431                       player
     00002E8C  A$player$432                       player
     00002E8D  A$player$433                       player
     00002E8E  A$player$434                       player
     00002E91  A$player$435                       player
     00002E92  A$player$436                       player
ASxxxx Linker V03.00 + NoICE + sdld,  page 149.
Hexadecimal  [32-Bits]

Area                                    Addr        Size        Decimal Bytes (Attributes)
--------------------------------        ----        ----        ------- ----- ------------
_CODE                               00000200    0000438F =       17295. bytes (REL,CON)

      Value  Global                              Global Defined In Module
      -----  --------------------------------   ------------------------
     00002E94  A$player$437                       player
     00002E95  A$player$438                       player
     00002E96  A$player$439                       player
     00002E97  A$player$440                       player
     00002E98  A$player$441                       player
     00002E9B  A$player$442                       player
     00002E9D  A$player$444                       player
     00002EA0  A$player$448                       player
     00002EA0  C$player.c$141$2$87                player
     00002EA3  A$player$449                       player
     00002EA4  A$player$450                       player
     00002EA8  A$player$451                       player
     00002EAA  A$player$452                       player
     00002EAB  A$player$453                       player
     00002EAC  A$player$454                       player
     00002EAD  A$player$455                       player
     00002EAE  A$player$456                       player
     00002EAF  A$player$461                       player
     00002EAF  C$player.c$143$1$85                player
     00002EB2  A$player$462                       player
     00002EB3  A$player$463                       player
     00002EB4  A$player$464                       player
     00002EB8  A$player$465                       player
     00002EBB  A$player$466                       player
     00002EBC  A$player$467                       player
     00002EBD  A$player$468                       player
     00002EC0  A$player$469                       player
     00002EC1  A$player$470                       player
     00002EC3  A$player$474                       player
     00002EC3  C$player.c$144$1$85                player
     00002EC5  A$player$475                       player
     00002EC9  A$player$476                       player
     00002ECC  A$player$477                       player
     00002ECE  A$player$481                       player
     00002ECE  C$player.c$145$1$85                player
     00002ED1  A$player$482                       player
     00002ED2  A$player$483                       player
     00002ED4  A$player$484                       player
     00002ED5  A$player$485                       player
     00002ED6  A$player$486                       player
     00002ED7  A$player$487                       player
     00002ED8  A$player$488                       player
     00002ED9  A$player$493                       player
     00002ED9  C$player.c$146$1$85                player
     00002EDC  A$player$494                       player
     00002EDD  A$player$495                       player
     00002EDE  A$player$496                       player
     00002EE2  A$player$497                       player
     00002EE5  A$player$498                       player
     00002EE6  A$player$499                       player
     00002EE7  A$player$500                       player
ASxxxx Linker V03.00 + NoICE + sdld,  page 150.
Hexadecimal  [32-Bits]

Area                                    Addr        Size        Decimal Bytes (Attributes)
--------------------------------        ----        ----        ------- ----- ------------
_CODE                               00000200    0000438F =       17295. bytes (REL,CON)

      Value  Global                              Global Defined In Module
      -----  --------------------------------   ------------------------
     00002EEA  A$player$501                       player
     00002EEB  A$player$502                       player
     00002EEC  A$player$506                       player
     00002EEC  C$player.c$147$1$85                player
     00002EF0  A$player$507                       player
     00002EF3  A$player$508                       player
     00002EF5  A$player$509                       player
     00002EF6  A$player$513                       player
     00002EF6  C$player.c$148$1$85                player
     00002EF9  A$player$514                       player
     00002EFA  A$player$515                       player
     00002EFC  A$player$516                       player
     00002EFD  A$player$517                       player
     00002EFE  A$player$518                       player
     00002EFF  A$player$519                       player
     00002F00  A$player$520                       player
     00002F01  A$player$525                       player
     00002F01  C$player.c$149$1$85                player
     00002F01  XG$MovePlayer$0$0                  player
     00002F02  A$player$538                       player
     00002F02  C$player.c$152$1$85                player
     00002F02  C$player.c$155$1$88                player
     00002F02  G$CheckShootPlayer$0$0             player
     00002F02  _CheckShootPlayer                  player
     00002F05  A$player$539                       player
     00002F06  A$player$543                       player
     00002F06  C$player.c$158$1$88                player
     00002F09  A$player$544                       player
     00002F0A  A$player$545                       player
     00002F0B  A$player$546                       player
     00002F0F  A$player$547                       player
     00002F12  A$player$548                       player
     00002F13  A$player$549                       player
     00002F14  A$player$550                       player
     00002F17  A$player$551                       player
     00002F18  A$player$552                       player
     00002F1A  A$player$556                       player
     00002F1A  C$player.c$160$2$89                player
     00002F1C  A$player$557                       player
     00002F20  A$player$558                       player
     00002F23  A$player$559                       player
     00002F24  A$player$563                       player
     00002F24  C$player.c$162$3$90                player
     00002F27  A$player$564                       player
     00002F28  A$player$565                       player
     00002F2A  A$player$566                       player
     00002F2B  A$player$567                       player
     00002F2E  A$player$568                       player
     00002F30  A$player$569                       player
     00002F31  A$player$570                       player
     00002F32  A$player$571                       player
ASxxxx Linker V03.00 + NoICE + sdld,  page 151.
Hexadecimal  [32-Bits]

Area                                    Addr        Size        Decimal Bytes (Attributes)
--------------------------------        ----        ----        ------- ----- ------------
_CODE                               00000200    0000438F =       17295. bytes (REL,CON)

      Value  Global                              Global Defined In Module
      -----  --------------------------------   ------------------------
     00002F33  A$player$572                       player
     00002F36  A$player$573                       player
     00002F38  A$player$575                       player
     00002F39  A$player$579                       player
     00002F39  C$player.c$164$4$91                player
     00002F3C  A$player$580                       player
     00002F3E  A$player$584                       player
     00002F3E  C$player.c$165$4$91                player
     00002F41  A$player$585                       player
     00002F43  A$player$586                       player
     00002F44  A$player$587                       player
     00002F45  A$player$588                       player
     00002F46  A$player$589                       player
     00002F47  A$player$590                       player
     00002F4A  A$player$591                       player
     00002F4B  A$player$592                       player
     00002F4C  A$player$593                       player
     00002F4D  A$player$594                       player
     00002F4E  A$player$595                       player
     00002F51  A$player$596                       player
     00002F52  A$player$597                       player
     00002F53  A$player$601                       player
     00002F53  C$player.c$166$4$91                player
     00002F56  A$player$602                       player
     00002F58  A$player$603                       player
     00002F59  A$player$604                       player
     00002F5B  A$player$605                       player
     00002F5C  A$player$606                       player
     00002F5D  A$player$607                       player
     00002F60  A$player$608                       player
     00002F61  A$player$609                       player
     00002F62  A$player$610                       player
     00002F63  A$player$611                       player
     00002F64  A$player$612                       player
     00002F67  A$player$613                       player
     00002F68  A$player$614                       player
     00002F69  A$player$615                       player
     00002F6A  A$player$620                       player
     00002F6A  C$player.c$171$1$88                player
     00002F6D  A$player$621                       player
     00002F6E  A$player$622                       player
     00002F6F  A$player$623                       player
     00002F73  A$player$624                       player
     00002F76  A$player$625                       player
     00002F77  A$player$626                       player
     00002F78  A$player$627                       player
     00002F7B  A$player$628                       player
     00002F7C  A$player$629                       player
     00002F7D  A$player$633                       player
     00002F7D  C$player.c$173$2$92                player
     00002F7F  A$player$634                       player
ASxxxx Linker V03.00 + NoICE + sdld,  page 152.
Hexadecimal  [32-Bits]

Area                                    Addr        Size        Decimal Bytes (Attributes)
--------------------------------        ----        ----        ------- ----- ------------
_CODE                               00000200    0000438F =       17295. bytes (REL,CON)

      Value  Global                              Global Defined In Module
      -----  --------------------------------   ------------------------
     00002F83  A$player$635                       player
     00002F86  A$player$636                       player
     00002F87  A$player$640                       player
     00002F87  C$player.c$175$3$93                player
     00002F8A  A$player$641                       player
     00002F8D  A$player$642                       player
     00002F8E  A$player$643                       player
     00002F8F  A$player$647                       player
     00002F8F  C$player.c$177$4$94                player
     00002F92  A$player$648                       player
     00002F94  A$player$652                       player
     00002F94  C$player.c$178$4$94                player
     00002F96  A$player$653                       player
     00002F97  A$player$654                       player
     00002F98  A$player$655                       player
     00002F9B  A$player$656                       player
     00002F9C  A$player$657                       player
     00002F9D  A$player$658                       player
     00002FA0  A$player$659                       player
     00002FA1  A$player$660                       player
     00002FA2  A$player$661                       player
     00002FA5  A$player$662                       player
     00002FA6  A$player$663                       player
     00002FA7  A$player$668                       player
     00002FA7  C$player.c$182$1$88                player
     00002FA7  XG$CheckShootPlayer$0$0            player
     00002FA8  A$player$681                       player
     00002FA8  C$player.c$184$1$88                player
     00002FA8  C$player.c$186$1$95                player
     00002FA8  G$UpdatePlayerState6$0$0           player
     00002FA8  _UpdatePlayerState6                player
     00002FAB  A$player$682                       player
     00002FAC  A$player$683                       player
     00002FAD  A$player$684                       player
     00002FAE  A$player$685                       player
     00002FAF  A$player$686                       player
     00002FB1  A$player$687                       player
     00002FB2  A$player$688                       player
     00002FB6  A$player$689                       player
     00002FB9  A$player$690                       player
     00002FBB  A$player$694                       player
     00002FBB  C$player.c$188$2$96                player
     00002FBE  A$player$695                       player
     00002FBF  A$player$696                       player
     00002FC0  A$player$697                       player
     00002FC1  A$player$701                       player
     00002FC1  C$player.c$189$2$96                player
     00002FC4  A$player$706                       player
     00002FC4  C$player.c$191$1$95                player
     00002FC7  A$player$707                       player
     00002FC9  A$player$708                       player
ASxxxx Linker V03.00 + NoICE + sdld,  page 153.
Hexadecimal  [32-Bits]

Area                                    Addr        Size        Decimal Bytes (Attributes)
--------------------------------        ----        ----        ------- ----- ------------
_CODE                               00000200    0000438F =       17295. bytes (REL,CON)

      Value  Global                              Global Defined In Module
      -----  --------------------------------   ------------------------
     00002FCA  A$player$712                       player
     00002FCA  C$player.c$193$2$97                player
     00002FCD  A$player$713                       player
     00002FCE  A$player$717                       player
     00002FCE  C$player.c$194$2$97                player
     00002FD1  A$player$718                       player
     00002FD3  A$player$723                       player
     00002FD3  C$player.c$196$1$95                player
     00002FD3  XG$UpdatePlayerState6$0$0          player
     00002FD4  A$player$736                       player
     00002FD4  C$player.c$198$1$95                player
     00002FD4  C$player.c$200$1$98                player
     00002FD4  G$UpdatePlayerState5$0$0           player
     00002FD4  _UpdatePlayerState5                player
     00002FD7  A$player$740                       player
     00002FD7  C$player.c$201$1$98                player
     00002FDA  A$player$744                       player
     00002FDA  C$player.c$202$1$98                player
     00002FDD  A$player$745                       player
     00002FDF  A$player$746                       player
     00002FE0  A$player$750                       player
     00002FE0  C$player.c$204$2$99                player
     00002FE3  A$player$751                       player
     00002FE5  A$player$755                       player
     00002FE5  C$player.c$205$2$99                player
     00002FE8  A$player$756                       player
     00002FE9  A$player$757                       player
     00002FEC  A$player$758                       player
     00002FED  A$player$759                       player
     00002FF0  A$player$760                       player
     00002FF1  A$player$761                       player
     00002FF2  A$player$765                       player
     00002FF2  C$player.c$206$2$99                player
     00002FF5  A$player$766                       player
     00002FF7  A$player$771                       player
     00002FF7  C$player.c$208$1$98                player
     00002FF7  XG$UpdatePlayerState5$0$0          player
     00002FF8  A$player$784                       player
     00002FF8  C$player.c$210$1$98                player
     00002FF8  C$player.c$212$1$100               player
     00002FF8  G$UpdatePlayerState4$0$0           player
     00002FF8  _UpdatePlayerState4                player
     00002FFB  A$player$785                       player
     00002FFD  A$player$786                       player
     00002FFE  A$player$790                       player
     00002FFE  C$player.c$214$2$101               player
     00003002  A$player$791                       player
     00003005  A$player$795                       player
     00003005  C$player.c$215$2$101               player
     00003008  A$player$796                       player
     00003009  A$player$797                       player
ASxxxx Linker V03.00 + NoICE + sdld,  page 154.
Hexadecimal  [32-Bits]

Area                                    Addr        Size        Decimal Bytes (Attributes)
--------------------------------        ----        ----        ------- ----- ------------
_CODE                               00000200    0000438F =       17295. bytes (REL,CON)

      Value  Global                              Global Defined In Module
      -----  --------------------------------   ------------------------
     0000300C  A$player$801                       player
     0000300C  C$player.c$218$3$102               player
     0000300F  A$player$802                       player
     00003011  A$player$806                       player
     00003011  C$player.c$219$3$102               player
     00003014  A$player$807                       player
     00003016  A$player$808                       player
     00003017  A$player$816                       player
     00003017  C$player.c$223$2$101               player
     00003017  C$player.c$225$1$100               player
     00003017  XG$UpdatePlayerState4$0$0          player
     0000301A  A$player$829                       player
     0000301A  C$player.c$227$1$100               player
     0000301A  C$player.c$229$1$103               player
     0000301A  G$UpdatePlayerState3$0$0           player
     0000301A  _UpdatePlayerState3                player
     0000301D  A$player$830                       player
     0000301E  A$player$831                       player
     00003021  A$player$832                       player
     00003022  A$player$833                       player
     00003025  A$player$834                       player
     00003026  A$player$835                       player
     00003027  A$player$836                       player
     00003028  A$player$840                       player
     00003028  C$player.c$232$1$103               player
     00003029  A$player$841                       player
     0000302B  A$player$845                       player
     0000302B  C$player.c$242$1$103               player
     0000302D  A$player$846                       player
     0000302F  A$player$850                       player
     0000302F  C$player.c$244$2$105               player
     00003032  A$player$851                       player
     00003033  A$player$852                       player
     00003034  A$player$853                       player
     00003036  A$player$854                       player
     00003037  A$player$859                       player
     00003037  C$player.c$246$1$103               player
     00003039  A$player$860                       player
     0000303B  A$player$864                       player
     0000303B  C$player.c$248$2$106               player
     0000303E  A$player$865                       player
     0000303F  A$player$866                       player
     00003040  A$player$867                       player
     00003041  A$player$872                       player
     00003041  C$player.c$252$1$103               player
     00003044  A$player$876                       player
     00003044  C$player.c$253$1$103               player
     00003047  A$player$884                       player
     00003047  C$player.c$254$1$103               player
     00003047  C$player.c$255$1$103               player
     00003047  XG$UpdatePlayerState3$0$0          player
ASxxxx Linker V03.00 + NoICE + sdld,  page 155.
Hexadecimal  [32-Bits]

Area                                    Addr        Size        Decimal Bytes (Attributes)
--------------------------------        ----        ----        ------- ----- ------------
_CODE                               00000200    0000438F =       17295. bytes (REL,CON)

      Value  Global                              Global Defined In Module
      -----  --------------------------------   ------------------------
     0000304A  A$player$897                       player
     0000304A  C$player.c$257$1$103               player
     0000304A  C$player.c$259$1$107               player
     0000304A  G$UpdatePlayerState2$0$0           player
     0000304A  _UpdatePlayerState2                player
     0000304C  A$player$898                       player
     00003050  A$player$899                       player
     00003053  A$player$900                       player
     00003055  A$player$901                       player
     00003058  A$player$902                       player
     0000305A  A$player$907                       player
     0000305A  C$player.c$260$1$107               player
     0000305D  A$player$911                       player
     0000305D  C$player.c$261$1$107               player
     00003060  A$player$915                       player
     00003060  C$player.c$263$1$107               player
     00003063  A$player$916                       player
     00003065  A$player$917                       player
     00003066  A$player$918                       player
     00003067  A$player$923                       player
     00003067  C$player.c$264$1$107               player
     00003067  XG$UpdatePlayerState2$0$0          player
     0000306A  A$player$936                       player
     0000306A  C$player.c$266$1$107               player
     0000306A  C$player.c$268$1$108               player
     0000306A  G$UpdatePlayerState1$0$0           player
     0000306A  _UpdatePlayerState1                player
     0000306E  A$player$937                       player
     00003071  A$player$941                       player
     00003071  C$player.c$269$1$108               player
     00003074  A$player$942                       player
     00003076  A$player$943                       player
     00003079  A$player$947                       player
     00003079  C$player.c$271$2$109               player
     0000307C  A$player$948                       player
     0000307E  A$player$952                       player
     0000307E  C$player.c$272$2$109               player
     00003081  A$player$953                       player
     00003083  A$player$961                       player
     00003083  C$player.c$274$1$108               player
     00003083  C$player.c$275$1$108               player
     00003083  XG$UpdatePlayerState1$0$0          player
     00003086  A$player$974                       player
     00003086  C$player.c$278$1$108               player
     00003086  C$player.c$281$1$110               player
     00003086  G$UpdatePlayer$0$0                 player
     00003086  _UpdatePlayer                      player
     00003089  A$player$975                       player
     0000308A  A$player$979                       player
     0000308A  C$player.c$284$1$110               player
     0000308D  A$player$980                       player
ASxxxx Linker V03.00 + NoICE + sdld,  page 156.
Hexadecimal  [32-Bits]

Area                                    Addr        Size        Decimal Bytes (Attributes)
--------------------------------        ----        ----        ------- ----- ------------
_CODE                               00000200    0000438F =       17295. bytes (REL,CON)

      Value  Global                              Global Defined In Module
      -----  --------------------------------   ------------------------
     0000308F  A$player$984                       player
     0000308F  C$player.c$287$1$110               player
     00003091  A$player$985                       player
     00003092  A$player$986                       player
     00003093  A$player$987                       player
     00003096  A$player$988                       player
     00003097  A$player$992                       player
     00003097  C$player.c$288$1$110               player
     0000309A  A$player$993                       player
     0000309E  A$player$994                       player
     000030A1  A$player$995                       player
     000030A3  A$player$996                       player
     000030A4  A$player$997                       player
     000030A5  A$player$998                       player
     000030A6  A$player$999                       player
     000030A7  A$player$1000                      player
     000030A8  A$player$1001                      player
     000030A9  A$player$1002                      player
     000030AA  A$player$1003                      player
     000030AB  A$player$1007                      player
     000030AB  C$player.c$289$1$110               player
     000030AC  A$player$1012                      player
     000030AC  C$player.c$290$1$110               player
     000030AC  XG$UpdatePlayer$0$0                player
     000030AF  A$player$1025                      player
     000030AF  C$player.c$292$1$110               player
     000030AF  C$player.c$294$1$111               player
     000030AF  G$InitPlayerConstants$0$0          player
     000030AF  _InitPlayerConstants               player
     000030B2  A$player$1026                      player
     000030B4  A$player$1030                      player
     000030B4  C$player.c$295$1$111               player
     000030B7  A$player$1031                      player
     000030B9  A$player$1035                      player
     000030B9  C$player.c$296$1$111               player
     000030BC  A$player$1036                      player
     000030BE  A$player$1040                      player
     000030BE  C$player.c$297$1$111               player
     000030C1  A$player$1041                      player
     000030C3  A$player$1045                      player
     000030C3  C$player.c$298$1$111               player
     000030C6  A$player$1046                      player
     000030C8  A$player$1051                      player
     000030C8  C$player.c$299$1$111               player
     000030C8  XG$InitPlayerConstants$0$0         player
     000030C9  A$playershoot$65                   playershoot
     000030C9  C$playershoot.c$9$0$0              playershoot
     000030C9  G$DrawPlayerShoot$0$0              playershoot
     000030C9  _DrawPlayerShoot                   playershoot
     000030CB  A$playershoot$66                   playershoot
     000030CF  A$playershoot$67                   playershoot
ASxxxx Linker V03.00 + NoICE + sdld,  page 157.
Hexadecimal  [32-Bits]

Area                                    Addr        Size        Decimal Bytes (Attributes)
--------------------------------        ----        ----        ------- ----- ------------
_CODE                               00000200    0000438F =       17295. bytes (REL,CON)

      Value  Global                              Global Defined In Module
      -----  --------------------------------   ------------------------
     000030D1  A$playershoot$68                   playershoot
     000030D4  A$playershoot$69                   playershoot
     000030D5  A$playershoot$70                   playershoot
     000030D6  A$playershoot$74                   playershoot
     000030D9  A$playershoot$75                   playershoot
     000030DC  A$playershoot$76                   playershoot
     000030DF  A$playershoot$77                   playershoot
     000030E0  A$playershoot$78                   playershoot
     000030E3  A$playershoot$79                   playershoot
     000030E6  A$playershoot$80                   playershoot
     000030E7  A$playershoot$81                   playershoot
     000030EA  A$playershoot$85                   playershoot
     000030EA  C$playershoot.c$13$1$72            playershoot
     000030ED  A$playershoot$86                   playershoot
     000030EE  A$playershoot$87                   playershoot
     000030F0  A$playershoot$88                   playershoot
     000030F2  A$playershoot$89                   playershoot
     000030F4  A$playershoot$91                   playershoot
     000030F5  A$playershoot$93                   playershoot
     000030F8  A$playershoot$97                   playershoot
     000030F8  C$playershoot.c$15$1$72            playershoot
     000030FB  A$playershoot$98                   playershoot
     000030FC  A$playershoot$99                   playershoot
     000030FD  A$playershoot$100                  playershoot
     000030FE  A$playershoot$101                  playershoot
     000030FF  A$playershoot$102                  playershoot
     00003100  A$playershoot$103                  playershoot
     00003101  A$playershoot$104                  playershoot
     00003102  A$playershoot$108                  playershoot
     00003102  C$playershoot.c$11$1$72            playershoot
     00003105  A$playershoot$109                  playershoot
     00003106  A$playershoot$110                  playershoot
     00003109  A$playershoot$114                  playershoot
     00003109  C$playershoot.c$13$2$73            playershoot
     0000310C  A$playershoot$115                  playershoot
     0000310D  A$playershoot$116                  playershoot
     0000310F  A$playershoot$120                  playershoot
     0000310F  C$playershoot.c$15$3$74            playershoot
     00003110  A$playershoot$121                  playershoot
     00003113  A$playershoot$122                  playershoot
     00003114  A$playershoot$123                  playershoot
     00003115  A$playershoot$124                  playershoot
     00003116  A$playershoot$125                  playershoot
     00003117  A$playershoot$126                  playershoot
     00003118  A$playershoot$127                  playershoot
     00003119  A$playershoot$128                  playershoot
     0000311C  A$playershoot$129                  playershoot
     0000311D  A$playershoot$130                  playershoot
     0000311E  A$playershoot$131                  playershoot
     0000311F  A$playershoot$135                  playershoot
     0000311F  C$playershoot.c$16$3$74            playershoot
ASxxxx Linker V03.00 + NoICE + sdld,  page 158.
Hexadecimal  [32-Bits]

Area                                    Addr        Size        Decimal Bytes (Attributes)
--------------------------------        ----        ----        ------- ----- ------------
_CODE                               00000200    0000438F =       17295. bytes (REL,CON)

      Value  Global                              Global Defined In Module
      -----  --------------------------------   ------------------------
     00003120  A$playershoot$136                  playershoot
     00003121  A$playershoot$137                  playershoot
     00003122  A$playershoot$138                  playershoot
     00003124  A$playershoot$139                  playershoot
     00003125  A$playershoot$140                  playershoot
     00003126  A$playershoot$141                  playershoot
     00003127  A$playershoot$142                  playershoot
     00003128  A$playershoot$143                  playershoot
     0000312B  A$playershoot$144                  playershoot
     0000312C  A$playershoot$145                  playershoot
     0000312D  A$playershoot$146                  playershoot
     0000312E  A$playershoot$147                  playershoot
     0000312F  A$playershoot$148                  playershoot
     00003130  A$playershoot$149                  playershoot
     00003131  A$playershoot$150                  playershoot
     00003134  A$playershoot$151                  playershoot
     00003135  A$playershoot$152                  playershoot
     00003136  A$playershoot$153                  playershoot
     00003137  A$playershoot$157                  playershoot
     00003137  C$playershoot.c$17$3$74            playershoot
     00003138  A$playershoot$158                  playershoot
     00003139  A$playershoot$159                  playershoot
     0000313A  A$playershoot$160                  playershoot
     0000313B  A$playershoot$161                  playershoot
     0000313D  A$playershoot$162                  playershoot
     0000313E  A$playershoot$163                  playershoot
     0000313F  A$playershoot$164                  playershoot
     00003142  A$playershoot$165                  playershoot
     00003143  A$playershoot$166                  playershoot
     00003144  A$playershoot$167                  playershoot
     00003147  A$playershoot$168                  playershoot
     00003148  A$playershoot$169                  playershoot
     00003149  A$playershoot$170                  playershoot
     0000314A  A$playershoot$174                  playershoot
     0000314A  C$playershoot.c$18$3$74            playershoot
     0000314B  A$playershoot$175                  playershoot
     0000314C  A$playershoot$176                  playershoot
     0000314D  A$playershoot$177                  playershoot
     0000314F  A$playershoot$178                  playershoot
     00003150  A$playershoot$179                  playershoot
     00003151  A$playershoot$180                  playershoot
     00003153  A$playershoot$181                  playershoot
     00003154  A$playershoot$182                  playershoot
     00003157  A$playershoot$183                  playershoot
     00003158  A$playershoot$184                  playershoot
     00003159  A$playershoot$185                  playershoot
     0000315A  A$playershoot$186                  playershoot
     0000315B  A$playershoot$187                  playershoot
     0000315C  A$playershoot$188                  playershoot
     0000315D  A$playershoot$189                  playershoot
     00003160  A$playershoot$190                  playershoot
ASxxxx Linker V03.00 + NoICE + sdld,  page 159.
Hexadecimal  [32-Bits]

Area                                    Addr        Size        Decimal Bytes (Attributes)
--------------------------------        ----        ----        ------- ----- ------------
_CODE                               00000200    0000438F =       17295. bytes (REL,CON)

      Value  Global                              Global Defined In Module
      -----  --------------------------------   ------------------------
     00003161  A$playershoot$191                  playershoot
     00003162  A$playershoot$192                  playershoot
     00003165  A$playershoot$197                  playershoot
     00003165  C$playershoot.c$22$3$75            playershoot
     00003166  A$playershoot$198                  playershoot
     00003167  A$playershoot$199                  playershoot
     00003168  A$playershoot$200                  playershoot
     00003169  A$playershoot$201                  playershoot
     0000316A  A$playershoot$202                  playershoot
     0000316D  A$playershoot$203                  playershoot
     0000316E  A$playershoot$204                  playershoot
     0000316F  A$playershoot$205                  playershoot
     00003170  A$playershoot$206                  playershoot
     00003171  A$playershoot$207                  playershoot
     00003172  A$playershoot$208                  playershoot
     00003173  A$playershoot$209                  playershoot
     00003176  A$playershoot$210                  playershoot
     00003177  A$playershoot$211                  playershoot
     00003178  A$playershoot$212                  playershoot
     00003179  A$playershoot$216                  playershoot
     00003179  C$playershoot.c$23$3$75            playershoot
     0000317A  A$playershoot$217                  playershoot
     0000317B  A$playershoot$218                  playershoot
     0000317C  A$playershoot$219                  playershoot
     0000317E  A$playershoot$220                  playershoot
     0000317F  A$playershoot$221                  playershoot
     00003180  A$playershoot$222                  playershoot
     00003181  A$playershoot$223                  playershoot
     00003182  A$playershoot$224                  playershoot
     00003183  A$playershoot$225                  playershoot
     00003184  A$playershoot$226                  playershoot
     00003185  A$playershoot$227                  playershoot
     00003188  A$playershoot$228                  playershoot
     00003189  A$playershoot$229                  playershoot
     0000318A  A$playershoot$230                  playershoot
     0000318B  A$playershoot$231                  playershoot
     0000318E  A$playershoot$232                  playershoot
     0000318F  A$playershoot$233                  playershoot
     00003190  A$playershoot$234                  playershoot
     00003192  A$playershoot$239                  playershoot
     00003192  C$playershoot.c$30$1$72            playershoot
     00003195  A$playershoot$240                  playershoot
     00003197  A$playershoot$241                  playershoot
     00003198  A$playershoot$242                  playershoot
     0000319B  A$playershoot$243                  playershoot
     0000319C  A$playershoot$244                  playershoot
     0000319D  A$playershoot$248                  playershoot
     0000319D  C$playershoot.c$28$2$76            playershoot
     000031A0  A$playershoot$249                  playershoot
     000031A1  A$playershoot$250                  playershoot
     000031A3  A$playershoot$254                  playershoot
ASxxxx Linker V03.00 + NoICE + sdld,  page 160.
Hexadecimal  [32-Bits]

Area                                    Addr        Size        Decimal Bytes (Attributes)
--------------------------------        ----        ----        ------- ----- ------------
_CODE                               00000200    0000438F =       17295. bytes (REL,CON)

      Value  Global                              Global Defined In Module
      -----  --------------------------------   ------------------------
     000031A3  C$playershoot.c$30$3$77            playershoot
     000031A4  A$playershoot$255                  playershoot
     000031A5  A$playershoot$256                  playershoot
     000031A6  A$playershoot$257                  playershoot
     000031A7  A$playershoot$258                  playershoot
     000031A8  A$playershoot$259                  playershoot
     000031A9  A$playershoot$260                  playershoot
     000031AA  A$playershoot$261                  playershoot
     000031AB  A$playershoot$262                  playershoot
     000031AC  A$playershoot$263                  playershoot
     000031AF  A$playershoot$264                  playershoot
     000031B0  A$playershoot$265                  playershoot
     000031B1  A$playershoot$266                  playershoot
     000031B2  A$playershoot$270                  playershoot
     000031B2  C$playershoot.c$31$3$77            playershoot
     000031B5  A$playershoot$271                  playershoot
     000031B8  A$playershoot$272                  playershoot
     000031B9  A$playershoot$273                  playershoot
     000031BB  A$playershoot$274                  playershoot
     000031BF  A$playershoot$275                  playershoot
     000031C1  A$playershoot$276                  playershoot
     000031C2  A$playershoot$277                  playershoot
     000031C3  A$playershoot$278                  playershoot
     000031C4  A$playershoot$279                  playershoot
     000031C5  A$playershoot$280                  playershoot
     000031C7  A$playershoot$281                  playershoot
     000031C8  A$playershoot$282                  playershoot
     000031CA  A$playershoot$283                  playershoot
     000031CB  A$playershoot$284                  playershoot
     000031CC  A$playershoot$285                  playershoot
     000031CF  A$playershoot$286                  playershoot
     000031D0  A$playershoot$287                  playershoot
     000031D1  A$playershoot$288                  playershoot
     000031D3  A$playershoot$293                  playershoot
     000031D3  C$playershoot.c$33$2$76            playershoot
     000031D4  A$playershoot$294                  playershoot
     000031D5  A$playershoot$295                  playershoot
     000031D6  A$playershoot$296                  playershoot
     000031D7  A$playershoot$297                  playershoot
     000031D8  A$playershoot$298                  playershoot
     000031D9  A$playershoot$299                  playershoot
     000031DA  A$playershoot$300                  playershoot
     000031DB  A$playershoot$301                  playershoot
     000031DC  A$playershoot$302                  playershoot
     000031DD  A$playershoot$303                  playershoot
     000031E0  A$playershoot$304                  playershoot
     000031E1  A$playershoot$305                  playershoot
     000031E2  A$playershoot$307                  playershoot
     000031E4  A$playershoot$308                  playershoot
     000031E6  A$playershoot$313                  playershoot
     000031E6  C$playershoot.c$35$1$72            playershoot
ASxxxx Linker V03.00 + NoICE + sdld,  page 161.
Hexadecimal  [32-Bits]

Area                                    Addr        Size        Decimal Bytes (Attributes)
--------------------------------        ----        ----        ------- ----- ------------
_CODE                               00000200    0000438F =       17295. bytes (REL,CON)

      Value  Global                              Global Defined In Module
      -----  --------------------------------   ------------------------
     000031E6  XG$DrawPlayerShoot$0$0             playershoot
     000031E7  A$playershoot$326                  playershoot
     000031E7  C$playershoot.c$38$1$72            playershoot
     000031E7  C$playershoot.c$40$1$78            playershoot
     000031E7  G$InitPlayershootSprites$0$0       playershoot
     000031E7  _InitPlayershootSprites            playershoot
     000031E9  A$playershoot$327                  playershoot
     000031EA  A$playershoot$328                  playershoot
     000031EB  A$playershoot$329                  playershoot
     000031EE  A$playershoot$330                  playershoot
     000031EF  A$playershoot$331                  playershoot
     000031F2  A$playershoot$332                  playershoot
     000031F3  A$playershoot$333                  playershoot
     000031F6  A$playershoot$334                  playershoot
     000031F7  A$playershoot$335                  playershoot
     000031F8  A$playershoot$336                  playershoot
     000031F9  A$playershoot$341                  playershoot
     000031F9  C$playershoot.c$41$1$78            playershoot
     000031F9  XG$InitPlayershootSprites$0$0      playershoot
     000031FA  A$playershoot$351                  playershoot
     000031FA  C$playershoot.c$44$1$78            playershoot
     000031FA  G$RemovePlayershoot$0$0            playershoot
     000031FA  _RemovePlayershoot                 playershoot
     000031FC  A$playershoot$352                  playershoot
     00003200  A$playershoot$353                  playershoot
     00003202  A$playershoot$357                  playershoot
     00003202  C$playershoot.c$49$1$80            playershoot
     00003205  A$playershoot$358                  playershoot
     00003206  A$playershoot$359                  playershoot
     00003208  A$playershoot$360                  playershoot
     00003209  A$playershoot$361                  playershoot
     0000320C  A$playershoot$362                  playershoot
     0000320F  A$playershoot$363                  playershoot
     00003210  A$playershoot$364                  playershoot
     00003211  A$playershoot$365                  playershoot
     00003212  A$playershoot$366                  playershoot
     00003213  A$playershoot$367                  playershoot
     00003214  A$playershoot$368                  playershoot
     00003215  A$playershoot$369                  playershoot
     00003216  A$playershoot$370                  playershoot
     00003219  A$playershoot$371                  playershoot
     0000321B  A$playershoot$373                  playershoot
     0000321E  A$playershoot$377                  playershoot
     0000321E  C$playershoot.c$51$2$81            playershoot
     00003221  A$playershoot$378                  playershoot
     00003224  A$playershoot$379                  playershoot
     00003225  A$playershoot$380                  playershoot
     00003227  A$playershoot$381                  playershoot
     00003228  A$playershoot$382                  playershoot
     00003229  A$playershoot$383                  playershoot
     0000322A  A$playershoot$384                  playershoot
ASxxxx Linker V03.00 + NoICE + sdld,  page 162.
Hexadecimal  [32-Bits]

Area                                    Addr        Size        Decimal Bytes (Attributes)
--------------------------------        ----        ----        ------- ----- ------------
_CODE                               00000200    0000438F =       17295. bytes (REL,CON)

      Value  Global                              Global Defined In Module
      -----  --------------------------------   ------------------------
     0000322B  A$playershoot$385                  playershoot
     0000322C  A$playershoot$386                  playershoot
     0000322D  A$playershoot$387                  playershoot
     0000322E  A$playershoot$388                  playershoot
     0000322F  A$playershoot$389                  playershoot
     00003230  A$playershoot$390                  playershoot
     00003231  A$playershoot$394                  playershoot
     00003231  C$playershoot.c$52$2$81            playershoot
     00003234  A$playershoot$395                  playershoot
     00003236  A$playershoot$396                  playershoot
     00003237  A$playershoot$397                  playershoot
     00003238  A$playershoot$398                  playershoot
     0000323A  A$playershoot$399                  playershoot
     0000323B  A$playershoot$400                  playershoot
     0000323C  A$playershoot$401                  playershoot
     0000323D  A$playershoot$402                  playershoot
     0000323E  A$playershoot$403                  playershoot
     0000323F  A$playershoot$404                  playershoot
     00003240  A$playershoot$405                  playershoot
     00003241  A$playershoot$406                  playershoot
     00003242  A$playershoot$407                  playershoot
     00003244  A$playershoot$411                  playershoot
     00003244  C$playershoot.c$54$2$81            playershoot
     00003247  A$playershoot$412                  playershoot
     00003248  A$playershoot$416                  playershoot
     00003248  C$playershoot.c$55$2$81            playershoot
     00003249  A$playershoot$417                  playershoot
     0000324A  A$playershoot$418                  playershoot
     0000324B  A$playershoot$419                  playershoot
     0000324D  A$playershoot$420                  playershoot
     0000324E  A$playershoot$421                  playershoot
     0000324F  A$playershoot$422                  playershoot
     00003250  A$playershoot$423                  playershoot
     00003251  A$playershoot$427                  playershoot
     00003251  C$playershoot.c$56$2$81            playershoot
     00003252  A$playershoot$428                  playershoot
     00003253  A$playershoot$429                  playershoot
     00003254  A$playershoot$430                  playershoot
     00003255  A$playershoot$431                  playershoot
     00003257  A$playershoot$432                  playershoot
     00003258  A$playershoot$433                  playershoot
     00003259  A$playershoot$434                  playershoot
     0000325A  A$playershoot$435                  playershoot
     0000325B  A$playershoot$436                  playershoot
     0000325C  A$playershoot$440                  playershoot
     0000325C  C$playershoot.c$57$2$81            playershoot
     0000325D  A$playershoot$441                  playershoot
     0000325E  A$playershoot$442                  playershoot
     0000325F  A$playershoot$443                  playershoot
     00003260  A$playershoot$444                  playershoot
     00003261  A$playershoot$445                  playershoot
ASxxxx Linker V03.00 + NoICE + sdld,  page 163.
Hexadecimal  [32-Bits]

Area                                    Addr        Size        Decimal Bytes (Attributes)
--------------------------------        ----        ----        ------- ----- ------------
_CODE                               00000200    0000438F =       17295. bytes (REL,CON)

      Value  Global                              Global Defined In Module
      -----  --------------------------------   ------------------------
     00003263  A$playershoot$446                  playershoot
     00003264  A$playershoot$447                  playershoot
     00003265  A$playershoot$448                  playershoot
     00003266  A$playershoot$449                  playershoot
     00003267  A$playershoot$450                  playershoot
     00003268  A$playershoot$451                  playershoot
     00003269  A$playershoot$455                  playershoot
     00003269  C$playershoot.c$58$2$81            playershoot
     0000326A  A$playershoot$456                  playershoot
     0000326B  A$playershoot$457                  playershoot
     0000326C  A$playershoot$458                  playershoot
     0000326D  A$playershoot$459                  playershoot
     00003270  A$playershoot$460                  playershoot
     00003271  A$playershoot$465                  playershoot
     00003271  C$playershoot.c$61$1$80            playershoot
     00003274  A$playershoot$466                  playershoot
     00003275  A$playershoot$467                  playershoot
     00003277  A$playershoot$472                  playershoot
     00003277  C$playershoot.c$62$1$80            playershoot
     00003277  XG$RemovePlayershoot$0$0           playershoot
     00003278  A$playershoot$482                  playershoot
     00003278  C$playershoot.c$65$1$80            playershoot
     00003278  G$UpdatePlayershoot$0$0            playershoot
     00003278  _UpdatePlayershoot                 playershoot
     0000327A  A$playershoot$483                  playershoot
     0000327E  A$playershoot$484                  playershoot
     00003280  A$playershoot$485                  playershoot
     00003281  A$playershoot$486                  playershoot
     00003282  A$playershoot$490                  playershoot
     00003282  C$playershoot.c$71$1$83            playershoot
     00003285  A$playershoot$491                  playershoot
     00003288  A$playershoot$492                  playershoot
     0000328B  A$playershoot$493                  playershoot
     0000328C  A$playershoot$494                  playershoot
     0000328D  A$playershoot$495                  playershoot
     0000328E  A$playershoot$496                  playershoot
     0000328F  A$playershoot$497                  playershoot
     00003290  A$playershoot$498                  playershoot
     00003291  A$playershoot$499                  playershoot
     00003292  A$playershoot$500                  playershoot
     00003293  A$playershoot$504                  playershoot
     00003293  C$playershoot.c$74$1$83            playershoot
     00003294  A$playershoot$505                  playershoot
     00003295  A$playershoot$506                  playershoot
     00003296  A$playershoot$507                  playershoot
     00003297  A$playershoot$508                  playershoot
     00003298  A$playershoot$509                  playershoot
     0000329A  A$playershoot$510                  playershoot
     0000329C  A$playershoot$511                  playershoot
     0000329D  A$playershoot$512                  playershoot
     0000329E  A$playershoot$513                  playershoot
ASxxxx Linker V03.00 + NoICE + sdld,  page 164.
Hexadecimal  [32-Bits]

Area                                    Addr        Size        Decimal Bytes (Attributes)
--------------------------------        ----        ----        ------- ----- ------------
_CODE                               00000200    0000438F =       17295. bytes (REL,CON)

      Value  Global                              Global Defined In Module
      -----  --------------------------------   ------------------------
     0000329F  A$playershoot$514                  playershoot
     000032A0  A$playershoot$515                  playershoot
     000032A2  A$playershoot$516                  playershoot
     000032A4  A$playershoot$517                  playershoot
     000032A6  A$playershoot$518                  playershoot
     000032A7  A$playershoot$519                  playershoot
     000032A9  A$playershoot$524                  playershoot
     000032A9  C$playershoot.c$75$1$83            playershoot
     000032AC  A$playershoot$525                  playershoot
     000032AD  A$playershoot$526                  playershoot
     000032AE  A$playershoot$527                  playershoot
     000032B1  A$playershoot$528                  playershoot
     000032B2  A$playershoot$529                  playershoot
     000032B5  A$playershoot$534                  playershoot
     000032B5  C$playershoot.c$79$2$84            playershoot
     000032B6  A$playershoot$535                  playershoot
     000032B7  A$playershoot$536                  playershoot
     000032B8  A$playershoot$537                  playershoot
     000032B9  A$playershoot$538                  playershoot
     000032BA  A$playershoot$539                  playershoot
     000032BB  A$playershoot$540                  playershoot
     000032BC  A$playershoot$541                  playershoot
     000032BD  A$playershoot$542                  playershoot
     000032BE  A$playershoot$543                  playershoot
     000032BF  A$playershoot$544                  playershoot
     000032C0  A$playershoot$548                  playershoot
     000032C0  C$playershoot.c$80$2$84            playershoot
     000032C1  A$playershoot$549                  playershoot
     000032C2  A$playershoot$550                  playershoot
     000032C3  A$playershoot$551                  playershoot
     000032C4  A$playershoot$552                  playershoot
     000032C5  A$playershoot$553                  playershoot
     000032C6  A$playershoot$554                  playershoot
     000032C7  A$playershoot$555                  playershoot
     000032C8  A$playershoot$556                  playershoot
     000032C9  A$playershoot$557                  playershoot
     000032CA  A$playershoot$558                  playershoot
     000032CB  A$playershoot$559                  playershoot
     000032CC  A$playershoot$563                  playershoot
     000032CC  C$playershoot.c$83$2$84            playershoot
     000032CF  A$playershoot$564                  playershoot
     000032D0  A$playershoot$565                  playershoot
     000032D3  A$playershoot$569                  playershoot
     000032D3  C$playershoot.c$84$2$84            playershoot
     000032D4  A$playershoot$570                  playershoot
     000032D5  A$playershoot$571                  playershoot
     000032D6  A$playershoot$572                  playershoot
     000032D7  A$playershoot$573                  playershoot
     000032D8  A$playershoot$574                  playershoot
     000032D9  A$playershoot$575                  playershoot
     000032DA  A$playershoot$576                  playershoot
ASxxxx Linker V03.00 + NoICE + sdld,  page 165.
Hexadecimal  [32-Bits]

Area                                    Addr        Size        Decimal Bytes (Attributes)
--------------------------------        ----        ----        ------- ----- ------------
_CODE                               00000200    0000438F =       17295. bytes (REL,CON)

      Value  Global                              Global Defined In Module
      -----  --------------------------------   ------------------------
     000032DB  A$playershoot$577                  playershoot
     000032DC  A$playershoot$578                  playershoot
     000032DE  A$playershoot$579                  playershoot
     000032DF  A$playershoot$580                  playershoot
     000032E0  A$playershoot$581                  playershoot
     000032E1  A$playershoot$582                  playershoot
     000032E4  A$playershoot$583                  playershoot
     000032E5  A$playershoot$584                  playershoot
     000032E6  A$playershoot$585                  playershoot
     000032E7  A$playershoot$586                  playershoot
     000032E8  A$playershoot$587                  playershoot
     000032EA  A$playershoot$591                  playershoot
     000032EA  C$playershoot.c$86$3$85            playershoot
     000032EB  A$playershoot$592                  playershoot
     000032EC  A$playershoot$593                  playershoot
     000032ED  A$playershoot$594                  playershoot
     000032EE  A$playershoot$595                  playershoot
     000032EF  A$playershoot$596                  playershoot
     000032F0  A$playershoot$597                  playershoot
     000032F1  A$playershoot$598                  playershoot
     000032F2  A$playershoot$599                  playershoot
     000032F3  A$playershoot$600                  playershoot
     000032F4  A$playershoot$601                  playershoot
     000032F5  A$playershoot$602                  playershoot
     000032F6  A$playershoot$603                  playershoot
     000032F7  A$playershoot$604                  playershoot
     000032F8  A$playershoot$605                  playershoot
     000032F9  A$playershoot$606                  playershoot
     000032FA  A$playershoot$607                  playershoot
     000032FB  A$playershoot$608                  playershoot
     000032FC  A$playershoot$609                  playershoot
     000032FF  A$playershoot$610                  playershoot
     00003300  A$playershoot$611                  playershoot
     00003301  A$playershoot$615                  playershoot
     00003301  C$playershoot.c$87$3$85            playershoot
     00003304  A$playershoot$616                  playershoot
     00003305  A$playershoot$617                  playershoot
     00003306  A$playershoot$618                  playershoot
     00003309  A$playershoot$619                  playershoot
     0000330A  A$playershoot$620                  playershoot
     0000330D  A$playershoot$625                  playershoot
     0000330D  C$playershoot.c$93$3$86            playershoot
     00003311  A$playershoot$626                  playershoot
     00003314  A$playershoot$627                  playershoot
     00003315  A$playershoot$628                  playershoot
     00003318  A$playershoot$632                  playershoot
     0000331B  A$playershoot$633                  playershoot
     0000331C  A$playershoot$634                  playershoot
     0000331D  A$playershoot$636                  playershoot
     0000331F  A$playershoot$637                  playershoot
     00003322  A$playershoot$641                  playershoot
ASxxxx Linker V03.00 + NoICE + sdld,  page 166.
Hexadecimal  [32-Bits]

Area                                    Addr        Size        Decimal Bytes (Attributes)
--------------------------------        ----        ----        ------- ----- ------------
_CODE                               00000200    0000438F =       17295. bytes (REL,CON)

      Value  Global                              Global Defined In Module
      -----  --------------------------------   ------------------------
     00003322  C$playershoot.c$97$6$89            playershoot
     00003323  A$playershoot$642                  playershoot
     00003324  A$playershoot$643                  playershoot
     00003326  A$playershoot$644                  playershoot
     00003327  A$playershoot$645                  playershoot
     00003328  A$playershoot$646                  playershoot
     00003329  A$playershoot$647                  playershoot
     0000332A  A$playershoot$648                  playershoot
     0000332B  A$playershoot$649                  playershoot
     0000332C  A$playershoot$650                  playershoot
     0000332D  A$playershoot$651                  playershoot
     0000332E  A$playershoot$652                  playershoot
     00003331  A$playershoot$653                  playershoot
     00003332  A$playershoot$654                  playershoot
     00003333  A$playershoot$658                  playershoot
     00003333  C$playershoot.c$98$6$89            playershoot
     00003334  A$playershoot$659                  playershoot
     00003335  A$playershoot$660                  playershoot
     00003338  A$playershoot$661                  playershoot
     0000333B  A$playershoot$662                  playershoot
     0000333C  A$playershoot$663                  playershoot
     0000333D  A$playershoot$664                  playershoot
     00003340  A$playershoot$665                  playershoot
     00003341  A$playershoot$666                  playershoot
     00003342  A$playershoot$667                  playershoot
     00003343  A$playershoot$668                  playershoot
     00003344  A$playershoot$669                  playershoot
     00003345  A$playershoot$670                  playershoot
     00003347  A$playershoot$674                  playershoot
     00003347  C$playershoot.c$100$7$90           playershoot
     0000334A  A$playershoot$675                  playershoot
     0000334B  A$playershoot$676                  playershoot
     0000334C  A$playershoot$677                  playershoot
     0000334D  A$playershoot$678                  playershoot
     0000334E  A$playershoot$679                  playershoot
     00003352  A$playershoot$680                  playershoot
     00003355  A$playershoot$681                  playershoot
     00003357  A$playershoot$682                  playershoot
     00003358  A$playershoot$683                  playershoot
     0000335B  A$playershoot$684                  playershoot
     0000335F  A$playershoot$685                  playershoot
     00003360  A$playershoot$686                  playershoot
     00003363  A$playershoot$687                  playershoot
     00003364  A$playershoot$688                  playershoot
     00003367  A$playershoot$689                  playershoot
     0000336A  A$playershoot$690                  playershoot
     0000336C  A$playershoot$692                  playershoot
     0000336F  A$playershoot$696                  playershoot
     0000336F  C$playershoot.c$101$7$90           playershoot
     00003370  A$playershoot$697                  playershoot
     00003371  A$playershoot$698                  playershoot
ASxxxx Linker V03.00 + NoICE + sdld,  page 167.
Hexadecimal  [32-Bits]

Area                                    Addr        Size        Decimal Bytes (Attributes)
--------------------------------        ----        ----        ------- ----- ------------
_CODE                               00000200    0000438F =       17295. bytes (REL,CON)

      Value  Global                              Global Defined In Module
      -----  --------------------------------   ------------------------
     00003374  A$playershoot$699                  playershoot
     00003375  A$playershoot$700                  playershoot
     00003377  A$playershoot$705                  playershoot
     00003377  C$playershoot.c$104$8$91           playershoot
     0000337A  A$playershoot$706                  playershoot
     0000337B  A$playershoot$707                  playershoot
     0000337C  A$playershoot$708                  playershoot
     0000337D  A$playershoot$709                  playershoot
     0000337E  A$playershoot$710                  playershoot
     0000337F  A$playershoot$714                  playershoot
     0000337F  C$playershoot.c$105$8$91           playershoot
     00003380  A$playershoot$715                  playershoot
     00003381  A$playershoot$716                  playershoot
     00003382  A$playershoot$717                  playershoot
     00003383  A$playershoot$718                  playershoot
     00003384  A$playershoot$719                  playershoot
     00003385  A$playershoot$720                  playershoot
     00003386  A$playershoot$721                  playershoot
     00003387  A$playershoot$722                  playershoot
     00003388  A$playershoot$723                  playershoot
     00003389  A$playershoot$724                  playershoot
     0000338A  A$playershoot$725                  playershoot
     0000338B  A$playershoot$726                  playershoot
     0000338C  A$playershoot$727                  playershoot
     0000338D  A$playershoot$728                  playershoot
     0000338E  A$playershoot$729                  playershoot
     0000338F  A$playershoot$730                  playershoot
     00003390  A$playershoot$731                  playershoot
     00003391  A$playershoot$732                  playershoot
     00003392  A$playershoot$733                  playershoot
     00003393  A$playershoot$734                  playershoot
     00003396  A$playershoot$735                  playershoot
     00003397  A$playershoot$736                  playershoot
     00003398  A$playershoot$741                  playershoot
     00003398  C$playershoot.c$109$7$90           playershoot
     0000339B  A$playershoot$742                  playershoot
     0000339C  A$playershoot$743                  playershoot
     0000339D  A$playershoot$744                  playershoot
     000033A0  A$playershoot$745                  playershoot
     000033A1  A$playershoot$749                  playershoot
     000033A1  C$playershoot.c$112$7$90           playershoot
     000033A3  A$playershoot$754                  playershoot
     000033A3  C$playershoot.c$95$5$88            playershoot
     000033A4  A$playershoot$755                  playershoot
     000033A5  A$playershoot$756                  playershoot
     000033A8  A$playershoot$761                  playershoot
     000033A8  C$playershoot.c$119$2$84           playershoot
     000033A9  A$playershoot$762                  playershoot
     000033AA  A$playershoot$763                  playershoot
     000033AB  A$playershoot$764                  playershoot
     000033AE  A$playershoot$765                  playershoot
ASxxxx Linker V03.00 + NoICE + sdld,  page 168.
Hexadecimal  [32-Bits]

Area                                    Addr        Size        Decimal Bytes (Attributes)
--------------------------------        ----        ----        ------- ----- ------------
_CODE                               00000200    0000438F =       17295. bytes (REL,CON)

      Value  Global                              Global Defined In Module
      -----  --------------------------------   ------------------------
     000033AF  A$playershoot$767                  playershoot
     000033B1  A$playershoot$768                  playershoot
     000033B3  A$playershoot$773                  playershoot
     000033B3  C$playershoot.c$121$1$83           playershoot
     000033B3  XG$UpdatePlayershoot$0$0           playershoot
     000033B4  A$playershoot$786                  playershoot
     000033B4  C$playershoot.c$124$1$83           playershoot
     000033B4  C$playershoot.c$129$1$92           playershoot
     000033B4  G$UpdatePlayershoots$0$0           playershoot
     000033B4  _UpdatePlayershoots                playershoot
     000033B8  A$playershoot$787                  playershoot
     000033BB  A$playershoot$788                  playershoot
     000033BC  A$playershoot$789                  playershoot
     000033BD  A$playershoot$793                  playershoot
     000033C0  A$playershoot$794                  playershoot
     000033C1  A$playershoot$796                  playershoot
     000033C3  A$playershoot$797                  playershoot
     000033C4  A$playershoot$801                  playershoot
     000033C4  C$playershoot.c$131$2$93           playershoot
     000033C5  A$playershoot$802                  playershoot
     000033C6  A$playershoot$803                  playershoot
     000033C7  A$playershoot$804                  playershoot
     000033C8  A$playershoot$805                  playershoot
     000033C9  A$playershoot$806                  playershoot
     000033CA  A$playershoot$807                  playershoot
     000033CB  A$playershoot$808                  playershoot
     000033CE  A$playershoot$809                  playershoot
     000033CF  A$playershoot$810                  playershoot
     000033D0  A$playershoot$814                  playershoot
     000033D0  C$playershoot.c$130$2$93           playershoot
     000033D1  A$playershoot$819                  playershoot
     000033D1  C$playershoot.c$132$1$92           playershoot
     000033D1  XG$UpdatePlayershoots$0$0          playershoot
     000033D3  A$playershoot$829                  playershoot
     000033D3  C$playershoot.c$135$1$92           playershoot
     000033D3  G$InitPlayershoot$0$0              playershoot
     000033D3  _InitPlayershoot                   playershoot
     000033D5  A$playershoot$830                  playershoot
     000033D9  A$playershoot$831                  playershoot
     000033DB  A$playershoot$835                  playershoot
     000033DB  C$playershoot.c$140$1$95           playershoot
     000033DE  A$playershoot$836                  playershoot
     000033E2  A$playershoot$837                  playershoot
     000033E5  A$playershoot$838                  playershoot
     000033E8  A$playershoot$839                  playershoot
     000033EA  A$playershoot$840                  playershoot
     000033EB  A$playershoot$841                  playershoot
     000033EC  A$playershoot$842                  playershoot
     000033ED  A$playershoot$843                  playershoot
     000033EE  A$playershoot$844                  playershoot
     000033EF  A$playershoot$845                  playershoot
ASxxxx Linker V03.00 + NoICE + sdld,  page 169.
Hexadecimal  [32-Bits]

Area                                    Addr        Size        Decimal Bytes (Attributes)
--------------------------------        ----        ----        ------- ----- ------------
_CODE                               00000200    0000438F =       17295. bytes (REL,CON)

      Value  Global                              Global Defined In Module
      -----  --------------------------------   ------------------------
     000033F0  A$playershoot$846                  playershoot
     000033F1  A$playershoot$847                  playershoot
     000033F2  A$playershoot$851                  playershoot
     000033F2  C$playershoot.c$143$1$95           playershoot
     000033F5  A$playershoot$852                  playershoot
     000033F6  A$playershoot$856                  playershoot
     000033F6  C$playershoot.c$144$1$95           playershoot
     000033F7  A$playershoot$857                  playershoot
     000033F8  A$playershoot$858                  playershoot
     000033F9  A$playershoot$859                  playershoot
     000033FC  A$playershoot$860                  playershoot
     000033FD  A$playershoot$864                  playershoot
     000033FD  C$playershoot.c$145$1$95           playershoot
     000033FE  A$playershoot$865                  playershoot
     000033FF  A$playershoot$866                  playershoot
     00003400  A$playershoot$867                  playershoot
     00003401  A$playershoot$868                  playershoot
     00003404  A$playershoot$869                  playershoot
     00003405  A$playershoot$873                  playershoot
     00003405  C$playershoot.c$148$1$95           playershoot
     00003406  A$playershoot$874                  playershoot
     00003408  A$playershoot$875                  playershoot
     00003409  A$playershoot$876                  playershoot
     0000340A  A$playershoot$877                  playershoot
     0000340D  A$playershoot$878                  playershoot
     0000340E  A$playershoot$879                  playershoot
     0000340F  A$playershoot$883                  playershoot
     0000340F  C$playershoot.c$149$1$95           playershoot
     00003410  A$playershoot$884                  playershoot
     00003411  A$playershoot$885                  playershoot
     00003412  A$playershoot$886                  playershoot
     00003413  A$playershoot$887                  playershoot
     00003414  A$playershoot$888                  playershoot
     00003417  A$playershoot$889                  playershoot
     00003419  A$playershoot$890                  playershoot
     0000341A  A$playershoot$891                  playershoot
     0000341C  A$playershoot$892                  playershoot
     0000341E  A$playershoot$893                  playershoot
     0000341F  A$playershoot$894                  playershoot
     00003420  A$playershoot$895                  playershoot
     00003421  A$playershoot$899                  playershoot
     00003421  C$playershoot.c$150$1$95           playershoot
     00003422  A$playershoot$900                  playershoot
     00003423  A$playershoot$901                  playershoot
     00003424  A$playershoot$902                  playershoot
     00003425  A$playershoot$903                  playershoot
     00003428  A$playershoot$904                  playershoot
     0000342B  A$playershoot$905                  playershoot
     0000342D  A$playershoot$906                  playershoot
     0000342E  A$playershoot$907                  playershoot
     0000342F  A$playershoot$908                  playershoot
ASxxxx Linker V03.00 + NoICE + sdld,  page 170.
Hexadecimal  [32-Bits]

Area                                    Addr        Size        Decimal Bytes (Attributes)
--------------------------------        ----        ----        ------- ----- ------------
_CODE                               00000200    0000438F =       17295. bytes (REL,CON)

      Value  Global                              Global Defined In Module
      -----  --------------------------------   ------------------------
     00003430  A$playershoot$909                  playershoot
     00003432  A$playershoot$914                  playershoot
     00003432  C$playershoot.c$151$1$95           playershoot
     00003432  XG$InitPlayershoot$0$0             playershoot
     00003433  A$playershoot$927                  playershoot
     00003433  C$playershoot.c$153$1$95           playershoot
     00003433  C$playershoot.c$156$1$96           playershoot
     00003433  G$InitPlayershoots$0$0             playershoot
     00003433  _InitPlayershoots                  playershoot
     00003436  A$playershoot$931                  playershoot
     00003436  C$playershoot.c$159$1$96           playershoot
     00003439  A$playershoot$932                  playershoot
     0000343B  A$playershoot$937                  playershoot
     0000343B  C$playershoot.c$160$1$96           playershoot
     0000343B  XG$InitPlayershoots$0$0            playershoot
     0000343C  A$playstage$95                     playstage
     0000343C  C$playstage.c$18$0$0               playstage
     0000343C  G$InitStageSprite$0$0              playstage
     0000343C  _InitStageSprite                   playstage
     0000343E  A$playstage$96                     playstage
     00003442  A$playstage$97                     playstage
     00003444  A$playstage$101                    playstage
     00003444  C$playstage.c$24$1$101             playstage
     00003447  A$playstage$102                    playstage
     00003449  A$playstage$103                    playstage
     0000344A  A$playstage$104                    playstage
     0000344B  A$playstage$105                    playstage
     0000344E  A$playstage$106                    playstage
     0000344F  A$playstage$107                    playstage
     00003450  A$playstage$108                    playstage
     00003451  A$playstage$109                    playstage
     00003452  A$playstage$113                    playstage
     00003452  C$playstage.c$25$1$101             playstage
     00003455  A$playstage$114                    playstage
     00003456  A$playstage$115                    playstage
     00003457  A$playstage$116                    playstage
     00003458  A$playstage$117                    playstage
     00003459  A$playstage$121                    playstage
     00003459  C$playstage.c$26$1$101             playstage
     0000345C  A$playstage$122                    playstage
     0000345E  A$playstage$123                    playstage
     0000345F  A$playstage$124                    playstage
     00003461  A$playstage$125                    playstage
     00003463  A$playstage$126                    playstage
     00003464  A$playstage$127                    playstage
     00003465  A$playstage$131                    playstage
     00003465  C$playstage.c$27$1$101             playstage
     00003466  A$playstage$132                    playstage
     00003467  A$playstage$133                    playstage
     00003468  A$playstage$134                    playstage
     00003469  A$playstage$135                    playstage
ASxxxx Linker V03.00 + NoICE + sdld,  page 171.
Hexadecimal  [32-Bits]

Area                                    Addr        Size        Decimal Bytes (Attributes)
--------------------------------        ----        ----        ------- ----- ------------
_CODE                               00000200    0000438F =       17295. bytes (REL,CON)

      Value  Global                              Global Defined In Module
      -----  --------------------------------   ------------------------
     0000346C  A$playstage$136                    playstage
     0000346D  A$playstage$137                    playstage
     0000346E  A$playstage$138                    playstage
     0000346F  A$playstage$139                    playstage
     00003471  A$playstage$144                    playstage
     00003471  C$playstage.c$28$1$101             playstage
     00003471  XG$InitStageSprite$0$0             playstage
     00003472  A$playstage$157                    playstage
     00003472  C$playstage.c$30$1$101             playstage
     00003472  G$InitStageSprites$0$0             playstage
     00003472  _InitStageSprites                  playstage
     00003474  A$playstage$159                    playstage
     00003477  A$playstage$160                    playstage
     00003478  A$playstage$161                    playstage
     00003479  A$playstage$162                    playstage
     0000347A  A$playstage$163                    playstage
     0000347B  A$playstage$167                    playstage
     0000347B  C$playstage.c$35$3$105             playstage
     0000347C  A$playstage$168                    playstage
     0000347E  A$playstage$169                    playstage
     0000347F  A$playstage$170                    playstage
     00003480  A$playstage$171                    playstage
     00003483  A$playstage$172                    playstage
     00003484  A$playstage$173                    playstage
     00003485  A$playstage$177                    playstage
     00003485  C$playstage.c$36$3$105             playstage
     00003488  A$playstage$178                    playstage
     00003489  A$playstage$179                    playstage
     0000348A  A$playstage$180                    playstage
     0000348B  A$playstage$181                    playstage
     0000348C  A$playstage$182                    playstage
     0000348D  A$playstage$183                    playstage
     0000348F  A$playstage$184                    playstage
     00003490  A$playstage$185                    playstage
     00003491  A$playstage$186                    playstage
     00003492  A$playstage$187                    playstage
     00003493  A$playstage$188                    playstage
     00003494  A$playstage$189                    playstage
     00003497  A$playstage$190                    playstage
     00003498  A$playstage$191                    playstage
     00003499  A$playstage$195                    playstage
     00003499  C$playstage.c$33$2$104             playstage
     0000349A  A$playstage$200                    playstage
     0000349A  C$playstage.c$38$2$104             playstage
     0000349A  XG$InitStageSprites$0$0            playstage
     0000349C  A$playstage$213                    playstage
     0000349C  C$playstage.c$40$2$104             playstage
     0000349C  C$playstage.c$43$1$106             playstage
     0000349C  G$InitAfterBossStage$0$0           playstage
     0000349C  _InitAfterBossStage                playstage
     0000349F  A$playstage$217                    playstage
ASxxxx Linker V03.00 + NoICE + sdld,  page 172.
Hexadecimal  [32-Bits]

Area                                    Addr        Size        Decimal Bytes (Attributes)
--------------------------------        ----        ----        ------- ----- ------------
_CODE                               00000200    0000438F =       17295. bytes (REL,CON)

      Value  Global                              Global Defined In Module
      -----  --------------------------------   ------------------------
     0000349F  C$playstage.c$44$1$106             playstage
     000034A1  A$playstage$218                    playstage
     000034A2  A$playstage$219                    playstage
     000034A3  A$playstage$220                    playstage
     000034A6  A$playstage$221                    playstage
     000034A7  A$playstage$225                    playstage
     000034A7  C$playstage.c$47$1$106             playstage
     000034AA  A$playstage$229                    playstage
     000034AA  C$playstage.c$50$1$106             playstage
     000034AD  A$playstage$230                    playstage
     000034AF  A$playstage$234                    playstage
     000034AF  C$playstage.c$51$1$106             playstage
     000034B2  A$playstage$235                    playstage
     000034B4  A$playstage$240                    playstage
     000034B4  C$playstage.c$52$1$106             playstage
     000034B4  XG$InitAfterBossStage$0$0          playstage
     000034B5  A$playstage$253                    playstage
     000034B5  C$playstage.c$54$1$106             playstage
     000034B5  C$playstage.c$57$1$107             playstage
     000034B5  G$InitCustomStageData$0$0          playstage
     000034B5  _InitCustomStageData               playstage
     000034B8  A$playstage$254                    playstage
     000034BB  A$playstage$255                    playstage
     000034BD  A$playstage$256                    playstage
     000034BE  A$playstage$260                    playstage
     000034BE  C$playstage.c$60$1$107             playstage
     000034C0  A$playstage$261                    playstage
     000034C1  A$playstage$262                    playstage
     000034C2  A$playstage$263                    playstage
     000034C5  A$playstage$264                    playstage
     000034C6  A$playstage$268                    playstage
     000034C6  C$playstage.c$63$1$107             playstage
     000034C9  A$playstage$269                    playstage
     000034CD  A$playstage$270                    playstage
     000034D0  A$playstage$271                    playstage
     000034D2  A$playstage$272                    playstage
     000034D3  A$playstage$273                    playstage
     000034D4  A$playstage$274                    playstage
     000034D5  A$playstage$275                    playstage
     000034D6  A$playstage$276                    playstage
     000034D7  A$playstage$277                    playstage
     000034D8  A$playstage$282                    playstage
     000034D8  C$playstage.c$64$1$107             playstage
     000034D8  XG$InitCustomStageData$0$0         playstage
     000034DB  A$playstage$292                    playstage
     000034DB  C$playstage.c$66$1$107             playstage
     000034DB  G$InitStageData$0$0                playstage
     000034DB  _InitStageData                     playstage
     000034DD  A$playstage$293                    playstage
     000034E1  A$playstage$294                    playstage
     000034E3  A$playstage$295                    playstage
ASxxxx Linker V03.00 + NoICE + sdld,  page 173.
Hexadecimal  [32-Bits]

Area                                    Addr        Size        Decimal Bytes (Attributes)
--------------------------------        ----        ----        ------- ----- ------------
_CODE                               00000200    0000438F =       17295. bytes (REL,CON)

      Value  Global                              Global Defined In Module
      -----  --------------------------------   ------------------------
     000034E6  A$playstage$296                    playstage
     000034E7  A$playstage$297                    playstage
     000034E8  A$playstage$301                    playstage
     000034E8  C$playstage.c$78$1$109             playstage
     000034EA  A$playstage$302                    playstage
     000034EB  A$playstage$303                    playstage
     000034EC  A$playstage$304                    playstage
     000034EF  A$playstage$305                    playstage
     000034F0  A$playstage$309                    playstage
     000034F0  C$playstage.c$81$1$109             playstage
     000034F2  A$playstage$310                    playstage
     000034F4  A$playstage$312                    playstage
     000034F8  A$playstage$313                    playstage
     000034FC  A$playstage$315                    playstage
     000034FD  A$playstage$316                    playstage
     000034FF  A$playstage$320                    playstage
     000034FF  C$playstage.c$84$1$109             playstage
     00003502  A$playstage$321                    playstage
     00003505  A$playstage$322                    playstage
     00003508  A$playstage$323                    playstage
     00003509  A$playstage$324                    playstage
     0000350A  A$playstage$325                    playstage
     0000350B  A$playstage$326                    playstage
     0000350E  A$playstage$327                    playstage
     0000350F  A$playstage$328                    playstage
     00003510  A$playstage$329                    playstage
     00003513  A$playstage$330                    playstage
     00003516  A$playstage$331                    playstage
     00003518  A$playstage$332                    playstage
     0000351B  A$playstage$337                    playstage
     0000351B  C$playstage.c$85$1$109             playstage
     0000351E  A$playstage$338                    playstage
     00003521  A$playstage$339                    playstage
     00003522  A$playstage$340                    playstage
     00003523  A$playstage$341                    playstage
     00003524  A$playstage$342                    playstage
     00003525  A$playstage$343                    playstage
     00003526  A$playstage$344                    playstage
     00003529  A$playstage$345                    playstage
     0000352C  A$playstage$346                    playstage
     0000352F  A$playstage$347                    playstage
     00003531  A$playstage$348                    playstage
     00003534  A$playstage$353                    playstage
     00003534  C$playstage.c$86$1$109             playstage
     00003537  A$playstage$354                    playstage
     0000353A  A$playstage$355                    playstage
     0000353B  A$playstage$356                    playstage
     0000353C  A$playstage$357                    playstage
     0000353D  A$playstage$358                    playstage
     00003540  A$playstage$359                    playstage
     00003541  A$playstage$360                    playstage
ASxxxx Linker V03.00 + NoICE + sdld,  page 174.
Hexadecimal  [32-Bits]

Area                                    Addr        Size        Decimal Bytes (Attributes)
--------------------------------        ----        ----        ------- ----- ------------
_CODE                               00000200    0000438F =       17295. bytes (REL,CON)

      Value  Global                              Global Defined In Module
      -----  --------------------------------   ------------------------
     00003542  A$playstage$361                    playstage
     00003545  A$playstage$362                    playstage
     00003548  A$playstage$363                    playstage
     0000354A  A$playstage$364                    playstage
     0000354D  A$playstage$369                    playstage
     0000354D  C$playstage.c$87$1$109             playstage
     00003550  A$playstage$370                    playstage
     00003553  A$playstage$371                    playstage
     00003554  A$playstage$372                    playstage
     00003555  A$playstage$373                    playstage
     00003556  A$playstage$374                    playstage
     00003557  A$playstage$375                    playstage
     00003558  A$playstage$376                    playstage
     00003559  A$playstage$377                    playstage
     0000355A  A$playstage$378                    playstage
     0000355B  A$playstage$379                    playstage
     0000355E  A$playstage$380                    playstage
     00003560  A$playstage$381                    playstage
     00003563  A$playstage$386                    playstage
     00003563  C$playstage.c$88$1$109             playstage
     00003566  A$playstage$387                    playstage
     00003569  A$playstage$388                    playstage
     0000356A  A$playstage$389                    playstage
     0000356B  A$playstage$390                    playstage
     0000356C  A$playstage$391                    playstage
     0000356F  A$playstage$392                    playstage
     00003570  A$playstage$393                    playstage
     00003571  A$playstage$394                    playstage
     00003574  A$playstage$395                    playstage
     00003577  A$playstage$396                    playstage
     00003579  A$playstage$397                    playstage
     0000357C  A$playstage$402                    playstage
     0000357C  C$playstage.c$89$1$109             playstage
     0000357F  A$playstage$403                    playstage
     00003582  A$playstage$404                    playstage
     00003583  A$playstage$405                    playstage
     00003584  A$playstage$406                    playstage
     00003585  A$playstage$407                    playstage
     00003586  A$playstage$408                    playstage
     00003587  A$playstage$409                    playstage
     0000358A  A$playstage$410                    playstage
     0000358C  A$playstage$411                    playstage
     0000358F  A$playstage$416                    playstage
     0000358F  C$playstage.c$90$1$109             playstage
     00003592  A$playstage$417                    playstage
     00003595  A$playstage$418                    playstage
     00003596  A$playstage$419                    playstage
     00003598  A$playstage$420                    playstage
     0000359B  A$playstage$421                    playstage
     0000359C  A$playstage$422                    playstage
     0000359E  A$playstage$423                    playstage
ASxxxx Linker V03.00 + NoICE + sdld,  page 175.
Hexadecimal  [32-Bits]

Area                                    Addr        Size        Decimal Bytes (Attributes)
--------------------------------        ----        ----        ------- ----- ------------
_CODE                               00000200    0000438F =       17295. bytes (REL,CON)

      Value  Global                              Global Defined In Module
      -----  --------------------------------   ------------------------
     000035A1  A$playstage$424                    playstage
     000035A2  A$playstage$425                    playstage
     000035A3  A$playstage$426                    playstage
     000035A4  A$playstage$427                    playstage
     000035A5  A$playstage$428                    playstage
     000035A6  A$playstage$429                    playstage
     000035A9  A$playstage$430                    playstage
     000035AC  A$playstage$434                    playstage
     000035AC  C$playstage.c$91$1$109             playstage
     000035AF  A$playstage$435                    playstage
     000035B2  A$playstage$436                    playstage
     000035B3  A$playstage$437                    playstage
     000035B4  A$playstage$438                    playstage
     000035B5  A$playstage$439                    playstage
     000035B6  A$playstage$440                    playstage
     000035B7  A$playstage$444                    playstage
     000035B7  C$playstage.c$94$1$109             playstage
     000035BA  A$playstage$445                    playstage
     000035BD  A$playstage$446                    playstage
     000035BE  A$playstage$450                    playstage
     000035BE  C$playstage.c$97$1$109             playstage
     000035BF  A$playstage$451                    playstage
     000035C0  A$playstage$452                    playstage
     000035C1  A$playstage$453                    playstage
     000035C2  A$playstage$454                    playstage
     000035C5  A$playstage$455                    playstage
     000035C8  A$playstage$456                    playstage
     000035C9  A$playstage$457                    playstage
     000035CC  A$playstage$458                    playstage
     000035CD  A$playstage$459                    playstage
     000035CE  A$playstage$460                    playstage
     000035D1  A$playstage$461                    playstage
     000035D4  A$playstage$462                    playstage
     000035D5  A$playstage$463                    playstage
     000035D8  A$playstage$464                    playstage
     000035DB  A$playstage$465                    playstage
     000035DC  A$playstage$466                    playstage
     000035DF  A$playstage$467                    playstage
     000035E2  A$playstage$468                    playstage
     000035E3  A$playstage$469                    playstage
     000035E6  A$playstage$470                    playstage
     000035E9  A$playstage$471                    playstage
     000035EA  A$playstage$472                    playstage
     000035EB  A$playstage$473                    playstage
     000035EC  A$playstage$474                    playstage
     000035ED  A$playstage$475                    playstage
     000035EE  A$playstage$476                    playstage
     000035EF  A$playstage$477                    playstage
     000035F2  A$playstage$478                    playstage
     000035F3  A$playstage$479                    playstage
     000035F4  A$playstage$480                    playstage
ASxxxx Linker V03.00 + NoICE + sdld,  page 176.
Hexadecimal  [32-Bits]

Area                                    Addr        Size        Decimal Bytes (Attributes)
--------------------------------        ----        ----        ------- ----- ------------
_CODE                               00000200    0000438F =       17295. bytes (REL,CON)

      Value  Global                              Global Defined In Module
      -----  --------------------------------   ------------------------
     000035F5  A$playstage$484                    playstage
     000035F5  C$playstage.c$106$1$109            playstage
     000035F6  A$playstage$485                    playstage
     000035F7  A$playstage$486                    playstage
     000035F9  A$playstage$490                    playstage
     000035F9  C$playstage.c$108$2$110            playstage
     000035FC  A$playstage$491                    playstage
     000035FD  A$playstage$492                    playstage
     000035FE  A$playstage$493                    playstage
     000035FF  A$playstage$494                    playstage
     00003600  A$playstage$495                    playstage
     00003601  A$playstage$496                    playstage
     00003602  A$playstage$497                    playstage
     00003605  A$playstage$498                    playstage
     00003606  A$playstage$499                    playstage
     00003607  A$playstage$501                    playstage
     00003609  A$playstage$502                    playstage
     0000360B  A$playstage$507                    playstage
     0000360B  C$playstage.c$110$1$109            playstage
     0000360B  XG$InitStageData$0$0               playstage
     0000360C  A$playstage$520                    playstage
     0000360C  C$playstage.c$113$1$109            playstage
     0000360C  C$playstage.c$116$1$111            playstage
     0000360C  G$UpdateStagePassA$0$0             playstage
     0000360C  _UpdateStagePassA                  playstage
     0000360F  A$playstage$524                    playstage
     0000360F  C$playstage.c$119$1$111            playstage
     00003612  A$playstage$528                    playstage
     00003612  C$playstage.c$122$1$111            playstage
     00003615  A$playstage$532                    playstage
     00003615  C$playstage.c$125$1$111            playstage
     00003618  A$playstage$536                    playstage
     00003618  C$playstage.c$128$1$111            playstage
     0000361B  A$playstage$544                    playstage
     0000361B  C$playstage.c$131$1$111            playstage
     0000361B  C$playstage.c$132$1$111            playstage
     0000361B  XG$UpdateStagePassA$0$0            playstage
     0000361E  A$playstage$561                    playstage
     0000361E  C$playstage.c$135$1$111            playstage
     0000361E  C$playstage.c$138$1$112            playstage
     0000361E  C$playstage.c$139$1$112            playstage
     0000361E  G$UpdateStagePassB$0$0             playstage
     0000361E  XG$UpdateStagePassB$0$0            playstage
     0000361E  _UpdateStagePassB                  playstage
     00003621  A$playstage$574                    playstage
     00003621  C$playstage.c$142$1$112            playstage
     00003621  C$playstage.c$145$1$113            playstage
     00003621  G$InitPlayStage$0$0                playstage
     00003621  _InitPlayStage                     playstage
     00003624  A$playstage$575                    playstage
     00003627  A$playstage$579                    playstage
ASxxxx Linker V03.00 + NoICE + sdld,  page 177.
Hexadecimal  [32-Bits]

Area                                    Addr        Size        Decimal Bytes (Attributes)
--------------------------------        ----        ----        ------- ----- ------------
_CODE                               00000200    0000438F =       17295. bytes (REL,CON)

      Value  Global                              Global Defined In Module
      -----  --------------------------------   ------------------------
     00003627  C$playstage.c$148$1$113            playstage
     0000362A  A$playstage$583                    playstage
     0000362A  C$playstage.c$151$1$113            playstage
     0000362D  A$playstage$587                    playstage
     0000362D  C$playstage.c$154$1$113            playstage
     00003630  A$playstage$591                    playstage
     00003630  C$playstage.c$157$1$113            playstage
     00003633  A$playstage$595                    playstage
     00003633  C$playstage.c$160$1$113            playstage
     00003636  A$playstage$599                    playstage
     00003636  C$playstage.c$163$1$113            playstage
     00003639  A$playstage$603                    playstage
     00003639  C$playstage.c$166$1$113            playstage
     0000363C  A$playstage$607                    playstage
     0000363C  C$playstage.c$169$1$113            playstage
     0000363F  A$playstage$608                    playstage
     00003641  A$playstage$609                    playstage
     00003643  A$playstage$613                    playstage
     00003643  C$playstage.c$171$2$114            playstage
     00003646  A$playstage$614                    playstage
     00003647  A$playstage$615                    playstage
     00003649  A$playstage$616                    playstage
     0000364D  A$playstage$617                    playstage
     00003650  A$playstage$618                    playstage
     00003652  A$playstage$619                    playstage
     00003653  A$playstage$620                    playstage
     00003656  A$playstage$621                    playstage
     00003657  A$playstage$622                    playstage
     00003658  A$playstage$623                    playstage
     0000365B  A$playstage$624                    playstage
     0000365C  A$playstage$625                    playstage
     0000365D  A$playstage$626                    playstage
     0000365E  A$playstage$627                    playstage
     00003661  A$playstage$628                    playstage
     00003662  A$playstage$629                    playstage
     00003663  A$playstage$630                    playstage
     00003665  A$playstage$635                    playstage
     00003665  C$playstage.c$175$2$115            playstage
     00003668  A$playstage$636                    playstage
     0000366B  A$playstage$641                    playstage
     0000366B  C$playstage.c$179$1$113            playstage
     0000366E  A$playstage$642                    playstage
     0000366F  A$playstage$643                    playstage
     00003671  A$playstage$644                    playstage
     00003672  A$playstage$645                    playstage
     00003675  A$playstage$646                    playstage
     00003676  A$playstage$647                    playstage
     00003677  A$playstage$648                    playstage
     00003679  A$playstage$649                    playstage
     0000367A  A$playstage$650                    playstage
     0000367D  A$playstage$651                    playstage
ASxxxx Linker V03.00 + NoICE + sdld,  page 178.
Hexadecimal  [32-Bits]

Area                                    Addr        Size        Decimal Bytes (Attributes)
--------------------------------        ----        ----        ------- ----- ------------
_CODE                               00000200    0000438F =       17295. bytes (REL,CON)

      Value  Global                              Global Defined In Module
      -----  --------------------------------   ------------------------
     0000367E  A$playstage$655                    playstage
     0000367E  C$playstage.c$182$1$113            playstage
     00003681  A$playstage$659                    playstage
     00003681  C$playstage.c$185$1$113            playstage
     00003684  A$playstage$663                    playstage
     00003684  C$playstage.c$188$1$113            playstage
     00003687  A$playstage$667                    playstage
     00003687  C$playstage.c$191$1$113            playstage
     0000368A  A$playstage$671                    playstage
     0000368A  C$playstage.c$194$1$113            playstage
     0000368D  A$playstage$675                    playstage
     0000368D  C$playstage.c$197$1$113            playstage
     00003690  A$playstage$679                    playstage
     00003690  C$playstage.c$200$1$113            playstage
     00003693  A$playstage$683                    playstage
     00003693  C$playstage.c$203$1$113            playstage
     00003696  A$playstage$684                    playstage
     00003698  A$playstage$688                    playstage
     00003698  C$playstage.c$206$1$113            playstage
     0000369B  A$playstage$689                    playstage
     0000369D  A$playstage$693                    playstage
     0000369D  C$playstage.c$209$1$113            playstage
     000036A0  A$playstage$694                    playstage
     000036A2  A$playstage$702                    playstage
     000036A2  C$playstage.c$212$1$113            playstage
     000036A2  C$playstage.c$215$2$116            playstage
     000036A5  A$playstage$706                    playstage
     000036A5  C$playstage.c$217$2$116            playstage
     000036A8  A$playstage$707                    playstage
     000036A9  A$playstage$708                    playstage
     000036AB  A$playstage$712                    playstage
     000036AB  C$playstage.c$220$3$117            playstage
     000036AE  A$playstage$716                    playstage
     000036AE  C$playstage.c$223$3$117            playstage
     000036B1  A$playstage$720                    playstage
     000036B1  C$playstage.c$226$3$117            playstage
     000036B4  A$playstage$724                    playstage
     000036B4  C$playstage.c$229$3$117            playstage
     000036B7  A$playstage$725                    playstage
     000036B8  A$playstage$726                    playstage
     000036BA  A$playstage$730                    playstage
     000036BA  C$playstage.c$231$4$118            playstage
     000036BD  A$playstage$731                    playstage
     000036BF  A$playstage$736                    playstage
     000036BF  C$playstage.c$235$4$119            playstage
     000036C2  A$playstage$741                    playstage
     000036C2  C$playstage.c$239$3$117            playstage
     000036C5  A$playstage$742                    playstage
     000036C7  A$playstage$743                    playstage
     000036C9  A$playstage$747                    playstage
     000036C9  C$playstage.c$241$4$120            playstage
ASxxxx Linker V03.00 + NoICE + sdld,  page 179.
Hexadecimal  [32-Bits]

Area                                    Addr        Size        Decimal Bytes (Attributes)
--------------------------------        ----        ----        ------- ----- ------------
_CODE                               00000200    0000438F =       17295. bytes (REL,CON)

      Value  Global                              Global Defined In Module
      -----  --------------------------------   ------------------------
     000036CC  A$playstage$752                    playstage
     000036CC  C$playstage.c$245$3$117            playstage
     000036CF  A$playstage$753                    playstage
     000036D0  A$playstage$754                    playstage
     000036D1  A$playstage$758                    playstage
     000036D1  C$playstage.c$247$4$121            playstage
     000036D3  A$playstage$763                    playstage
     000036D3  C$playstage.c$251$3$117            playstage
     000036D6  A$playstage$764                    playstage
     000036D8  A$playstage$769                    playstage
     000036D8  C$playstage.c$256$3$122            playstage
     000036DB  A$playstage$773                    playstage
     000036DB  C$playstage.c$259$3$122            playstage
     000036DE  A$playstage$777                    playstage
     000036DE  C$playstage.c$262$3$122            playstage
     000036E1  A$playstage$778                    playstage
     000036E3  A$playstage$783                    playstage
     000036E3  C$playstage.c$265$1$113            playstage
     000036E3  XG$InitPlayStage$0$0               playstage
     000036E5  A$spaceasteroid$59                 spaceasteroid
     000036E5  C$spaceasteroid.c$3$0$0            spaceasteroid
     000036E5  C$spaceasteroid.c$5$0$0            spaceasteroid
     000036E5  G$spaceasteroid_foo$0$0            spaceasteroid
     000036E5  XG$spaceasteroid_foo$0$0           spaceasteroid
     000036E5  _spaceasteroid_foo                 spaceasteroid
     000036E6  A$spaceshooter$59                  spaceshooter
     000036E6  C$spaceshooter.c$3$0$0             spaceshooter
     000036E6  C$spaceshooter.c$5$0$0             spaceshooter
     000036E6  G$spaceshooter_foo$0$0             spaceshooter
     000036E6  XG$spaceshooter_foo$0$0            spaceshooter
     000036E6  _spaceshooter_foo                  spaceshooter
     000036E7  A$spacestation$59                  spacestation
     000036E7  C$spacestation.c$3$0$0             spacestation
     000036E7  C$spacestation.c$5$0$0             spacestation
     000036E7  G$spacestation_foo$0$0             spacestation
     000036E7  XG$spacestation_foo$0$0            spacestation
     000036E7  _spacestation_foo                  spacestation
     000036E8  A$stage1$59                        stage1
     000036E8  C$stage1.c$3$0$0                   stage1
     000036E8  C$stage1.c$5$0$0                   stage1
     000036E8  G$stage1_foo$0$0                   stage1
     000036E8  XG$stage1_foo$0$0                  stage1
     000036E8  _stage1_foo                        stage1
     000036E9  A$stage1endboss$59                 stage1endboss
     000036E9  C$stage1endboss.c$3$0$0            stage1endboss
     000036E9  C$stage1endboss.c$5$0$0            stage1endboss
     000036E9  G$stage1endboss_foo$0$0            stage1endboss
     000036E9  XG$stage1endboss_foo$0$0           stage1endboss
     000036E9  _stage1endboss_foo                 stage1endboss
     000036EA  A$stage1middleboss$59              stage1middleboss
     000036EA  C$stage1middleboss.c$3$0$0         stage1middleboss
ASxxxx Linker V03.00 + NoICE + sdld,  page 180.
Hexadecimal  [32-Bits]

Area                                    Addr        Size        Decimal Bytes (Attributes)
--------------------------------        ----        ----        ------- ----- ------------
_CODE                               00000200    0000438F =       17295. bytes (REL,CON)

      Value  Global                              Global Defined In Module
      -----  --------------------------------   ------------------------
     000036EA  C$stage1middleboss.c$5$0$0         stage1middleboss
     000036EA  G$stage1middleboss_foo$0$0         stage1middleboss
     000036EA  XG$stage1middleboss_foo$0$0        stage1middleboss
     000036EA  _stage1middleboss_foo              stage1middleboss
     000036EB  A$stage1middlebossb$59             stage1middlebossb
     000036EB  C$stage1middlebossb.c$3$0$0        stage1middlebossb
     000036EB  C$stage1middlebossb.c$5$0$0        stage1middlebossb
     000036EB  G$stage1middlebossb_foo$0$0        stage1middlebossb
     000036EB  XG$stage1middlebossb_foo$0$0       stage1middlebossb
     000036EB  _stage1middlebossb_foo             stage1middlebossb
     000036EC  A$stage1middlebossc$59             stage1middlebossc
     000036EC  C$stage1middlebossc.c$3$0$0        stage1middlebossc
     000036EC  C$stage1middlebossc.c$5$0$0        stage1middlebossc
     000036EC  G$stage1middlebossc_foo$0$0        stage1middlebossc
     000036EC  XG$stage1middlebossc_foo$0$0       stage1middlebossc
     000036EC  _stage1middlebossc_foo             stage1middlebossc
     000036ED  A$stage2$59                        stage2
     000036ED  C$stage2.c$3$0$0                   stage2
     000036ED  C$stage2.c$5$0$0                   stage2
     000036ED  G$stage2_foo$0$0                   stage2
     000036ED  XG$stage2_foo$0$0                  stage2
     000036ED  _stage2_foo                        stage2
     000036EE  A$stage2endboss$59                 stage2endboss
     000036EE  C$stage2endboss.c$3$0$0            stage2endboss
     000036EE  C$stage2endboss.c$5$0$0            stage2endboss
     000036EE  G$stage2endboss_foo$0$0            stage2endboss
     000036EE  XG$stage2endboss_foo$0$0           stage2endboss
     000036EE  _stage2endboss_foo                 stage2endboss
     000036EF  A$stage2object$59                  stage2object
     000036EF  C$stage2object.c$3$0$0             stage2object
     000036EF  C$stage2object.c$5$0$0             stage2object
     000036EF  G$stage2object_foo$0$0             stage2object
     000036EF  XG$stage2object_foo$0$0            stage2object
     000036EF  _stage2object_foo                  stage2object
     000036F0  A$stage3$59                        stage3
     000036F0  C$stage3.c$3$0$0                   stage3
     000036F0  C$stage3.c$5$0$0                   stage3
     000036F0  G$stage3_foo$0$0                   stage3
     000036F0  XG$stage3_foo$0$0                  stage3
     000036F0  _stage3_foo                        stage3
     000036F1  A$stage3endboss$59                 stage3endboss
     000036F1  C$stage3endboss.c$3$0$0            stage3endboss
     000036F1  C$stage3endboss.c$5$0$0            stage3endboss
     000036F1  G$stage3endboss_foo$0$0            stage3endboss
     000036F1  XG$stage3endboss_foo$0$0           stage3endboss
     000036F1  _stage3endboss_foo                 stage3endboss
     000036F2  A$stage3laser$59                   stage3laser
     000036F2  C$stage3laser.c$3$0$0              stage3laser
     000036F2  C$stage3laser.c$5$0$0              stage3laser
     000036F2  G$stage3laser_foo$0$0              stage3laser
     000036F2  XG$stage3laser_foo$0$0             stage3laser
ASxxxx Linker V03.00 + NoICE + sdld,  page 181.
Hexadecimal  [32-Bits]

Area                                    Addr        Size        Decimal Bytes (Attributes)
--------------------------------        ----        ----        ------- ----- ------------
_CODE                               00000200    0000438F =       17295. bytes (REL,CON)

      Value  Global                              Global Defined In Module
      -----  --------------------------------   ------------------------
     000036F2  _stage3laser_foo                   stage3laser
     000036F3  A$stage3star$61                    stage3star
     000036F3  C$stage3star.c$6$0$0               stage3star
     000036F3  C$stage3star.c$8$1$51              stage3star
     000036F3  G$InitStage3Star$0$0               stage3star
     000036F3  _InitStage3Star                    stage3star
     000036F4  A$stage3star$62                    stage3star
     000036F5  A$stage3star$63                    stage3star
     000036F6  A$stage3star$64                    stage3star
     000036F7  A$stage3star$65                    stage3star
     000036F8  A$stage3star$66                    stage3star
     000036FB  A$stage3star$67                    stage3star
     000036FC  A$stage3star$68                    stage3star
     000036FE  A$stage3star$69                    stage3star
     000036FF  A$stage3star$70                    stage3star
     00003700  A$stage3star$71                    stage3star
     00003701  A$stage3star$72                    stage3star
     00003702  A$stage3star$73                    stage3star
     00003705  A$stage3star$74                    stage3star
     00003706  A$stage3star$75                    stage3star
     00003707  A$stage3star$76                    stage3star
     00003708  A$stage3star$77                    stage3star
     0000370A  A$stage3star$78                    stage3star
     0000370B  A$stage3star$82                    stage3star
     0000370B  C$stage3star.c$9$1$51              stage3star
     0000370C  A$stage3star$83                    stage3star
     0000370D  A$stage3star$84                    stage3star
     0000370E  A$stage3star$85                    stage3star
     0000370F  A$stage3star$86                    stage3star
     00003710  A$stage3star$87                    stage3star
     00003713  A$stage3star$88                    stage3star
     00003714  A$stage3star$89                    stage3star
     00003716  A$stage3star$90                    stage3star
     00003717  A$stage3star$91                    stage3star
     00003718  A$stage3star$92                    stage3star
     00003719  A$stage3star$93                    stage3star
     0000371A  A$stage3star$94                    stage3star
     0000371D  A$stage3star$95                    stage3star
     0000371E  A$stage3star$96                    stage3star
     0000371F  A$stage3star$97                    stage3star
     00003720  A$stage3star$98                    stage3star
     00003721  A$stage3star$99                    stage3star
     00003722  A$stage3star$103                   stage3star
     00003722  C$stage3star.c$10$1$51             stage3star
     00003723  A$stage3star$104                   stage3star
     00003724  A$stage3star$105                   stage3star
     00003727  A$stage3star$106                   stage3star
     00003728  A$stage3star$107                   stage3star
     00003729  A$stage3star$108                   stage3star
     0000372A  A$stage3star$113                   stage3star
     0000372A  C$stage3star.c$11$1$51             stage3star
ASxxxx Linker V03.00 + NoICE + sdld,  page 182.
Hexadecimal  [32-Bits]

Area                                    Addr        Size        Decimal Bytes (Attributes)
--------------------------------        ----        ----        ------- ----- ------------
_CODE                               00000200    0000438F =       17295. bytes (REL,CON)

      Value  Global                              Global Defined In Module
      -----  --------------------------------   ------------------------
     0000372A  XG$InitStage3Star$0$0              stage3star
     0000372B  A$stage3star$123                   stage3star
     0000372B  C$stage3star.c$13$1$51             stage3star
     0000372B  G$UpdateStarMovement$0$0           stage3star
     0000372B  _UpdateStarMovement                stage3star
     0000372D  A$stage3star$124                   stage3star
     00003731  A$stage3star$125                   stage3star
     00003733  A$stage3star$129                   stage3star
     00003733  C$stage3star.c$15$1$53             stage3star
     00003736  A$stage3star$130                   stage3star
     00003739  A$stage3star$131                   stage3star
     0000373A  A$stage3star$132                   stage3star
     0000373C  A$stage3star$133                   stage3star
     0000373E  A$stage3star$134                   stage3star
     00003741  A$stage3star$135                   stage3star
     00003742  A$stage3star$136                   stage3star
     00003743  A$stage3star$137                   stage3star
     00003744  A$stage3star$138                   stage3star
     00003745  A$stage3star$139                   stage3star
     00003746  A$stage3star$140                   stage3star
     00003747  A$stage3star$141                   stage3star
     00003748  A$stage3star$142                   stage3star
     0000374B  A$stage3star$146                   stage3star
     0000374B  C$stage3star.c$16$1$53             stage3star
     0000374D  A$stage3star$147                   stage3star
     0000374F  A$stage3star$151                   stage3star
     0000374F  C$stage3star.c$17$1$53             stage3star
     00003750  A$stage3star$152                   stage3star
     00003753  A$stage3star$153                   stage3star
     00003754  A$stage3star$154                   stage3star
     00003756  A$stage3star$155                   stage3star
     00003757  A$stage3star$156                   stage3star
     00003758  A$stage3star$157                   stage3star
     00003759  A$stage3star$158                   stage3star
     0000375A  A$stage3star$159                   stage3star
     0000375D  A$stage3star$160                   stage3star
     0000375E  A$stage3star$161                   stage3star
     0000375F  A$stage3star$162                   stage3star
     00003760  A$stage3star$163                   stage3star
     00003762  A$stage3star$164                   stage3star
     00003763  A$stage3star$166                   stage3star
     00003765  A$stage3star$171                   stage3star
     00003765  C$stage3star.c$18$1$53             stage3star
     00003765  XG$UpdateStarMovement$0$0          stage3star
     00003766  A$stage3star$184                   stage3star
     00003766  C$stage3star.c$20$1$53             stage3star
     00003766  C$stage3star.c$22$1$55             stage3star
     00003766  G$UpdateStage3Star$0$0             stage3star
     00003766  _UpdateStage3Star                  stage3star
     00003767  A$stage3star$185                   stage3star
     00003768  A$stage3star$186                   stage3star
ASxxxx Linker V03.00 + NoICE + sdld,  page 183.
Hexadecimal  [32-Bits]

Area                                    Addr        Size        Decimal Bytes (Attributes)
--------------------------------        ----        ----        ------- ----- ------------
_CODE                               00000200    0000438F =       17295. bytes (REL,CON)

      Value  Global                              Global Defined In Module
      -----  --------------------------------   ------------------------
     00003769  A$stage3star$187                   stage3star
     0000376A  A$stage3star$188                   stage3star
     0000376B  A$stage3star$189                   stage3star
     0000376C  A$stage3star$190                   stage3star
     0000376D  A$stage3star$191                   stage3star
     0000376E  A$stage3star$192                   stage3star
     0000376F  A$stage3star$193                   stage3star
     00003770  A$stage3star$194                   stage3star
     00003771  A$stage3star$195                   stage3star
     00003774  A$stage3star$196                   stage3star
     00003775  A$stage3star$197                   stage3star
     00003776  A$stage3star$198                   stage3star
     00003779  A$stage3star$199                   stage3star
     0000377A  A$stage3star$200                   stage3star
     0000377B  A$stage3star$201                   stage3star
     0000377E  A$stage3star$202                   stage3star
     0000377F  A$stage3star$207                   stage3star
     0000377F  C$stage3star.c$24$1$55             stage3star
     0000377F  XG$UpdateStage3Star$0$0            stage3star
     00003780  A$stage3star$220                   stage3star
     00003780  C$stage3star.c$26$1$55             stage3star
     00003780  C$stage3star.c$28$1$57             stage3star
     00003780  G$UpdateStage5Cloud$0$0            stage3star
     00003780  _UpdateStage5Cloud                 stage3star
     00003781  A$stage3star$221                   stage3star
     00003782  A$stage3star$222                   stage3star
     00003783  A$stage3star$223                   stage3star
     00003784  A$stage3star$224                   stage3star
     00003785  A$stage3star$225                   stage3star
     00003786  A$stage3star$226                   stage3star
     00003787  A$stage3star$227                   stage3star
     00003788  A$stage3star$228                   stage3star
     00003789  A$stage3star$229                   stage3star
     0000378B  A$stage3star$230                   stage3star
     0000378C  A$stage3star$231                   stage3star
     0000378D  A$stage3star$232                   stage3star
     00003790  A$stage3star$233                   stage3star
     00003791  A$stage3star$234                   stage3star
     00003792  A$stage3star$235                   stage3star
     00003795  A$stage3star$236                   stage3star
     00003796  A$stage3star$237                   stage3star
     00003799  A$stage3star$238                   stage3star
     0000379C  A$stage3star$239                   stage3star
     0000379D  A$stage3star$240                   stage3star
     0000379E  A$stage3star$241                   stage3star
     000037A1  A$stage3star$242                   stage3star
     000037A2  A$stage3star$247                   stage3star
     000037A2  C$stage3star.c$30$1$57             stage3star
     000037A2  XG$UpdateStage5Cloud$0$0           stage3star
     000037A3  A$stage4$59                        stage4
     000037A3  C$stage4.c$3$0$0                   stage4
ASxxxx Linker V03.00 + NoICE + sdld,  page 184.
Hexadecimal  [32-Bits]

Area                                    Addr        Size        Decimal Bytes (Attributes)
--------------------------------        ----        ----        ------- ----- ------------
_CODE                               00000200    0000438F =       17295. bytes (REL,CON)

      Value  Global                              Global Defined In Module
      -----  --------------------------------   ------------------------
     000037A3  C$stage4.c$5$0$0                   stage4
     000037A3  G$stage4_foo$0$0                   stage4
     000037A3  XG$stage4_foo$0$0                  stage4
     000037A3  _stage4_foo                        stage4
     000037A4  A$stage4endboss$59                 stage4endboss
     000037A4  C$stage4endboss.c$3$0$0            stage4endboss
     000037A4  C$stage4endboss.c$5$0$0            stage4endboss
     000037A4  G$stage4endboss_foo$0$0            stage4endboss
     000037A4  XG$stage4endboss_foo$0$0           stage4endboss
     000037A4  _stage4endboss_foo                 stage4endboss
     000037A5  A$stage4endbossb$59                stage4endbossb
     000037A5  C$stage4endbossb.c$3$0$0           stage4endbossb
     000037A5  C$stage4endbossb.c$5$0$0           stage4endbossb
     000037A5  G$stage4endbossb_foo$0$0           stage4endbossb
     000037A5  XG$stage4endbossb_foo$0$0          stage4endbossb
     000037A5  _stage4endbossb_foo                stage4endbossb
     000037A6  A$stage4middleboss$60              stage4middleboss
     000037A6  C$stage4middleboss.c$4$0$0         stage4middleboss
     000037A6  C$stage4middleboss.c$6$0$0         stage4middleboss
     000037A6  G$stage4middleboss_foo$0$0         stage4middleboss
     000037A6  XG$stage4middleboss_foo$0$0        stage4middleboss
     000037A6  _stage4middleboss_foo              stage4middleboss
     000037A7  A$stage4middleboss$70              stage4middleboss
     000037A7  C$stage4middleboss.c$8$0$0         stage4middleboss
     000037A7  G$DoCommonBossAppearingFunction$   stage4middleboss
     000037A7  _DoCommonBossAppearingFunction     stage4middleboss
     000037A9  A$stage4middleboss$71              stage4middleboss
     000037AD  A$stage4middleboss$72              stage4middleboss
     000037AF  A$stage4middleboss$76              stage4middleboss
     000037AF  C$stage4middleboss.c$10$1$6        stage4middleboss
     000037B2  A$stage4middleboss$77              stage4middleboss
     000037B5  A$stage4middleboss$78              stage4middleboss
     000037B6  A$stage4middleboss$79              stage4middleboss
     000037B7  A$stage4middleboss$80              stage4middleboss
     000037B8  A$stage4middleboss$81              stage4middleboss
     000037B9  A$stage4middleboss$82              stage4middleboss
     000037BA  A$stage4middleboss$83              stage4middleboss
     000037BB  A$stage4middleboss$87              stage4middleboss
     000037BB  C$stage4middleboss.c$11$1$6        stage4middleboss
     000037BD  A$stage4middleboss$88              stage4middleboss
     000037BF  A$stage4middleboss$92              stage4middleboss
     000037BF  C$stage4middleboss.c$13$2$7        stage4middleboss
     000037C2  A$stage4middleboss$93              stage4middleboss
     000037C3  A$stage4middleboss$94              stage4middleboss
     000037C5  A$stage4middleboss$98              stage4middleboss
     000037C5  C$stage4middleboss.c$14$2$7        stage4middleboss
     000037C6  A$stage4middleboss$99              stage4middleboss
     000037C7  A$stage4middleboss$100             stage4middleboss
     000037C8  A$stage4middleboss$101             stage4middleboss
     000037C9  A$stage4middleboss$102             stage4middleboss
     000037CA  A$stage4middleboss$103             stage4middleboss
ASxxxx Linker V03.00 + NoICE + sdld,  page 185.
Hexadecimal  [32-Bits]

Area                                    Addr        Size        Decimal Bytes (Attributes)
--------------------------------        ----        ----        ------- ----- ------------
_CODE                               00000200    0000438F =       17295. bytes (REL,CON)

      Value  Global                              Global Defined In Module
      -----  --------------------------------   ------------------------
     000037CC  A$stage4middleboss$105             stage4middleboss
     000037CE  A$stage4middleboss$110             stage4middleboss
     000037CE  C$stage4middleboss.c$16$1$6        stage4middleboss
     000037CE  XG$DoCommonBossAppearingFunction   stage4middleboss
     000037CF  A$stage4object$59                  stage4object
     000037CF  C$stage4object.c$3$0$0             stage4object
     000037CF  C$stage4object.c$5$0$0             stage4object
     000037CF  G$stage4object_foo$0$0             stage4object
     000037CF  XG$stage4object_foo$0$0            stage4object
     000037CF  _stage4object_foo                  stage4object
     000037D0  A$stage5$66                        stage5
     000037D0  C$stage5.c$14$0$0                  stage5
     000037D0  C$stage5.c$19$1$62                 stage5
     000037D0  G$InitStage5$0$0                   stage5
     000037D0  _InitStage5                        stage5
     000037D2  A$stage5$67                        stage5
     000037D3  A$stage5$68                        stage5
     000037D4  A$stage5$69                        stage5
     000037D7  A$stage5$70                        stage5
     000037D8  A$stage5$71                        stage5
     000037DB  A$stage5$72                        stage5
     000037DC  A$stage5$73                        stage5
     000037DD  A$stage5$77                        stage5
     000037DD  C$stage5.c$22$1$62                 stage5
     000037DF  A$stage5$78                        stage5
     000037E0  A$stage5$79                        stage5
     000037E1  A$stage5$80                        stage5
     000037E4  A$stage5$81                        stage5
     000037E5  A$stage5$82                        stage5
     000037E8  A$stage5$86                        stage5
     000037E8  C$stage5.c$25$1$62                 stage5
     000037E9  A$stage5$87                        stage5
     000037EC  A$stage5$88                        stage5
     000037ED  A$stage5$89                        stage5
     000037F0  A$stage5$90                        stage5
     000037F1  A$stage5$91                        stage5
     000037F4  A$stage5$92                        stage5
     000037F5  A$stage5$93                        stage5
     000037F6  A$stage5$97                        stage5
     000037F6  C$stage5.c$28$1$62                 stage5
     000037F9  A$stage5$98                        stage5
     000037FB  A$stage5$99                        stage5
     000037FC  A$stage5$100                       stage5
     000037FD  A$stage5$101                       stage5
     000037FE  A$stage5$102                       stage5
     00003801  A$stage5$103                       stage5
     00003802  A$stage5$104                       stage5
     00003803  A$stage5$108                       stage5
     00003803  C$stage5.c$31$1$62                 stage5
     00003805  A$stage5$109                       stage5
     00003806  A$stage5$110                       stage5
ASxxxx Linker V03.00 + NoICE + sdld,  page 186.
Hexadecimal  [32-Bits]

Area                                    Addr        Size        Decimal Bytes (Attributes)
--------------------------------        ----        ----        ------- ----- ------------
_CODE                               00000200    0000438F =       17295. bytes (REL,CON)

      Value  Global                              Global Defined In Module
      -----  --------------------------------   ------------------------
     00003807  A$stage5$111                       stage5
     0000380A  A$stage5$112                       stage5
     0000380B  A$stage5$113                       stage5
     0000380E  A$stage5$114                       stage5
     0000380F  A$stage5$115                       stage5
     00003812  A$stage5$116                       stage5
     00003813  A$stage5$117                       stage5
     00003814  A$stage5$118                       stage5
     00003815  A$stage5$122                       stage5
     00003817  A$stage5$127                       stage5
     00003817  C$stage5.c$33$2$63                 stage5
     00003818  A$stage5$128                       stage5
     00003819  A$stage5$129                       stage5
     0000381A  A$stage5$130                       stage5
     0000381B  A$stage5$131                       stage5
     0000381D  A$stage5$132                       stage5
     0000381E  A$stage5$133                       stage5
     0000381F  A$stage5$134                       stage5
     00003820  A$stage5$135                       stage5
     00003821  A$stage5$136                       stage5
     00003824  A$stage5$137                       stage5
     00003825  A$stage5$138                       stage5
     00003826  A$stage5$139                       stage5
     00003827  A$stage5$140                       stage5
     00003828  A$stage5$141                       stage5
     00003829  A$stage5$142                       stage5
     0000382A  A$stage5$143                       stage5
     0000382D  A$stage5$144                       stage5
     0000382E  A$stage5$145                       stage5
     0000382F  A$stage5$146                       stage5
     00003830  A$stage5$150                       stage5
     00003830  C$stage5.c$32$2$63                 stage5
     00003831  A$stage5$151                       stage5
     00003832  A$stage5$152                       stage5
     00003834  A$stage5$153                       stage5
     00003836  A$stage5$157                       stage5
     00003836  C$stage5.c$36$1$62                 stage5
     00003838  A$stage5$158                       stage5
     00003839  A$stage5$159                       stage5
     0000383A  A$stage5$160                       stage5
     0000383D  A$stage5$161                       stage5
     0000383E  A$stage5$162                       stage5
     00003841  A$stage5$163                       stage5
     00003842  A$stage5$164                       stage5
     00003843  A$stage5$169                       stage5
     00003843  C$stage5.c$37$1$62                 stage5
     00003843  XG$InitStage5$0$0                  stage5
     00003844  A$stage5$182                       stage5
     00003844  C$stage5.c$39$1$62                 stage5
     00003844  C$stage5.c$44$1$64                 stage5
     00003844  G$UpdateStage5$0$0                 stage5
ASxxxx Linker V03.00 + NoICE + sdld,  page 187.
Hexadecimal  [32-Bits]

Area                                    Addr        Size        Decimal Bytes (Attributes)
--------------------------------        ----        ----        ------- ----- ------------
_CODE                               00000200    0000438F =       17295. bytes (REL,CON)

      Value  Global                              Global Defined In Module
      -----  --------------------------------   ------------------------
     00003844  _UpdateStage5                      stage5
     00003846  A$stage5$183                       stage5
     00003847  A$stage5$184                       stage5
     00003848  A$stage5$185                       stage5
     0000384B  A$stage5$186                       stage5
     0000384C  A$stage5$190                       stage5
     0000384C  C$stage5.c$47$1$64                 stage5
     0000384F  A$stage5$191                       stage5
     00003852  A$stage5$192                       stage5
     00003854  A$stage5$193                       stage5
     00003856  A$stage5$194                       stage5
     00003857  A$stage5$195                       stage5
     00003859  A$stage5$196                       stage5
     0000385A  A$stage5$197                       stage5
     0000385C  A$stage5$198                       stage5
     0000385D  A$stage5$199                       stage5
     0000385E  A$stage5$200                       stage5
     0000385F  A$stage5$201                       stage5
     00003860  A$stage5$202                       stage5
     00003861  A$stage5$203                       stage5
     00003862  A$stage5$204                       stage5
     00003863  A$stage5$205                       stage5
     00003866  A$stage5$206                       stage5
     00003867  A$stage5$207                       stage5
     0000386A  A$stage5$208                       stage5
     0000386B  A$stage5$209                       stage5
     0000386C  A$stage5$213                       stage5
     0000386C  C$stage5.c$50$3$66                 stage5
     0000386E  A$stage5$218                       stage5
     0000386E  C$stage5.c$52$3$66                 stage5
     00003870  A$stage5$219                       stage5
     00003871  A$stage5$220                       stage5
     00003872  A$stage5$221                       stage5
     00003873  A$stage5$222                       stage5
     00003874  A$stage5$223                       stage5
     00003877  A$stage5$224                       stage5
     00003878  A$stage5$225                       stage5
     00003879  A$stage5$226                       stage5
     0000387A  A$stage5$227                       stage5
     0000387D  A$stage5$228                       stage5
     0000387E  A$stage5$229                       stage5
     0000387F  A$stage5$233                       stage5
     0000387F  C$stage5.c$50$2$65                 stage5
     00003880  A$stage5$234                       stage5
     00003881  A$stage5$235                       stage5
     00003883  A$stage5$236                       stage5
     00003885  A$stage5$241                       stage5
     00003885  C$stage5.c$54$2$65                 stage5
     00003885  XG$UpdateStage5$0$0                stage5
     00003886  A$stage5endboss$59                 stage5endboss
     00003886  C$stage5endboss.c$3$0$0            stage5endboss
ASxxxx Linker V03.00 + NoICE + sdld,  page 188.
Hexadecimal  [32-Bits]

Area                                    Addr        Size        Decimal Bytes (Attributes)
--------------------------------        ----        ----        ------- ----- ------------
_CODE                               00000200    0000438F =       17295. bytes (REL,CON)

      Value  Global                              Global Defined In Module
      -----  --------------------------------   ------------------------
     00003886  C$stage5endboss.c$5$0$0            stage5endboss
     00003886  G$stage5endboss_foo$0$0            stage5endboss
     00003886  XG$stage5endboss_foo$0$0           stage5endboss
     00003886  _stage5endboss_foo                 stage5endboss
     00003887  A$stage5missile$59                 stage5missile
     00003887  C$stage5missile.c$3$0$0            stage5missile
     00003887  C$stage5missile.c$5$0$0            stage5missile
     00003887  G$stage5missile_foo$0$0            stage5missile
     00003887  XG$stage5missile_foo$0$0           stage5missile
     00003887  _stage5missile_foo                 stage5missile
     00003888  A$stage6$59                        stage6
     00003888  C$stage6.c$3$0$0                   stage6
     00003888  C$stage6.c$5$0$0                   stage6
     00003888  G$stage6_foo$0$0                   stage6
     00003888  XG$stage6_foo$0$0                  stage6
     00003888  _stage6_foo                        stage6
     00003889  A$stage6endboss$59                 stage6endboss
     00003889  C$stage6endboss.c$3$0$0            stage6endboss
     00003889  C$stage6endboss.c$5$0$0            stage6endboss
     00003889  G$stage6endboss_foo$0$0            stage6endboss
     00003889  XG$stage6endboss_foo$0$0           stage6endboss
     00003889  _stage6endboss_foo                 stage6endboss
     0000388A  A$stage6endbossb$59                stage6endbossb
     0000388A  C$stage6endbossb.c$3$0$0           stage6endbossb
     0000388A  C$stage6endbossb.c$5$0$0           stage6endbossb
     0000388A  G$stage6endbossb_foo$0$0           stage6endbossb
     0000388A  XG$stage6endbossb_foo$0$0          stage6endbossb
     0000388A  _stage6endbossb_foo                stage6endbossb
     0000388B  A$stage6object$59                  stage6object
     0000388B  C$stage6object.c$3$0$0             stage6object
     0000388B  C$stage6object.c$5$0$0             stage6object
     0000388B  G$stage6object_foo$0$0             stage6object
     0000388B  XG$stage6object_foo$0$0            stage6object
     0000388B  _stage6object_foo                  stage6object
     0000388C  A$stage7$59                        stage7
     0000388C  C$stage7.c$3$0$0                   stage7
     0000388C  C$stage7.c$5$0$0                   stage7
     0000388C  G$stage7_foo$0$0                   stage7
     0000388C  XG$stage7_foo$0$0                  stage7
     0000388C  _stage7_foo                        stage7
     0000388D  A$stage7endboss$59                 stage7endboss
     0000388D  C$stage7endboss.c$3$0$0            stage7endboss
     0000388D  C$stage7endboss.c$5$0$0            stage7endboss
     0000388D  G$stage7endboss_foo$0$0            stage7endboss
     0000388D  XG$stage7endboss_foo$0$0           stage7endboss
     0000388D  _stage7endboss_foo                 stage7endboss
     0000388E  A$stage7middleboss$59              stage7middleboss
     0000388E  C$stage7middleboss.c$3$0$0         stage7middleboss
     0000388E  C$stage7middleboss.c$5$0$0         stage7middleboss
     0000388E  G$stage7middleboss_foo$0$0         stage7middleboss
     0000388E  XG$stage7middleboss_foo$0$0        stage7middleboss
ASxxxx Linker V03.00 + NoICE + sdld,  page 189.
Hexadecimal  [32-Bits]

Area                                    Addr        Size        Decimal Bytes (Attributes)
--------------------------------        ----        ----        ------- ----- ------------
_CODE                               00000200    0000438F =       17295. bytes (REL,CON)

      Value  Global                              Global Defined In Module
      -----  --------------------------------   ------------------------
     0000388E  _stage7middleboss_foo              stage7middleboss
     0000388F  A$stage7object$59                  stage7object
     0000388F  C$stage7object.c$3$0$0             stage7object
     0000388F  C$stage7object.c$5$0$0             stage7object
     0000388F  G$stage7object_foo$0$0             stage7object
     0000388F  XG$stage7object_foo$0$0            stage7object
     0000388F  _stage7object_foo                  stage7object
     00003890  A$stage8$59                        stage8
     00003890  C$stage8.c$3$0$0                   stage8
     00003890  C$stage8.c$5$0$0                   stage8
     00003890  G$stage8_foo$0$0                   stage8
     00003890  XG$stage8_foo$0$0                  stage8
     00003890  _stage8_foo                        stage8
     00003891  A$stage8bossa$59                   stage8bossa
     00003891  C$stage8bossa.c$3$0$0              stage8bossa
     00003891  C$stage8bossa.c$5$0$0              stage8bossa
     00003891  G$stage8bossa_foo$0$0              stage8bossa
     00003891  XG$stage8bossa_foo$0$0             stage8bossa
     00003891  _stage8bossa_foo                   stage8bossa
     00003892  A$stage8bossb$59                   stage8bossb
     00003892  C$stage8bossb.c$3$0$0              stage8bossb
     00003892  C$stage8bossb.c$5$0$0              stage8bossb
     00003892  G$stage8bossb_foo$0$0              stage8bossb
     00003892  XG$stage8bossb_foo$0$0             stage8bossb
     00003892  _stage8bossb_foo                   stage8bossb
     00003893  A$stage8bossc$59                   stage8bossc
     00003893  C$stage8bossc.c$3$0$0              stage8bossc
     00003893  C$stage8bossc.c$5$0$0              stage8bossc
     00003893  G$stage8bossc_foo$0$0              stage8bossc
     00003893  XG$stage8bossc_foo$0$0             stage8bossc
     00003893  _stage8bossc_foo                   stage8bossc
     00003894  A$stage8lateral$59                 stage8lateral
     00003894  C$stage8lateral.c$3$0$0            stage8lateral
     00003894  C$stage8lateral.c$5$0$0            stage8lateral
     00003894  G$stage8lateral_foo$0$0            stage8lateral
     00003894  XG$stage8lateral_foo$0$0           stage8lateral
     00003894  _stage8lateral_foo                 stage8lateral
     00003895  A$vulcanbird$59                    vulcanbird
     00003895  C$vulcanbird.c$3$0$0               vulcanbird
     00003895  C$vulcanbird.c$5$0$0               vulcanbird
     00003895  G$vulcanbird_foo$0$0               vulcanbird
     00003895  XG$vulcanbird_foo$0$0              vulcanbird
     00003895  _vulcanbird_foo                    vulcanbird
     00003896  A$vulcanlaser$59                   vulcanlaser
     00003896  C$vulcanlaser.c$3$0$0              vulcanlaser
     00003896  C$vulcanlaser.c$5$0$0              vulcanlaser
     00003896  G$vulcanlaser_foo$0$0              vulcanlaser
     00003896  XG$vulcanlaser_foo$0$0             vulcanlaser
     00003896  _vulcanlaser_foo                   vulcanlaser
     00003897  A$vulcanlava$59                    vulcanlava
     00003897  C$vulcanlava.c$3$0$0               vulcanlava
ASxxxx Linker V03.00 + NoICE + sdld,  page 190.
Hexadecimal  [32-Bits]

Area                                    Addr        Size        Decimal Bytes (Attributes)
--------------------------------        ----        ----        ------- ----- ------------
_CODE                               00000200    0000438F =       17295. bytes (REL,CON)

      Value  Global                              Global Defined In Module
      -----  --------------------------------   ------------------------
     00003897  C$vulcanlava.c$5$0$0               vulcanlava
     00003897  G$vulcanlava_foo$0$0               vulcanlava
     00003897  XG$vulcanlava_foo$0$0              vulcanlava
     00003897  _vulcanlava_foo                    vulcanlava
     00003898  A$vulcanstation$59                 vulcanstation
     00003898  C$vulcanstation.c$3$0$0            vulcanstation
     00003898  C$vulcanstation.c$5$0$0            vulcanstation
     00003898  G$vulcanstation_foo$0$0            vulcanstation
     00003898  XG$vulcanstation_foo$0$0           vulcanstation
     00003898  _vulcanstation_foo                 vulcanstation
     00003899  A$vulcantank$59                    vulcantank
     00003899  C$vulcantank.c$3$0$0               vulcantank
     00003899  C$vulcantank.c$5$0$0               vulcantank
     00003899  G$vulcantank_foo$0$0               vulcantank
     00003899  XG$vulcantank_foo$0$0              vulcantank
     00003899  _vulcantank_foo                    vulcantank
     0000389A  A$vulcanvulcan$59                  vulcanvulcan
     0000389A  C$vulcanvulcan.c$3$0$0             vulcanvulcan
     0000389A  C$vulcanvulcan.c$5$0$0             vulcanvulcan
     0000389A  G$vulcanvulcan_foo$0$0             vulcanvulcan
     0000389A  XG$vulcanvulcan_foo$0$0            vulcanvulcan
     0000389A  _vulcanvulcan_foo                  vulcanvulcan
     0000389B  A$ww2plane$59                      ww2plane
     0000389B  C$ww2plane.c$3$0$0                 ww2plane
     0000389B  C$ww2plane.c$5$0$0                 ww2plane
     0000389B  G$ww2plane_foo$0$0                 ww2plane
     0000389B  XG$ww2plane_foo$0$0                ww2plane
     0000389B  _ww2plane_foo                      ww2plane
     0000389C  A$ww2planeb$59                     ww2planeb
     0000389C  C$ww2planeb.c$3$0$0                ww2planeb
     0000389C  C$ww2planeb.c$5$0$0                ww2planeb
     0000389C  G$ww2planeb_foo$0$0                ww2planeb
     0000389C  XG$ww2planeb_foo$0$0               ww2planeb
     0000389C  _ww2planeb_foo                     ww2planeb
     0000389D  A$ww2ship$59                       ww2ship
     0000389D  C$ww2ship.c$3$0$0                  ww2ship
     0000389D  C$ww2ship.c$5$0$0                  ww2ship
     0000389D  G$ww2ship_foo$0$0                  ww2ship
     0000389D  XG$ww2ship_foo$0$0                 ww2ship
     0000389D  _ww2ship_foo                       ww2ship
     0000389E  A$ww2zeppelin$60                   ww2zeppelin
     0000389E  C$ww2zeppelin.c$10$1$59            ww2zeppelin
     0000389E  C$ww2zeppelin.c$8$0$0              ww2zeppelin
     0000389E  G$InitWW2Zeppelin$0$0              ww2zeppelin
     0000389E  _InitWW2Zeppelin                   ww2zeppelin
     0000389F  A$ww2zeppelin$61                   ww2zeppelin
     000038A0  A$ww2zeppelin$62                   ww2zeppelin
     000038A1  A$ww2zeppelin$63                   ww2zeppelin
     000038A2  A$ww2zeppelin$64                   ww2zeppelin
     000038A3  A$ww2zeppelin$65                   ww2zeppelin
     000038A4  A$ww2zeppelin$66                   ww2zeppelin
ASxxxx Linker V03.00 + NoICE + sdld,  page 191.
Hexadecimal  [32-Bits]

Area                                    Addr        Size        Decimal Bytes (Attributes)
--------------------------------        ----        ----        ------- ----- ------------
_CODE                               00000200    0000438F =       17295. bytes (REL,CON)

      Value  Global                              Global Defined In Module
      -----  --------------------------------   ------------------------
     000038A5  A$ww2zeppelin$67                   ww2zeppelin
     000038A6  A$ww2zeppelin$68                   ww2zeppelin
     000038A9  A$ww2zeppelin$69                   ww2zeppelin
     000038AA  A$ww2zeppelin$70                   ww2zeppelin
     000038AB  A$ww2zeppelin$71                   ww2zeppelin
     000038AC  A$ww2zeppelin$72                   ww2zeppelin
     000038AE  A$ww2zeppelin$73                   ww2zeppelin
     000038B0  A$ww2zeppelin$74                   ww2zeppelin
     000038B1  A$ww2zeppelin$75                   ww2zeppelin
     000038B2  A$ww2zeppelin$80                   ww2zeppelin
     000038B2  C$ww2zeppelin.c$11$1$59            ww2zeppelin
     000038B2  XG$InitWW2Zeppelin$0$0             ww2zeppelin
     000038B3  A$ww2zeppelin$90                   ww2zeppelin
     000038B3  C$ww2zeppelin.c$13$1$59            ww2zeppelin
     000038B3  G$UpdateWW2Zeppelin$0$0            ww2zeppelin
     000038B3  _UpdateWW2Zeppelin                 ww2zeppelin
     000038B5  A$ww2zeppelin$91                   ww2zeppelin
     000038B9  A$ww2zeppelin$92                   ww2zeppelin
     000038BB  A$ww2zeppelin$93                   ww2zeppelin
     000038BC  A$ww2zeppelin$94                   ww2zeppelin
     000038BD  A$ww2zeppelin$98                   ww2zeppelin
     000038BD  C$ww2zeppelin.c$15$1$61            ww2zeppelin
     000038C0  A$ww2zeppelin$99                   ww2zeppelin
     000038C3  A$ww2zeppelin$100                  ww2zeppelin
     000038C6  A$ww2zeppelin$101                  ww2zeppelin
     000038C9  A$ww2zeppelin$102                  ww2zeppelin
     000038CA  A$ww2zeppelin$103                  ww2zeppelin
     000038CB  A$ww2zeppelin$104                  ww2zeppelin
     000038CC  A$ww2zeppelin$105                  ww2zeppelin
     000038CD  A$ww2zeppelin$106                  ww2zeppelin
     000038D0  A$ww2zeppelin$107                  ww2zeppelin
     000038D2  A$ww2zeppelin$108                  ww2zeppelin
     000038D5  A$ww2zeppelin$109                  ww2zeppelin
     000038D7  A$ww2zeppelin$113                  ww2zeppelin
     000038D7  C$ww2zeppelin.c$16$1$61            ww2zeppelin
     000038D9  A$ww2zeppelin$114                  ww2zeppelin
     000038DB  A$ww2zeppelin$119                  ww2zeppelin
     000038DB  C$ww2zeppelin.c$20$2$62            ww2zeppelin
     000038DC  A$ww2zeppelin$120                  ww2zeppelin
     000038DD  A$ww2zeppelin$121                  ww2zeppelin
     000038DE  A$ww2zeppelin$122                  ww2zeppelin
     000038DF  A$ww2zeppelin$123                  ww2zeppelin
     000038E2  A$ww2zeppelin$124                  ww2zeppelin
     000038E3  A$ww2zeppelin$125                  ww2zeppelin
     000038E6  A$ww2zeppelin$126                  ww2zeppelin
     000038E7  A$ww2zeppelin$127                  ww2zeppelin
     000038E8  A$ww2zeppelin$128                  ww2zeppelin
     000038E9  A$ww2zeppelin$129                  ww2zeppelin
     000038EA  A$ww2zeppelin$130                  ww2zeppelin
     000038ED  A$ww2zeppelin$131                  ww2zeppelin
     000038EE  A$ww2zeppelin$132                  ww2zeppelin
ASxxxx Linker V03.00 + NoICE + sdld,  page 192.
Hexadecimal  [32-Bits]

Area                                    Addr        Size        Decimal Bytes (Attributes)
--------------------------------        ----        ----        ------- ----- ------------
_CODE                               00000200    0000438F =       17295. bytes (REL,CON)

      Value  Global                              Global Defined In Module
      -----  --------------------------------   ------------------------
     000038F1  A$ww2zeppelin$133                  ww2zeppelin
     000038F4  A$ww2zeppelin$134                  ww2zeppelin
     000038F5  A$ww2zeppelin$135                  ww2zeppelin
     000038F6  A$ww2zeppelin$136                  ww2zeppelin
     000038F7  A$ww2zeppelin$140                  ww2zeppelin
     000038F7  C$ww2zeppelin.c$23$2$62            ww2zeppelin
     000038FA  A$ww2zeppelin$141                  ww2zeppelin
     000038FB  A$ww2zeppelin$142                  ww2zeppelin
     000038FD  A$ww2zeppelin$143                  ww2zeppelin
     00003901  A$ww2zeppelin$144                  ww2zeppelin
     00003903  A$ww2zeppelin$145                  ww2zeppelin
     00003904  A$ww2zeppelin$146                  ww2zeppelin
     00003906  A$ww2zeppelin$147                  ww2zeppelin
     00003907  A$ww2zeppelin$148                  ww2zeppelin
     00003908  A$ww2zeppelin$149                  ww2zeppelin
     00003909  A$ww2zeppelin$150                  ww2zeppelin
     0000390A  A$ww2zeppelin$151                  ww2zeppelin
     0000390C  A$ww2zeppelin$152                  ww2zeppelin
     0000390D  A$ww2zeppelin$153                  ww2zeppelin
     0000390F  A$ww2zeppelin$154                  ww2zeppelin
     00003910  A$ww2zeppelin$155                  ww2zeppelin
     00003911  A$ww2zeppelin$156                  ww2zeppelin
     00003912  A$ww2zeppelin$157                  ww2zeppelin
     00003913  A$ww2zeppelin$158                  ww2zeppelin
     00003916  A$ww2zeppelin$159                  ww2zeppelin
     00003917  A$ww2zeppelin$160                  ww2zeppelin
     00003918  A$ww2zeppelin$161                  ww2zeppelin
     00003919  A$ww2zeppelin$165                  ww2zeppelin
     00003919  C$ww2zeppelin.c$26$2$62            ww2zeppelin
     0000391C  A$ww2zeppelin$166                  ww2zeppelin
     0000391D  A$ww2zeppelin$167                  ww2zeppelin
     0000391F  A$ww2zeppelin$171                  ww2zeppelin
     0000391F  C$ww2zeppelin.c$27$2$62            ww2zeppelin
     00003920  A$ww2zeppelin$172                  ww2zeppelin
     00003921  A$ww2zeppelin$173                  ww2zeppelin
     00003922  A$ww2zeppelin$178                  ww2zeppelin
     00003922  C$ww2zeppelin.c$30$2$62            ww2zeppelin
     00003924  A$ww2zeppelin$179                  ww2zeppelin
     00003925  A$ww2zeppelin$180                  ww2zeppelin
     00003926  A$ww2zeppelin$181                  ww2zeppelin
     00003929  A$ww2zeppelin$182                  ww2zeppelin
     0000392C  A$ww2zeppelin$183                  ww2zeppelin
     0000392D  A$ww2zeppelin$184                  ww2zeppelin
     00003930  A$ww2zeppelin$185                  ww2zeppelin
     00003931  A$ww2zeppelin$186                  ww2zeppelin
     00003932  A$ww2zeppelin$190                  ww2zeppelin
     00003932  C$ww2zeppelin.c$32$1$61            ww2zeppelin
     00003934  A$ww2zeppelin$192                  ww2zeppelin
     00003936  A$ww2zeppelin$193                  ww2zeppelin
     00003938  A$ww2zeppelin$198                  ww2zeppelin
     00003938  C$ww2zeppelin.c$33$1$61            ww2zeppelin
ASxxxx Linker V03.00 + NoICE + sdld,  page 193.
Hexadecimal  [32-Bits]

Area                                    Addr        Size        Decimal Bytes (Attributes)
--------------------------------        ----        ----        ------- ----- ------------
_CODE                               00000200    0000438F =       17295. bytes (REL,CON)

      Value  Global                              Global Defined In Module
      -----  --------------------------------   ------------------------
     00003938  XG$UpdateWW2Zeppelin$0$0           ww2zeppelin
     00003939  A$funcs$124                        funcs
     00003939  C$funcs.c$51$0$0                   funcs
     00003939  C$funcs.c$53$1$83                  funcs
     00003939  G$myRand$0$0                       funcs
     00003939  _myRand                            funcs
     0000393C  A$funcs$125                        funcs
     0000393D  A$funcs$126                        funcs
     00003940  A$funcs$127                        funcs
     00003941  A$funcs$128                        funcs
     00003944  A$funcs$129                        funcs
     00003945  A$funcs$130                        funcs
     00003948  A$funcs$131                        funcs
     00003949  A$funcs$132                        funcs
     0000394C  A$funcs$133                        funcs
     0000394D  A$funcs$134                        funcs
     0000394E  A$funcs$135                        funcs
     0000394F  A$funcs$136                        funcs
     00003950  A$funcs$137                        funcs
     00003951  A$funcs$138                        funcs
     00003952  A$funcs$139                        funcs
     00003955  A$funcs$140                        funcs
     00003957  A$funcs$141                        funcs
     00003958  A$funcs$142                        funcs
     00003959  A$funcs$143                        funcs
     0000395B  A$funcs$144                        funcs
     0000395C  A$funcs$145                        funcs
     0000395D  A$funcs$146                        funcs
     0000395E  A$funcs$147                        funcs
     00003960  A$funcs$148                        funcs
     00003961  A$funcs$149                        funcs
     00003962  A$funcs$150                        funcs
     00003963  A$funcs$151                        funcs
     00003965  A$funcs$152                        funcs
     00003966  A$funcs$153                        funcs
     00003967  A$funcs$157                        funcs
     00003967  C$funcs.c$54$1$83                  funcs
     0000396B  A$funcs$158                        funcs
     0000396E  A$funcs$163                        funcs
     0000396E  C$funcs.c$55$1$83                  funcs
     0000396E  XG$myRand$0$0                      funcs
     0000396F  A$funcs$176                        funcs
     0000396F  C$funcs.c$58$1$83                  funcs
     0000396F  C$funcs.c$60$1$85                  funcs
     0000396F  G$changeBank$0$0                   funcs
     0000396F  _changeBank                        funcs
     00003972  A$funcs$177                        funcs
     00003973  A$funcs$178                        funcs
     00003974  A$funcs$179                        funcs
     00003978  A$funcs$180                        funcs
     0000397B  A$funcs$181                        funcs
ASxxxx Linker V03.00 + NoICE + sdld,  page 194.
Hexadecimal  [32-Bits]

Area                                    Addr        Size        Decimal Bytes (Attributes)
--------------------------------        ----        ----        ------- ----- ------------
_CODE                               00000200    0000438F =       17295. bytes (REL,CON)

      Value  Global                              Global Defined In Module
      -----  --------------------------------   ------------------------
     0000397C  A$funcs$185                        funcs
     0000397C  C$funcs.c$62$2$86                  funcs
     0000397F  A$funcs$186                        funcs
     00003980  A$funcs$187                        funcs
     00003981  A$funcs$188                        funcs
     00003982  A$funcs$189                        funcs
     00003983  A$funcs$190                        funcs
     00003986  A$funcs$191                        funcs
     00003987  A$funcs$195                        funcs
     00003987  C$funcs.c$63$2$86                  funcs
     0000398A  A$funcs$196                        funcs
     0000398B  A$funcs$197                        funcs
     0000398C  A$funcs$198                        funcs
     0000398F  A$funcs$203                        funcs
     0000398F  C$funcs.c$65$1$85                  funcs
     0000398F  XG$changeBank$0$0                  funcs
     00003990  A$funcs$213                        funcs
     00003990  C$funcs.c$68$1$85                  funcs
     00003990  G$DrawSpriteArray$0$0              funcs
     00003990  _DrawSpriteArray                   funcs
     00003992  A$funcs$214                        funcs
     00003996  A$funcs$215                        funcs
     00003998  A$funcs$216                        funcs
     00003999  A$funcs$220                        funcs
     0000399B  A$funcs$222                        funcs
     0000399C  A$funcs$223                        funcs
     0000399F  A$funcs$224                        funcs
     000039A1  A$funcs$228                        funcs
     000039A4  A$funcs$229                        funcs
     000039A5  A$funcs$230                        funcs
     000039A8  A$funcs$231                        funcs
     000039AB  A$funcs$232                        funcs
     000039AE  A$funcs$233                        funcs
     000039B0  A$funcs$235                        funcs
     000039B1  A$funcs$236                        funcs
     000039B4  A$funcs$237                        funcs
     000039B6  A$funcs$241                        funcs
     000039B6  C$funcs.c$73$3$90                  funcs
     000039B7  A$funcs$242                        funcs
     000039B8  A$funcs$243                        funcs
     000039B9  A$funcs$244                        funcs
     000039BC  A$funcs$245                        funcs
     000039BD  A$funcs$246                        funcs
     000039C0  A$funcs$247                        funcs
     000039C1  A$funcs$248                        funcs
     000039C2  A$funcs$249                        funcs
     000039C3  A$funcs$250                        funcs
     000039C6  A$funcs$251                        funcs
     000039C9  A$funcs$252                        funcs
     000039CA  A$funcs$253                        funcs
     000039CD  A$funcs$254                        funcs
ASxxxx Linker V03.00 + NoICE + sdld,  page 195.
Hexadecimal  [32-Bits]

Area                                    Addr        Size        Decimal Bytes (Attributes)
--------------------------------        ----        ----        ------- ----- ------------
_CODE                               00000200    0000438F =       17295. bytes (REL,CON)

      Value  Global                              Global Defined In Module
      -----  --------------------------------   ------------------------
     000039CE  A$funcs$255                        funcs
     000039CF  A$funcs$256                        funcs
     000039D0  A$funcs$257                        funcs
     000039D1  A$funcs$261                        funcs
     000039D1  C$funcs.c$72$3$90                  funcs
     000039D2  A$funcs$262                        funcs
     000039D4  A$funcs$263                        funcs
     000039D5  A$funcs$264                        funcs
     000039D7  A$funcs$266                        funcs
     000039DA  A$funcs$267                        funcs
     000039DD  A$funcs$271                        funcs
     000039DD  C$funcs.c$71$2$89                  funcs
     000039DE  A$funcs$272                        funcs
     000039E0  A$funcs$273                        funcs
     000039E1  A$funcs$274                        funcs
     000039E3  A$funcs$276                        funcs
     000039E5  A$funcs$277                        funcs
     000039E7  A$funcs$282                        funcs
     000039E7  C$funcs.c$74$2$89                  funcs
     000039E7  XG$DrawSpriteArray$0$0             funcs
     000039E8  A$funcs$292                        funcs
     000039E8  C$funcs.c$77$2$89                  funcs
     000039E8  G$DrawQuadSprite$0$0               funcs
     000039E8  _DrawQuadSprite                    funcs
     000039EA  A$funcs$293                        funcs
     000039EE  A$funcs$294                        funcs
     000039F0  A$funcs$298                        funcs
     000039F0  C$funcs.c$79$1$92                  funcs
     000039F3  A$funcs$299                        funcs
     000039F6  A$funcs$300                        funcs
     000039F7  A$funcs$301                        funcs
     000039FA  A$funcs$302                        funcs
     000039FD  A$funcs$303                        funcs
     000039FE  A$funcs$304                        funcs
     00003A01  A$funcs$305                        funcs
     00003A02  A$funcs$306                        funcs
     00003A03  A$funcs$310                        funcs
     00003A03  C$funcs.c$80$1$92                  funcs
     00003A06  A$funcs$311                        funcs
     00003A09  A$funcs$312                        funcs
     00003A0A  A$funcs$313                        funcs
     00003A0D  A$funcs$314                        funcs
     00003A0F  A$funcs$315                        funcs
     00003A10  A$funcs$316                        funcs
     00003A11  A$funcs$317                        funcs
     00003A12  A$funcs$318                        funcs
     00003A15  A$funcs$319                        funcs
     00003A16  A$funcs$320                        funcs
     00003A17  A$funcs$321                        funcs
     00003A18  A$funcs$322                        funcs
     00003A19  A$funcs$323                        funcs
ASxxxx Linker V03.00 + NoICE + sdld,  page 196.
Hexadecimal  [32-Bits]

Area                                    Addr        Size        Decimal Bytes (Attributes)
--------------------------------        ----        ----        ------- ----- ------------
_CODE                               00000200    0000438F =       17295. bytes (REL,CON)

      Value  Global                              Global Defined In Module
      -----  --------------------------------   ------------------------
     00003A1C  A$funcs$324                        funcs
     00003A1D  A$funcs$325                        funcs
     00003A1E  A$funcs$326                        funcs
     00003A1F  A$funcs$330                        funcs
     00003A1F  C$funcs.c$81$1$92                  funcs
     00003A22  A$funcs$331                        funcs
     00003A25  A$funcs$332                        funcs
     00003A26  A$funcs$333                        funcs
     00003A27  A$funcs$334                        funcs
     00003A2A  A$funcs$335                        funcs
     00003A2C  A$funcs$336                        funcs
     00003A2D  A$funcs$337                        funcs
     00003A2E  A$funcs$338                        funcs
     00003A2F  A$funcs$339                        funcs
     00003A30  A$funcs$340                        funcs
     00003A31  A$funcs$341                        funcs
     00003A32  A$funcs$342                        funcs
     00003A35  A$funcs$343                        funcs
     00003A36  A$funcs$344                        funcs
     00003A37  A$funcs$345                        funcs
     00003A3A  A$funcs$346                        funcs
     00003A3B  A$funcs$347                        funcs
     00003A3C  A$funcs$348                        funcs
     00003A3D  A$funcs$349                        funcs
     00003A3E  A$funcs$353                        funcs
     00003A3E  C$funcs.c$82$1$92                  funcs
     00003A41  A$funcs$354                        funcs
     00003A44  A$funcs$355                        funcs
     00003A45  A$funcs$356                        funcs
     00003A46  A$funcs$357                        funcs
     00003A47  A$funcs$358                        funcs
     00003A48  A$funcs$359                        funcs
     00003A49  A$funcs$360                        funcs
     00003A4A  A$funcs$361                        funcs
     00003A4D  A$funcs$362                        funcs
     00003A4E  A$funcs$363                        funcs
     00003A4F  A$funcs$364                        funcs
     00003A51  A$funcs$369                        funcs
     00003A51  C$funcs.c$83$1$92                  funcs
     00003A51  XG$DrawQuadSprite$0$0              funcs
     00003A52  A$funcs$382                        funcs
     00003A52  C$funcs.c$86$1$92                  funcs
     00003A52  C$funcs.c$89$1$94                  funcs
     00003A52  G$LoadSprite$0$0                   funcs
     00003A52  _LoadSprite                        funcs
     00003A55  A$funcs$383                        funcs
     00003A56  A$funcs$384                        funcs
     00003A57  A$funcs$385                        funcs
     00003A58  A$funcs$386                        funcs
     00003A59  A$funcs$387                        funcs
     00003A5C  A$funcs$388                        funcs
ASxxxx Linker V03.00 + NoICE + sdld,  page 197.
Hexadecimal  [32-Bits]

Area                                    Addr        Size        Decimal Bytes (Attributes)
--------------------------------        ----        ----        ------- ----- ------------
_CODE                               00000200    0000438F =       17295. bytes (REL,CON)

      Value  Global                              Global Defined In Module
      -----  --------------------------------   ------------------------
     00003A5D  A$funcs$392                        funcs
     00003A5D  C$funcs.c$92$1$94                  funcs
     00003A5E  A$funcs$393                        funcs
     00003A5F  A$funcs$394                        funcs
     00003A60  A$funcs$395                        funcs
     00003A61  A$funcs$396                        funcs
     00003A64  A$funcs$397                        funcs
     00003A65  A$funcs$398                        funcs
     00003A66  A$funcs$399                        funcs
     00003A67  A$funcs$400                        funcs
     00003A68  A$funcs$401                        funcs
     00003A69  A$funcs$402                        funcs
     00003A6A  A$funcs$403                        funcs
     00003A6B  A$funcs$404                        funcs
     00003A6E  A$funcs$405                        funcs
     00003A6F  A$funcs$409                        funcs
     00003A6F  C$funcs.c$95$1$94                  funcs
     00003A71  A$funcs$410                        funcs
     00003A72  A$funcs$411                        funcs
     00003A73  A$funcs$412                        funcs
     00003A76  A$funcs$413                        funcs
     00003A77  A$funcs$418                        funcs
     00003A77  C$funcs.c$96$1$94                  funcs
     00003A77  XG$LoadSprite$0$0                  funcs
     00003A78  A$funcs$431                        funcs
     00003A78  C$funcs.c$102$1$96                 funcs
     00003A78  C$funcs.c$99$1$94                  funcs
     00003A78  G$LoadTiles$0$0                    funcs
     00003A78  _LoadTiles                         funcs
     00003A7B  A$funcs$432                        funcs
     00003A7C  A$funcs$433                        funcs
     00003A7D  A$funcs$434                        funcs
     00003A7E  A$funcs$435                        funcs
     00003A7F  A$funcs$436                        funcs
     00003A82  A$funcs$437                        funcs
     00003A83  A$funcs$441                        funcs
     00003A83  C$funcs.c$105$1$96                 funcs
     00003A84  A$funcs$442                        funcs
     00003A85  A$funcs$443                        funcs
     00003A86  A$funcs$444                        funcs
     00003A87  A$funcs$445                        funcs
     00003A8A  A$funcs$446                        funcs
     00003A8B  A$funcs$447                        funcs
     00003A8C  A$funcs$448                        funcs
     00003A8F  A$funcs$449                        funcs
     00003A90  A$funcs$450                        funcs
     00003A91  A$funcs$455                        funcs
     00003A91  C$funcs.c$106$1$96                 funcs
     00003A91  XG$LoadTiles$0$0                   funcs
     00003A92  A$funcs$468                        funcs
     00003A92  C$funcs.c$109$1$96                 funcs
ASxxxx Linker V03.00 + NoICE + sdld,  page 198.
Hexadecimal  [32-Bits]

Area                                    Addr        Size        Decimal Bytes (Attributes)
--------------------------------        ----        ----        ------- ----- ------------
_CODE                               00000200    0000438F =       17295. bytes (REL,CON)

      Value  Global                              Global Defined In Module
      -----  --------------------------------   ------------------------
     00003A92  C$funcs.c$112$1$98                 funcs
     00003A92  G$LoadGraphics$0$0                 funcs
     00003A92  _LoadGraphics                      funcs
     00003A95  A$funcs$469                        funcs
     00003A96  A$funcs$470                        funcs
     00003A97  A$funcs$471                        funcs
     00003A98  A$funcs$472                        funcs
     00003A99  A$funcs$473                        funcs
     00003A9C  A$funcs$474                        funcs
     00003A9D  A$funcs$475                        funcs
     00003A9E  A$funcs$476                        funcs
     00003A9F  A$funcs$477                        funcs
     00003AA0  A$funcs$478                        funcs
     00003AA1  A$funcs$479                        funcs
     00003AA4  A$funcs$480                        funcs
     00003AA5  A$funcs$481                        funcs
     00003AA6  A$funcs$485                        funcs
     00003AA6  C$funcs.c$115$1$98                 funcs
     00003AA9  A$funcs$486                        funcs
     00003AAA  A$funcs$487                        funcs
     00003AAB  A$funcs$488                        funcs
     00003AAC  A$funcs$489                        funcs
     00003AAD  A$funcs$490                        funcs
     00003AAE  A$funcs$491                        funcs
     00003AB1  A$funcs$492                        funcs
     00003AB2  A$funcs$493                        funcs
     00003AB3  A$funcs$494                        funcs
     00003AB4  A$funcs$495                        funcs
     00003AB5  A$funcs$496                        funcs
     00003AB6  A$funcs$497                        funcs
     00003AB9  A$funcs$498                        funcs
     00003ABA  A$funcs$499                        funcs
     00003ABD  A$funcs$500                        funcs
     00003AC0  A$funcs$501                        funcs
     00003AC1  A$funcs$502                        funcs
     00003AC2  A$funcs$507                        funcs
     00003AC2  C$funcs.c$116$1$98                 funcs
     00003AC2  XG$LoadGraphics$0$0                funcs
     00003AC3  A$funcs$520                        funcs
     00003AC3  C$funcs.c$119$1$98                 funcs
     00003AC3  C$funcs.c$122$1$100                funcs
     00003AC3  G$LoadBGPalette$0$0                funcs
     00003AC3  _LoadBGPalette                     funcs
     00003AC6  A$funcs$521                        funcs
     00003AC7  A$funcs$522                        funcs
     00003AC8  A$funcs$523                        funcs
     00003AC9  A$funcs$524                        funcs
     00003ACA  A$funcs$525                        funcs
     00003ACD  A$funcs$526                        funcs
     00003ACE  A$funcs$530                        funcs
     00003ACE  C$funcs.c$125$1$100                funcs
ASxxxx Linker V03.00 + NoICE + sdld,  page 199.
Hexadecimal  [32-Bits]

Area                                    Addr        Size        Decimal Bytes (Attributes)
--------------------------------        ----        ----        ------- ----- ------------
_CODE                               00000200    0000438F =       17295. bytes (REL,CON)

      Value  Global                              Global Defined In Module
      -----  --------------------------------   ------------------------
     00003ACF  A$funcs$531                        funcs
     00003AD0  A$funcs$532                        funcs
     00003AD1  A$funcs$533                        funcs
     00003AD2  A$funcs$534                        funcs
     00003AD3  A$funcs$535                        funcs
     00003AD6  A$funcs$536                        funcs
     00003AD7  A$funcs$541                        funcs
     00003AD7  C$funcs.c$126$1$100                funcs
     00003AD7  XG$LoadBGPalette$0$0               funcs
     00003AD8  A$funcs$554                        funcs
     00003AD8  C$funcs.c$129$1$100                funcs
     00003AD8  C$funcs.c$132$1$101                funcs
     00003AD8  G$LoadSpritePalette$0$0            funcs
     00003AD8  _LoadSpritePalette                 funcs
     00003ADA  A$funcs$555                        funcs
     00003ADB  A$funcs$556                        funcs
     00003ADC  A$funcs$557                        funcs
     00003ADF  A$funcs$558                        funcs
     00003AE0  A$funcs$562                        funcs
     00003AE0  C$funcs.c$135$1$101                funcs
     00003AE3  A$funcs$563                        funcs
     00003AE4  A$funcs$564                        funcs
     00003AE7  A$funcs$565                        funcs
     00003AE8  A$funcs$570                        funcs
     00003AE8  C$funcs.c$136$1$101                funcs
     00003AE8  XG$LoadSpritePalette$0$0           funcs
     00003AE9  A$funcs$583                        funcs
     00003AE9  C$funcs.c$138$1$101                funcs
     00003AE9  C$funcs.c$140$1$103                funcs
     00003AE9  G$InterruptHandler$0$0             funcs
     00003AE9  _InterruptHandler                  funcs
     00003AEC  A$funcs$584                        funcs
     00003AED  A$funcs$589                        funcs
     00003AED  C$funcs.c$141$1$103                funcs
     00003AED  XG$InterruptHandler$0$0            funcs
     00003AEE  A$funcs$602                        funcs
     00003AEE  C$funcs.c$144$1$103                funcs
     00003AEE  C$funcs.c$147$1$104                funcs
     00003AEE  G$InitConsole$0$0                  funcs
     00003AEE  _InitConsole                       funcs
     00003AF1  A$funcs$606                        funcs
     00003AF1  C$funcs.c$150$1$104                funcs
     00003AF4  A$funcs$610                        funcs
     00003AF4  C$funcs.c$153$1$104                funcs
     00003AF7  A$funcs$611                        funcs
     00003AF8  A$funcs$612                        funcs
     00003AFB  A$funcs$616                        funcs
     00003AFB  C$funcs.c$154$1$104                funcs
     00003AFD  A$funcs$617                        funcs
     00003AFE  A$funcs$618                        funcs
     00003AFF  A$funcs$619                        funcs
ASxxxx Linker V03.00 + NoICE + sdld,  page 200.
Hexadecimal  [32-Bits]

Area                                    Addr        Size        Decimal Bytes (Attributes)
--------------------------------        ----        ----        ------- ----- ------------
_CODE                               00000200    0000438F =       17295. bytes (REL,CON)

      Value  Global                              Global Defined In Module
      -----  --------------------------------   ------------------------
     00003B02  A$funcs$620                        funcs
     00003B03  A$funcs$624                        funcs
     00003B03  C$funcs.c$155$1$104                funcs
     00003B06  A$funcs$628                        funcs
     00003B06  C$funcs.c$158$1$104                funcs
     00003B09  A$funcs$629                        funcs
     00003B0A  A$funcs$630                        funcs
     00003B0D  A$funcs$631                        funcs
     00003B0E  A$funcs$636                        funcs
     00003B0E  C$funcs.c$159$1$104                funcs
     00003B0E  XG$InitConsole$0$0                 funcs
     00003B0F  A$funcs$649                        funcs
     00003B0F  C$funcs.c$162$1$104                funcs
     00003B0F  C$funcs.c$166$1$105                funcs
     00003B0F  G$fillBackground$0$0               funcs
     00003B0F  _fillBackground                    funcs
     00003B12  A$funcs$650                        funcs
     00003B13  A$funcs$651                        funcs
     00003B16  A$funcs$652                        funcs
     00003B17  A$funcs$656                        funcs
     00003B1A  A$funcs$661                        funcs
     00003B1A  C$funcs.c$168$2$106                funcs
     00003B1B  A$funcs$662                        funcs
     00003B1C  A$funcs$663                        funcs
     00003B1D  A$funcs$664                        funcs
     00003B1E  A$funcs$665                        funcs
     00003B21  A$funcs$666                        funcs
     00003B22  A$funcs$667                        funcs
     00003B23  A$funcs$671                        funcs
     00003B23  C$funcs.c$167$2$106                funcs
     00003B24  A$funcs$672                        funcs
     00003B25  A$funcs$673                        funcs
     00003B27  A$funcs$674                        funcs
     00003B28  A$funcs$675                        funcs
     00003B2A  A$funcs$676                        funcs
     00003B2C  A$funcs$681                        funcs
     00003B2C  C$funcs.c$169$2$106                funcs
     00003B2C  XG$fillBackground$0$0              funcs
     00003B2D  A$funcs$694                        funcs
     00003B2D  C$funcs.c$172$2$106                funcs
     00003B2D  C$funcs.c$175$1$107                funcs
     00003B2D  G$ClearScreen$0$0                  funcs
     00003B2D  _ClearScreen                       funcs
     00003B30  A$funcs$698                        funcs
     00003B30  C$funcs.c$176$1$107                funcs
     00003B33  A$funcs$702                        funcs
     00003B33  C$funcs.c$177$1$107                funcs
     00003B36  A$funcs$706                        funcs
     00003B36  C$funcs.c$180$1$107                funcs
     00003B39  A$funcs$710                        funcs
     00003B39  C$funcs.c$183$1$107                funcs
ASxxxx Linker V03.00 + NoICE + sdld,  page 201.
Hexadecimal  [32-Bits]

Area                                    Addr        Size        Decimal Bytes (Attributes)
--------------------------------        ----        ----        ------- ----- ------------
_CODE                               00000200    0000438F =       17295. bytes (REL,CON)

      Value  Global                              Global Defined In Module
      -----  --------------------------------   ------------------------
     00003B3A  A$funcs$711                        funcs
     00003B3B  A$funcs$712                        funcs
     00003B3C  A$funcs$713                        funcs
     00003B3F  A$funcs$714                        funcs
     00003B40  A$funcs$719                        funcs
     00003B40  C$funcs.c$184$1$107                funcs
     00003B40  XG$ClearScreen$0$0                 funcs
     00003B41  A$funcs$732                        funcs
     00003B41  C$funcs.c$187$1$107                funcs
     00003B41  C$funcs.c$189$1$109                funcs
     00003B41  G$UpdateScroll$0$0                 funcs
     00003B41  _UpdateScroll                      funcs
     00003B44  A$funcs$733                        funcs
     00003B45  A$funcs$734                        funcs
     00003B46  A$funcs$735                        funcs
     00003B47  A$funcs$736                        funcs
     00003B48  A$funcs$737                        funcs
     00003B4B  A$funcs$738                        funcs
     00003B4C  A$funcs$742                        funcs
     00003B4C  C$funcs.c$190$1$109                funcs
     00003B4F  A$funcs$743                        funcs
     00003B50  A$funcs$744                        funcs
     00003B51  A$funcs$745                        funcs
     00003B52  A$funcs$746                        funcs
     00003B53  A$funcs$747                        funcs
     00003B56  A$funcs$748                        funcs
     00003B57  A$funcs$753                        funcs
     00003B57  C$funcs.c$191$1$109                funcs
     00003B57  XG$UpdateScroll$0$0                funcs
     00003B58  A$funcs$763                        funcs
     00003B58  C$funcs.c$194$1$109                funcs
     00003B58  G$WriteText$0$0                    funcs
     00003B58  _WriteText                         funcs
     00003B5A  A$funcs$764                        funcs
     00003B5E  A$funcs$765                        funcs
     00003B60  A$funcs$769                        funcs
     00003B60  C$funcs.c$199$1$111                funcs
     00003B63  A$funcs$770                        funcs
     00003B66  A$funcs$771                        funcs
     00003B67  A$funcs$772                        funcs
     00003B6A  A$funcs$773                        funcs
     00003B6B  A$funcs$777                        funcs
     00003B6B  C$funcs.c$201$1$111                funcs
     00003B6E  A$funcs$779                        funcs
     00003B71  A$funcs$780                        funcs
     00003B74  A$funcs$781                        funcs
     00003B75  A$funcs$782                        funcs
     00003B76  A$funcs$783                        funcs
     00003B77  A$funcs$784                        funcs
     00003B78  A$funcs$785                        funcs
     00003B7A  A$funcs$789                        funcs
ASxxxx Linker V03.00 + NoICE + sdld,  page 202.
Hexadecimal  [32-Bits]

Area                                    Addr        Size        Decimal Bytes (Attributes)
--------------------------------        ----        ----        ------- ----- ------------
_CODE                               00000200    0000438F =       17295. bytes (REL,CON)

      Value  Global                              Global Defined In Module
      -----  --------------------------------   ------------------------
     00003B7A  C$funcs.c$202$1$111                funcs
     00003B7B  A$funcs$790                        funcs
     00003B7D  A$funcs$791                        funcs
     00003B7F  A$funcs$792                        funcs
     00003B81  A$funcs$793                        funcs
     00003B83  A$funcs$797                        funcs
     00003B83  C$funcs.c$203$1$111                funcs
     00003B84  A$funcs$798                        funcs
     00003B85  A$funcs$799                        funcs
     00003B86  A$funcs$800                        funcs
     00003B89  A$funcs$801                        funcs
     00003B8C  A$funcs$802                        funcs
     00003B8D  A$funcs$803                        funcs
     00003B8E  A$funcs$804                        funcs
     00003B90  A$funcs$805                        funcs
     00003B91  A$funcs$806                        funcs
     00003B92  A$funcs$807                        funcs
     00003B93  A$funcs$808                        funcs
     00003B94  A$funcs$809                        funcs
     00003B97  A$funcs$810                        funcs
     00003B98  A$funcs$811                        funcs
     00003B99  A$funcs$812                        funcs
     00003B9B  A$funcs$814                        funcs
     00003B9D  A$funcs$819                        funcs
     00003B9D  C$funcs.c$204$1$111                funcs
     00003B9D  XG$WriteText$0$0                   funcs
     00003B9E  A$funcs$829                        funcs
     00003B9E  C$funcs.c$207$1$111                funcs
     00003B9E  G$WriteNumber$0$0                  funcs
     00003B9E  _WriteNumber                       funcs
     00003BA0  A$funcs$830                        funcs
     00003BA4  A$funcs$831                        funcs
     00003BA6  A$funcs$835                        funcs
     00003BA6  C$funcs.c$210$1$113                funcs
     00003BA9  A$funcs$836                        funcs
     00003BAC  A$funcs$837                        funcs
     00003BAD  A$funcs$841                        funcs
     00003BAD  C$funcs.c$213$1$113                funcs
     00003BB0  A$funcs$842                        funcs
     00003BB1  A$funcs$843                        funcs
     00003BB4  A$funcs$844                        funcs
     00003BB7  A$funcs$846                        funcs
     00003BB8  A$funcs$847                        funcs
     00003BB9  A$funcs$848                        funcs
     00003BBA  A$funcs$849                        funcs
     00003BBB  A$funcs$850                        funcs
     00003BBC  A$funcs$851                        funcs
     00003BBE  A$funcs$855                        funcs
     00003BBE  C$funcs.c$215$2$114                funcs
     00003BBF  A$funcs$856                        funcs
     00003BC0  A$funcs$857                        funcs
ASxxxx Linker V03.00 + NoICE + sdld,  page 203.
Hexadecimal  [32-Bits]

Area                                    Addr        Size        Decimal Bytes (Attributes)
--------------------------------        ----        ----        ------- ----- ------------
_CODE                               00000200    0000438F =       17295. bytes (REL,CON)

      Value  Global                              Global Defined In Module
      -----  --------------------------------   ------------------------
     00003BC3  A$funcs$858                        funcs
     00003BC4  A$funcs$859                        funcs
     00003BC5  A$funcs$860                        funcs
     00003BC8  A$funcs$861                        funcs
     00003BC9  A$funcs$862                        funcs
     00003BCA  A$funcs$863                        funcs
     00003BCB  A$funcs$864                        funcs
     00003BCC  A$funcs$865                        funcs
     00003BCF  A$funcs$866                        funcs
     00003BD2  A$funcs$867                        funcs
     00003BD3  A$funcs$868                        funcs
     00003BD6  A$funcs$869                        funcs
     00003BD9  A$funcs$870                        funcs
     00003BDA  A$funcs$871                        funcs
     00003BDD  A$funcs$872                        funcs
     00003BDE  A$funcs$873                        funcs
     00003BDF  A$funcs$874                        funcs
     00003BE0  A$funcs$875                        funcs
     00003BE1  A$funcs$876                        funcs
     00003BE2  A$funcs$877                        funcs
     00003BE4  A$funcs$878                        funcs
     00003BE5  A$funcs$879                        funcs
     00003BE6  A$funcs$880                        funcs
     00003BE7  A$funcs$881                        funcs
     00003BE8  A$funcs$882                        funcs
     00003BEB  A$funcs$883                        funcs
     00003BEC  A$funcs$884                        funcs
     00003BEF  A$funcs$885                        funcs
     00003BF0  A$funcs$886                        funcs
     00003BF3  A$funcs$887                        funcs
     00003BF6  A$funcs$888                        funcs
     00003BF7  A$funcs$889                        funcs
     00003BFA  A$funcs$890                        funcs
     00003BFB  A$funcs$891                        funcs
     00003BFC  A$funcs$892                        funcs
     00003BFD  A$funcs$893                        funcs
     00003BFE  A$funcs$894                        funcs
     00003C01  A$funcs$895                        funcs
     00003C04  A$funcs$896                        funcs
     00003C06  A$funcs$898                        funcs
     00003C08  A$funcs$903                        funcs
     00003C08  C$funcs.c$219$1$113                funcs
     00003C08  XG$WriteNumber$0$0                 funcs
     00003C09  A$funcs$916                        funcs
     00003C09  C$funcs.c$222$1$113                funcs
     00003C09  C$funcs.c$224$1$115                funcs
     00003C09  G$ClearTiles$0$0                   funcs
     00003C09  _ClearTiles                        funcs
     00003C0C  A$funcs$917                        funcs
     00003C0D  A$funcs$918                        funcs
     00003C0E  A$funcs$919                        funcs
ASxxxx Linker V03.00 + NoICE + sdld,  page 204.
Hexadecimal  [32-Bits]

Area                                    Addr        Size        Decimal Bytes (Attributes)
--------------------------------        ----        ----        ------- ----- ------------
_CODE                               00000200    0000438F =       17295. bytes (REL,CON)

      Value  Global                              Global Defined In Module
      -----  --------------------------------   ------------------------
     00003C0F  A$funcs$920                        funcs
     00003C10  A$funcs$921                        funcs
     00003C12  A$funcs$922                        funcs
     00003C13  A$funcs$923                        funcs
     00003C16  A$funcs$924                        funcs
     00003C17  A$funcs$925                        funcs
     00003C18  A$funcs$926                        funcs
     00003C19  A$funcs$931                        funcs
     00003C19  C$funcs.c$225$1$115                funcs
     00003C19  XG$ClearTiles$0$0                  funcs
     00003C1A  A$funcs$944                        funcs
     00003C1A  C$funcs.c$228$1$115                funcs
     00003C1A  C$funcs.c$231$1$116                funcs
     00003C1A  G$LoadFont$0$0                     funcs
     00003C1A  _LoadFont                          funcs
     00003C1C  A$funcs$945                        funcs
     00003C1D  A$funcs$946                        funcs
     00003C1E  A$funcs$947                        funcs
     00003C21  A$funcs$948                        funcs
     00003C22  A$funcs$952                        funcs
     00003C22  C$funcs.c$234$1$116                funcs
     00003C25  A$funcs$953                        funcs
     00003C26  A$funcs$954                        funcs
     00003C29  A$funcs$955                        funcs
     00003C2A  A$funcs$956                        funcs
     00003C2D  A$funcs$957                        funcs
     00003C2E  A$funcs$958                        funcs
     00003C2F  A$funcs$963                        funcs
     00003C2F  C$funcs.c$235$1$116                funcs
     00003C2F  XG$LoadFont$0$0                    funcs
     00003C30  A$funcs$976                        funcs
     00003C30  C$funcs.c$238$1$116                funcs
     00003C30  C$funcs.c$241$1$117                funcs
     00003C30  G$InitStage$0$0                    funcs
     00003C30  _InitStage                         funcs
     00003C33  A$funcs$980                        funcs
     00003C33  C$funcs.c$242$1$117                funcs
     00003C36  A$funcs$984                        funcs
     00003C36  C$funcs.c$245$1$117                funcs
     00003C39  A$funcs$988                        funcs
     00003C39  C$funcs.c$248$1$117                funcs
     00003C3C  A$funcs$989                        funcs
     00003C3F  A$funcs$993                        funcs
     00003C3F  C$funcs.c$251$1$117                funcs
     00003C42  A$funcs$997                        funcs
     00003C42  C$funcs.c$254$1$117                funcs
     00003C45  A$funcs$1001                       funcs
     00003C45  C$funcs.c$257$1$117                funcs
     00003C48  A$funcs$1005                       funcs
     00003C48  C$funcs.c$260$1$117                funcs
     00003C4B  A$funcs$1006                       funcs
ASxxxx Linker V03.00 + NoICE + sdld,  page 205.
Hexadecimal  [32-Bits]

Area                                    Addr        Size        Decimal Bytes (Attributes)
--------------------------------        ----        ----        ------- ----- ------------
_CODE                               00000200    0000438F =       17295. bytes (REL,CON)

      Value  Global                              Global Defined In Module
      -----  --------------------------------   ------------------------
     00003C4C  A$funcs$1007                       funcs
     00003C4E  A$funcs$1008                       funcs
     00003C4F  A$funcs$1009                       funcs
     00003C52  A$funcs$1010                       funcs
     00003C53  A$funcs$1011                       funcs
     00003C54  A$funcs$1015                       funcs
     00003C54  C$funcs.c$263$1$117                funcs
     00003C57  A$funcs$1019                       funcs
     00003C57  C$funcs.c$266$1$117                funcs
     00003C5A  A$funcs$1023                       funcs
     00003C5A  C$funcs.c$269$1$117                funcs
     00003C5D  A$funcs$1024                       funcs
     00003C5F  A$funcs$1028                       funcs
     00003C5F  C$funcs.c$272$1$117                funcs
     00003C62  A$funcs$1029                       funcs
     00003C64  A$funcs$1034                       funcs
     00003C64  C$funcs.c$273$1$117                funcs
     00003C64  XG$InitStage$0$0                   funcs
     00003C65  A$funcs$1047                       funcs
     00003C65  C$funcs.c$275$1$117                funcs
     00003C65  C$funcs.c$277$1$118                funcs
     00003C65  G$checkgamepause$0$0               funcs
     00003C65  _checkgamepause                    funcs
     00003C68  A$funcs$1048                       funcs
     00003C69  A$funcs$1049                       funcs
     00003C6A  A$funcs$1050                       funcs
     00003C6B  A$funcs$1054                       funcs
     00003C6B  C$funcs.c$279$2$119                funcs
     00003C6E  A$funcs$1058                       funcs
     00003C6E  C$funcs.c$280$2$119                funcs
     00003C71  A$funcs$1059                       funcs
     00003C73  A$funcs$1060                       funcs
     00003C74  A$funcs$1061                       funcs
     00003C75  A$funcs$1065                       funcs
     00003C75  C$funcs.c$281$2$119                funcs
     00003C78  A$funcs$1066                       funcs
     00003C79  A$funcs$1067                       funcs
     00003C7B  A$funcs$1071                       funcs
     00003C7B  C$funcs.c$282$2$119                funcs
     00003C7E  A$funcs$1072                       funcs
     00003C7F  A$funcs$1073                       funcs
     00003C82  A$funcs$1074                       funcs
     00003C83  A$funcs$1075                       funcs
     00003C86  A$funcs$1076                       funcs
     00003C87  A$funcs$1077                       funcs
     00003C88  A$funcs$1078                       funcs
     00003C89  A$funcs$1083                       funcs
     00003C89  C$funcs.c$284$2$119                funcs
     00003C8C  A$funcs$1084                       funcs
     00003C8D  A$funcs$1085                       funcs
     00003C8E  A$funcs$1086                       funcs
ASxxxx Linker V03.00 + NoICE + sdld,  page 206.
Hexadecimal  [32-Bits]

Area                                    Addr        Size        Decimal Bytes (Attributes)
--------------------------------        ----        ----        ------- ----- ------------
_CODE                               00000200    0000438F =       17295. bytes (REL,CON)

      Value  Global                              Global Defined In Module
      -----  --------------------------------   ------------------------
     00003C91  A$funcs$1087                       funcs
     00003C92  A$funcs$1088                       funcs
     00003C93  A$funcs$1089                       funcs
     00003C96  A$funcs$1090                       funcs
     00003C97  A$funcs$1091                       funcs
     00003C9A  A$funcs$1092                       funcs
     00003C9B  A$funcs$1093                       funcs
     00003C9C  A$funcs$1098                       funcs
     00003C9C  C$funcs.c$286$1$118                funcs
     00003C9C  XG$checkgamepause$0$0              funcs
     00003C9D  A$funcs$1111                       funcs
     00003C9D  C$funcs.c$288$1$118                funcs
     00003C9D  C$funcs.c$291$1$120                funcs
     00003C9D  G$UpdatePlayStage$0$0              funcs
     00003C9D  _UpdatePlayStage                   funcs
     00003C9F  A$funcs$1112                       funcs
     00003CA0  A$funcs$1113                       funcs
     00003CA1  A$funcs$1114                       funcs
     00003CA4  A$funcs$1115                       funcs
     00003CA5  A$funcs$1119                       funcs
     00003CA5  C$funcs.c$294$1$120                funcs
     00003CA8  A$funcs$1120                       funcs
     00003CAC  A$funcs$1121                       funcs
     00003CAF  A$funcs$1122                       funcs
     00003CB1  A$funcs$1123                       funcs
     00003CB2  A$funcs$1124                       funcs
     00003CB3  A$funcs$1125                       funcs
     00003CB4  A$funcs$1126                       funcs
     00003CB5  A$funcs$1127                       funcs
     00003CB6  A$funcs$1128                       funcs
     00003CB7  A$funcs$1133                       funcs
     00003CB7  C$funcs.c$295$1$120                funcs
     00003CB7  XG$UpdatePlayStage$0$0             funcs
     00003CBA  A$funcs$1146                       funcs
     00003CBA  C$funcs.c$298$1$120                funcs
     00003CBA  C$funcs.c$301$1$121                funcs
     00003CBA  G$UpdateStage$0$0                  funcs
     00003CBA  _UpdateStage                       funcs
     00003CBE  A$funcs$1147                       funcs
     00003CC1  A$funcs$1148                       funcs
     00003CC3  A$funcs$1149                       funcs
     00003CC6  A$funcs$1154                       funcs
     00003CC6  C$funcs.c$304$1$121                funcs
     00003CC9  A$funcs$1155                       funcs
     00003CCB  A$funcs$1156                       funcs
     00003CCC  A$funcs$1157                       funcs
     00003CCF  A$funcs$1158                       funcs
     00003CD0  A$funcs$1162                       funcs
     00003CD0  C$funcs.c$305$1$121                funcs
     00003CD3  A$funcs$1163                       funcs
     00003CD5  A$funcs$1164                       funcs
ASxxxx Linker V03.00 + NoICE + sdld,  page 207.
Hexadecimal  [32-Bits]

Area                                    Addr        Size        Decimal Bytes (Attributes)
--------------------------------        ----        ----        ------- ----- ------------
_CODE                               00000200    0000438F =       17295. bytes (REL,CON)

      Value  Global                              Global Defined In Module
      -----  --------------------------------   ------------------------
     00003CD6  A$funcs$1165                       funcs
     00003CD9  A$funcs$1166                       funcs
     00003CDA  A$funcs$1170                       funcs
     00003CDA  C$funcs.c$308$1$121                funcs
     00003CDD  A$funcs$1171                       funcs
     00003CDF  A$funcs$1172                       funcs
     00003CE1  A$funcs$1173                       funcs
     00003CE2  A$funcs$1174                       funcs
     00003CE4  A$funcs$1175                       funcs
     00003CE5  A$funcs$1176                       funcs
     00003CE8  A$funcs$1177                       funcs
     00003CE9  A$funcs$1181                       funcs
     00003CE9  C$funcs.c$309$1$121                funcs
     00003CEC  A$funcs$1182                       funcs
     00003CEE  A$funcs$1183                       funcs
     00003CF0  A$funcs$1184                       funcs
     00003CF2  A$funcs$1185                       funcs
     00003CF4  A$funcs$1186                       funcs
     00003CF6  A$funcs$1187                       funcs
     00003CF8  A$funcs$1188                       funcs
     00003CF9  A$funcs$1189                       funcs
     00003CFB  A$funcs$1190                       funcs
     00003CFC  A$funcs$1191                       funcs
     00003CFD  A$funcs$1192                       funcs
     00003D01  A$funcs$1193                       funcs
     00003D04  A$funcs$1197                       funcs
     00003D04  C$funcs.c$310$1$121                funcs
     00003D07  A$funcs$1198                       funcs
     00003D09  A$funcs$1199                       funcs
     00003D0B  A$funcs$1203                       funcs
     00003D0B  C$funcs.c$311$1$121                funcs
     00003D0F  A$funcs$1208                       funcs
     00003D0F  C$funcs.c$315$1$121                funcs
     00003D12  A$funcs$1209                       funcs
     00003D13  A$funcs$1210                       funcs
     00003D15  A$funcs$1214                       funcs
     00003D15  C$funcs.c$318$2$122                funcs
     00003D18  A$funcs$1218                       funcs
     00003D18  C$funcs.c$321$2$122                funcs
     00003D1B  A$funcs$1219                       funcs
     00003D1D  A$funcs$1223                       funcs
     00003D1D  C$funcs.c$324$2$122                funcs
     00003D20  A$funcs$1227                       funcs
     00003D20  C$funcs.c$327$2$122                funcs
     00003D23  A$funcs$1231                       funcs
     00003D23  C$funcs.c$330$2$122                funcs
     00003D26  A$funcs$1235                       funcs
     00003D26  C$funcs.c$333$2$122                funcs
     00003D29  A$funcs$1236                       funcs
     00003D2A  A$funcs$1237                       funcs
     00003D2C  A$funcs$1241                       funcs
ASxxxx Linker V03.00 + NoICE + sdld,  page 208.
Hexadecimal  [32-Bits]

Area                                    Addr        Size        Decimal Bytes (Attributes)
--------------------------------        ----        ----        ------- ----- ------------
_CODE                               00000200    0000438F =       17295. bytes (REL,CON)

      Value  Global                              Global Defined In Module
      -----  --------------------------------   ------------------------
     00003D2C  C$funcs.c$335$3$123                funcs
     00003D2F  A$funcs$1242                       funcs
     00003D31  A$funcs$1247                       funcs
     00003D31  C$funcs.c$341$2$124                funcs
     00003D34  A$funcs$1248                       funcs
     00003D35  A$funcs$1249                       funcs
     00003D37  A$funcs$1253                       funcs
     00003D37  C$funcs.c$342$2$124                funcs
     00003D3A  A$funcs$1258                       funcs
     00003D3A  C$funcs.c$346$1$121                funcs
     00003D3D  A$funcs$1259                       funcs
     00003D40  A$funcs$1264                       funcs
     00003D40  C$funcs.c$347$1$121                funcs
     00003D40  XG$UpdateStage$0$0                 funcs
     00003D41  A$funcs$1277                       funcs
     00003D41  C$funcs.c$349$1$121                funcs
     00003D41  C$funcs.c$351$1$126                funcs
     00003D41  G$PlaySound$0$0                    funcs
     00003D41  _PlaySound                         funcs
     00003D44  A$funcs$1278                       funcs
     00003D45  A$funcs$1279                       funcs
     00003D46  A$funcs$1280                       funcs
     00003D47  A$funcs$1281                       funcs
     00003D49  A$funcs$1282                       funcs
     00003D4C  A$funcs$1283                       funcs
     00003D4D  A$funcs$1284                       funcs
     00003D4E  A$funcs$1285                       funcs
     00003D4F  A$funcs$1290                       funcs
     00003D4F  C$funcs.c$353$2$127                funcs
     00003D51  A$funcs$1291                       funcs
     00003D52  A$funcs$1292                       funcs
     00003D53  A$funcs$1293                       funcs
     00003D56  A$funcs$1294                       funcs
     00003D57  A$funcs$1298                       funcs
     00003D57  C$funcs.c$354$2$127                funcs
     00003D5A  A$funcs$1299                       funcs
     00003D5B  A$funcs$1300                       funcs
     00003D5C  A$funcs$1301                       funcs
     00003D5D  A$funcs$1302                       funcs
     00003D5E  A$funcs$1303                       funcs
     00003D5F  A$funcs$1304                       funcs
     00003D60  A$funcs$1305                       funcs
     00003D61  A$funcs$1306                       funcs
     00003D62  A$funcs$1307                       funcs
     00003D65  A$funcs$1308                       funcs
     00003D66  A$funcs$1309                       funcs
     00003D67  A$funcs$1313                       funcs
     00003D67  C$funcs.c$355$2$127                funcs
     00003D69  A$funcs$1314                       funcs
     00003D6A  A$funcs$1315                       funcs
     00003D6B  A$funcs$1316                       funcs
ASxxxx Linker V03.00 + NoICE + sdld,  page 209.
Hexadecimal  [32-Bits]

Area                                    Addr        Size        Decimal Bytes (Attributes)
--------------------------------        ----        ----        ------- ----- ------------
_CODE                               00000200    0000438F =       17295. bytes (REL,CON)

      Value  Global                              Global Defined In Module
      -----  --------------------------------   ------------------------
     00003D6E  A$funcs$1317                       funcs
     00003D6F  A$funcs$1322                       funcs
     00003D6F  C$funcs.c$357$1$126                funcs
     00003D6F  XG$PlaySound$0$0                   funcs
     00003D70  A$funcs$1332                       funcs
     00003D70  C$funcs.c$360$1$126                funcs
     00003D70  G$PlayMusic$0$0                    funcs
     00003D70  _PlayMusic                         funcs
     00003D72  A$funcs$1333                       funcs
     00003D76  A$funcs$1334                       funcs
     00003D78  A$funcs$1338                       funcs
     00003D78  C$funcs.c$363$1$129                funcs
     00003D7B  A$funcs$1339                       funcs
     00003D7E  A$funcs$1343                       funcs
     00003D7E  C$funcs.c$366$1$129                funcs
     00003D81  A$funcs$1344                       funcs
     00003D82  A$funcs$1345                       funcs
     00003D83  A$funcs$1346                       funcs
     00003D86  A$funcs$1347                       funcs
     00003D87  A$funcs$1351                       funcs
     00003D8A  A$funcs$1352                       funcs
     00003D8D  A$funcs$1356                       funcs
     00003D8D  C$funcs.c$369$1$129                funcs
     00003D90  A$funcs$1357                       funcs
     00003D91  A$funcs$1358                       funcs
     00003D93  A$funcs$1362                       funcs
     00003D93  C$funcs.c$370$1$129                funcs
     00003D94  A$funcs$1363                       funcs
     00003D97  A$funcs$1364                       funcs
     00003D98  A$funcs$1365                       funcs
     00003D9A  A$funcs$1370                       funcs
     00003D9A  C$funcs.c$372$1$129                funcs
     00003D9B  A$funcs$1371                       funcs
     00003D9E  A$funcs$1372                       funcs
     00003D9F  A$funcs$1377                       funcs
     00003D9F  C$funcs.c$374$1$129                funcs
     00003DA2  A$funcs$1378                       funcs
     00003DA4  A$funcs$1379                       funcs
     00003DA6  A$funcs$1380                       funcs
     00003DA9  A$funcs$1381                       funcs
     00003DAB  A$funcs$1382                       funcs
     00003DAD  A$funcs$1384                       funcs
     00003DB0  A$funcs$1385                       funcs
     00003DB2  A$funcs$1386                       funcs
     00003DB4  A$funcs$1390                       funcs
     00003DB4  C$funcs.c$376$2$130                funcs
     00003DB7  A$funcs$1391                       funcs
     00003DBA  A$funcs$1392                       funcs
     00003DBD  A$funcs$1396                       funcs
     00003DBD  C$funcs.c$377$2$130                funcs
     00003DC0  A$funcs$1397                       funcs
ASxxxx Linker V03.00 + NoICE + sdld,  page 210.
Hexadecimal  [32-Bits]

Area                                    Addr        Size        Decimal Bytes (Attributes)
--------------------------------        ----        ----        ------- ----- ------------
_CODE                               00000200    0000438F =       17295. bytes (REL,CON)

      Value  Global                              Global Defined In Module
      -----  --------------------------------   ------------------------
     00003DC3  A$funcs$1401                       funcs
     00003DC3  C$funcs.c$378$2$130                funcs
     00003DC6  A$funcs$1402                       funcs
     00003DC9  A$funcs$1407                       funcs
     00003DC9  C$funcs.c$382$1$129                funcs
     00003DCB  A$funcs$1408                       funcs
     00003DCC  A$funcs$1409                       funcs
     00003DCD  A$funcs$1410                       funcs
     00003DD0  A$funcs$1411                       funcs
     00003DD1  A$funcs$1412                       funcs
     00003DD3  A$funcs$1417                       funcs
     00003DD3  C$funcs.c$383$1$129                funcs
     00003DD3  XG$PlayMusic$0$0                   funcs
     00003DD4  A$funcs$1430                       funcs
     00003DD4  C$funcs.c$386$1$129                funcs
     00003DD4  C$funcs.c$389$1$131                funcs
     00003DD4  G$UpdatePSG$0$0                    funcs
     00003DD4  _UpdatePSG                         funcs
     00003DD7  A$funcs$1431                       funcs
     00003DD8  A$funcs$1432                       funcs
     00003DDA  A$funcs$1436                       funcs
     00003DDA  C$funcs.c$391$2$132                funcs
     00003DDD  A$funcs$1437                       funcs
     00003DDE  A$funcs$1438                       funcs
     00003DDF  A$funcs$1439                       funcs
     00003DE2  A$funcs$1440                       funcs
     00003DE3  A$funcs$1444                       funcs
     00003DE3  C$funcs.c$392$2$132                funcs
     00003DE6  A$funcs$1449                       funcs
     00003DE6  C$funcs.c$396$1$131                funcs
     00003DE9  A$funcs$1450                       funcs
     00003DEA  A$funcs$1451                       funcs
     00003DEB  A$funcs$1452                       funcs
     00003DEC  A$funcs$1456                       funcs
     00003DEC  C$funcs.c$398$2$133                funcs
     00003DEE  A$funcs$1457                       funcs
     00003DEF  A$funcs$1458                       funcs
     00003DF0  A$funcs$1459                       funcs
     00003DF3  A$funcs$1460                       funcs
     00003DF4  A$funcs$1468                       funcs
     00003DF4  C$funcs.c$399$2$133                funcs
     00003DF4  C$funcs.c$401$1$131                funcs
     00003DF4  XG$UpdatePSG$0$0                   funcs
     00003DF7  A$funcs$1481                       funcs
     00003DF7  C$funcs.c$409$1$131                funcs
     00003DF7  C$funcs.c$414$1$135                funcs
     00003DF7  G$initenemyAssert$0$0              funcs
     00003DF7  _initenemyAssert                   funcs
     00003DF8  A$funcs$1482                       funcs
     00003DF9  A$funcs$1483                       funcs
     00003DFA  A$funcs$1484                       funcs
ASxxxx Linker V03.00 + NoICE + sdld,  page 211.
Hexadecimal  [32-Bits]

Area                                    Addr        Size        Decimal Bytes (Attributes)
--------------------------------        ----        ----        ------- ----- ------------
_CODE                               00000200    0000438F =       17295. bytes (REL,CON)

      Value  Global                              Global Defined In Module
      -----  --------------------------------   ------------------------
     00003DFB  A$funcs$1485                       funcs
     00003DFE  A$funcs$1486                       funcs
     00003DFF  A$funcs$1487                       funcs
     00003E01  A$funcs$1492                       funcs
     00003E01  C$funcs.c$415$1$135                funcs
     00003E01  XG$initenemyAssert$0$0             funcs
     00003E02  A$funcs$1505                       funcs
     00003E02  C$funcs.c$416$1$135                funcs
     00003E02  C$funcs.c$421$1$137                funcs
     00003E02  G$updateenemyAssert$0$0            funcs
     00003E02  _updateenemyAssert                 funcs
     00003E03  A$funcs$1506                       funcs
     00003E04  A$funcs$1507                       funcs
     00003E05  A$funcs$1508                       funcs
     00003E06  A$funcs$1509                       funcs
     00003E09  A$funcs$1510                       funcs
     00003E0A  A$funcs$1511                       funcs
     00003E0C  A$funcs$1515                       funcs
     00003E0C  C$funcs.c$422$1$137                funcs
     00003E0E  A$funcs$1520                       funcs
     00003E0E  C$funcs.c$423$1$137                funcs
     00003E0E  XG$updateenemyAssert$0$0           funcs
     00003E0F  A$funcs$1537                       funcs
     00003E0F  C$funcs.c$424$1$137                funcs
     00003E0F  C$funcs.c$429$1$138                funcs
     00003E0F  C$funcs.c$430$1$138                funcs
     00003E0F  G$updatestageAssert$0$0            funcs
     00003E0F  XG$updatestageAssert$0$0           funcs
     00003E0F  _updatestageAssert                 funcs
     00003E10  A$funcs$1554                       funcs
     00003E10  C$funcs.c$431$1$138                funcs
     00003E10  C$funcs.c$436$1$138                funcs
     00003E10  G$initstageAssert$0$0              funcs
     00003E10  XG$initstageAssert$0$0             funcs
     00003E10  _initstageAssert                   funcs
     00003E11  A$funcs$1571                       funcs
     00003E11  C$funcs.c$438$1$138                funcs
     00003E11  C$funcs.c$443$1$140                funcs
     00003E11  C$funcs.c$444$1$140                funcs
     00003E11  G$playerupdateAssert$0$0           funcs
     00003E11  XG$playerupdateAssert$0$0          funcs
     00003E11  _playerupdateAssert                funcs
     00003E12  __divuint                          
     00003E1A  __divuchar                         
     00003E21  __divu8                            
     00003E24  __divu16                           
     00003E53  _UNSAFE_SMS_copySpritestoSAT       SMSlib_UNSAFE
     00003E6B  _UNSAFE_SMS_VRAMmemcpy32           SMSlib_UNSAFE
     00003E88  _UNSAFE_SMS_VRAMmemcpy64           SMSlib_UNSAFE
     00003EA5  _UNSAFE_SMS_VRAMmemcpy128          SMSlib_UNSAFE
     00003EC2  _SMS_init                          SMSlib
ASxxxx Linker V03.00 + NoICE + sdld,  page 212.
Hexadecimal  [32-Bits]

Area                                    Addr        Size        Decimal Bytes (Attributes)
--------------------------------        ----        ----        ------- ----- ------------
_CODE                               00000200    0000438F =       17295. bytes (REL,CON)

      Value  Global                              Global Defined In Module
      -----  --------------------------------   ------------------------
     00003F16  _VDPReg_init                       SMSlib
     00003F21  _SMS_VDPType                       SMSlib
     00003F29  _SMS_VDPturnOnFeature              SMSlib
     00003F40  _SMS_VDPturnOffFeature             SMSlib
     00003F59  _SMS_setBGScrollX                  SMSlib
     00003F63  _SMS_setBGScrollY                  SMSlib
     00003F6D  _SMS_setBackdropColor              SMSlib
     00003F77  _SMS_useFirstHalfTilesforSprites   SMSlib
     00003F8B  _SMS_setSpriteMode                 SMSlib
     00003FD0  _SMS_setBGPaletteColor             SMSlib
     00003FE4  _SMS_setSpritePaletteColor         SMSlib
     00003FF8  _SMS_loadBGPalette                 SMSlib
     0000400C  _SMS_loadSpritePalette             SMSlib
     00004020  _SMS_setColor                      SMSlib
     00004024  _SMS_waitForVBlank                 SMSlib
     00004031  _SMS_getKeysStatus                 SMSlib
     00004035  _SMS_getKeysPressed                SMSlib
     00004052  _SMS_getKeysHeld                   SMSlib
     00004069  _SMS_getKeysReleased               SMSlib
     00004086  _SMS_queryPauseRequested           SMSlib
     0000408E  _SMS_resetPauseRequest             SMSlib
     00004094  _SMS_setLineInterruptHandler       SMSlib
     000040A5  _SMS_setLineCounter                SMSlib
     000040B4  _SMS_getVCount                     SMSlib
     000040B8  _SMS_getHCount                     SMSlib
     000040BC  _SMS_isr                           SMSlib
     000040F2  _SMS_nmi_isr                       SMSlib
     00004105  _SMS_VRAMmemset                    SMSlib_VRAMmemset
     0000412A  _SMS_VRAMmemsetW                   SMSlib_VRAMmemset
     0000415A  _SMS_initSprites                   SMSlib_sprite
     00004160  _SMS_addSprite                     SMSlib_sprite
     00004193  _SMS_finalizeSprites               SMSlib_sprite
     000041A5  _SMS_copySpritestoSAT              SMSlib_sprite
     000041CE  __moduchar                         
     000041DA  __moduint                          
     000041E5  _abs                               
     000041F1  __mulint                           
     000041F7  __mul16                            
     0000420B  _SMS_VRAMmemcpy                    SMSlib_VRAMmemcpy
     0000423A  _SMS_VRAMmemcpy_brief              SMSlib_VRAMmemcpy
     0000425C  _SMS_loadSTMcompressedTileMapAre   SMSlib_STMcomp
     0000443D  ___sdcc_call_hl                    
     0000443E  _SMS_loadPSGaidencompressedTiles   SMSlib_PSGaiden
     0000451F  _strlen                            
     0000452E  __modschar                         
     0000453B  __modsint                          
     00004547  __divsint                          
     00004550  __divschar                         
     00004557  __div8                             
     0000455B  __div_signexte                     
     0000455F  __div16                            
ASxxxx Linker V03.00 + NoICE + sdld,  page 213.
Hexadecimal  [32-Bits]

Area                                    Addr        Size        Decimal Bytes (Attributes)
--------------------------------        ----        ----        ------- ----- ------------
_CODE                               00000200    0000438F =       17295. bytes (REL,CON)

      Value  Global                              Global Defined In Module
      -----  --------------------------------   ------------------------
     00004585  __get_remainder                    
ASxxxx Linker V03.00 + NoICE + sdld,  page 214.
Hexadecimal  [32-Bits]

Area                                    Addr        Size        Decimal Bytes (Attributes)
--------------------------------        ----        ----        ------- ----- ------------
_HEADER0                            00000000    00000006 =           6. bytes (ABS,CON)

      Value  Global                              Global Defined In Module
      -----  --------------------------------   ------------------------
     00000006  _SMS_crt0_RST08                    crt0

ASxxxx Linker V03.00 + NoICE + sdld,  page 215.
Hexadecimal  [32-Bits]

Area                                    Addr        Size        Decimal Bytes (Attributes)
--------------------------------        ----        ----        ------- ----- ------------
_HEADER1                            00000000    00000009 =           9. bytes (ABS,CON)

      Value  Global                              Global Defined In Module
      -----  --------------------------------   ------------------------
     00000011  _SMS_crt0_RST18                    crt0

ASxxxx Linker V03.00 + NoICE + sdld,  page 216.
Hexadecimal  [32-Bits]

Area                                    Addr        Size        Decimal Bytes (Attributes)
--------------------------------        ----        ----        ------- ----- ------------
_HEADER2                            00000000    0000000A =          10. bytes (ABS,CON)

      Value  Global                              Global Defined In Module
      -----  --------------------------------   ------------------------
ASxxxx Linker V03.00 + NoICE + sdld,  page 217.
Hexadecimal  [32-Bits]

Area                                    Addr        Size        Decimal Bytes (Attributes)
--------------------------------        ----        ----        ------- ----- ------------
_HEADER3                            00000000    00000003 =           3. bytes (ABS,CON)

      Value  Global                              Global Defined In Module
      -----  --------------------------------   ------------------------
ASxxxx Linker V03.00 + NoICE + sdld,  page 218.
Hexadecimal  [32-Bits]

Area                                    Addr        Size        Decimal Bytes (Attributes)
--------------------------------        ----        ----        ------- ----- ------------
_HEADER4                            00000000    00000003 =           3. bytes (ABS,CON)

      Value  Global                              Global Defined In Module
      -----  --------------------------------   ------------------------
ASxxxx Linker V03.00 + NoICE + sdld,  page 219.
Hexadecimal  [32-Bits]

Area                                    Addr        Size        Decimal Bytes (Attributes)
--------------------------------        ----        ----        ------- ----- ------------
_HEADER5                            00000000    0000012A =         298. bytes (ABS,CON)

      Value  Global                              Global Defined In Module
      -----  --------------------------------   ------------------------
     00000099  _OUTI128                           crt0
     00000119  _OUTI64                            crt0
     00000159  _OUTI32                            crt0
     00000199  _outi_block                        crt0

ASxxxx Linker V03.00 + NoICE + sdld,  page 220.
Hexadecimal  [32-Bits]

Area                                    Addr        Size        Decimal Bytes (Attributes)
--------------------------------        ----        ----        ------- ----- ------------
_HOME                               0000458F    0000017C =         380. bytes (REL,CON)

      Value  Global                              Global Defined In Module
      -----  --------------------------------   ------------------------
     0000458F  __mullong                          _mullong

ASxxxx Linker V03.00 + NoICE + sdld,  page 221.
Hexadecimal  [32-Bits]

Area                                    Addr        Size        Decimal Bytes (Attributes)
--------------------------------        ----        ----        ------- ----- ------------
_INITIALIZER                        0000470B    00000256 =         598. bytes (REL,CON)

      Value  Global                              Global Defined In Module
      -----  --------------------------------   ------------------------
     0000470B  Ffixedbank$__xinit_jukebox_songs   fixedbank
     00004735  Ffixedbank$__xinit_jukebox_names   fixedbank
     0000475F  Ffixedbank$__xinit_selectornames   fixedbank
     00004769  Ffixedbank$__xinit_intro1labels$   fixedbank
     00004775  Ffixedbank$__xinit_intro3labels$   fixedbank
     0000478B  Ffixedbank$__xinit_finishlabels$   fixedbank
     000047B3  Ffixedbank$__xinit_stageinitdata   fixedbank
     00004833  Ffixedbank$__xinit_ww2plane_patt   fixedbank
     0000483F  Ffixedbank$__xinit_spawners$0$0    fixedbank
     0000486B  Ffixedbank$__xinit_imagepointers   fixedbank
     00004917  Ffixedbank$__xinit_monsterheadsh   fixedbank
     00004927  Ffixedbank$__xinit_monsterheadsh   fixedbank
     00004937  Ffixedbank$__xinit_difficultlabe   fixedbank
     0000493B  Ffixedbank$__xinit_playerupdatef   fixedbank
     00004941  Fbarrom$__xinit_barromx$0$0        barrom
     0000494D  Fbarrom$__xinit_barromy$0$0        barrom
     00004959  Ffuncs$__xinit_state$0$0           funcs

ASxxxx Linker V03.00 + NoICE + sdld,  page 222.
Hexadecimal  [32-Bits]

Area                                    Addr        Size        Decimal Bytes (Attributes)
--------------------------------        ----        ----        ------- ----- ------------
_GSINIT                             00004961    0000000F =          15. bytes (REL,CON)

      Value  Global                              Global Defined In Module
      -----  --------------------------------   ------------------------
     00004961  gsinit                             crt0

ASxxxx Linker V03.00 + NoICE + sdld,  page 223.
Hexadecimal  [32-Bits]

Area                                    Addr        Size        Decimal Bytes (Attributes)
--------------------------------        ----        ----        ------- ----- ------------
_GSFINAL                            00004970    00000001 =           1. bytes (REL,CON)

      Value  Global                              Global Defined In Module
      -----  --------------------------------   ------------------------
ASxxxx Linker V03.00 + NoICE + sdld,  page 224.
Hexadecimal  [32-Bits]

Area                                    Addr        Size        Decimal Bytes (Attributes)
--------------------------------        ----        ----        ------- ----- ------------
_DATA                               0000C000    00000267 =         615. bytes (REL,CON)

      Value  Global                              Global Defined In Module
      -----  --------------------------------   ------------------------
     0000C000  _PSGMusicStatus                    PSGlib
     0000C001  _PSGMusicStart                     PSGlib
     0000C003  _PSGMusicPointer                   PSGlib
     0000C005  _PSGMusicLoopPoint                 PSGlib
     0000C007  _PSGMusicSkipFrames                PSGlib
     0000C008  _PSGLoopFlag                       PSGlib
     0000C009  _PSGMusicLastLatch                 PSGlib
     0000C00A  _PSGMusicVolumeAttenuation         PSGlib
     0000C00B  _PSGMusicSubstringLen              PSGlib
     0000C00C  _PSGMusicSubstringRetAddr          PSGlib
     0000C00E  _PSGChan0Volume                    PSGlib
     0000C00F  _PSGChan1Volume                    PSGlib
     0000C010  _PSGChan2Volume                    PSGlib
     0000C011  _PSGChan3Volume                    PSGlib
     0000C012  _PSGChan2LowTone                   PSGlib
     0000C013  _PSGChan2HighTone                  PSGlib
     0000C014  _PSGChan3LowTone                   PSGlib
     0000C015  _PSGChannel2SFX                    PSGlib
     0000C016  _PSGChannel3SFX                    PSGlib
     0000C017  _PSGSFXChan2Volume                 PSGlib
     0000C018  _PSGSFXChan3Volume                 PSGlib
     0000C019  _PSGSFXStatus                      PSGlib
     0000C01A  _PSGSFXStart                       PSGlib
     0000C01C  _PSGSFXPointer                     PSGlib
     0000C01E  _PSGSFXLoopPoint                   PSGlib
     0000C020  _PSGSFXSkipFrames                  PSGlib
     0000C021  _PSGSFXLoopFlag                    PSGlib
     0000C022  _PSGSFXSubstringLen                PSGlib
     0000C023  _PSGSFXSubstringRetAddr            PSGlib
     0000C025  G$barromtime$0$0                   barrom
     0000C025  _barromtime                        barrom
     0000C026  G$jukeboxselectedline$0$0          jukeboxstage
     0000C026  _jukeboxselectedline               jukeboxstage
     0000C027  G$jukeboxselectedsong$0$0          jukeboxstage
     0000C027  _jukeboxselectedsong               jukeboxstage
     0000C028  G$jukeboxcheckkey$0$0              jukeboxstage
     0000C028  _jukeboxcheckkey                   jukeboxstage
     0000C029  G$keystatus$0$0                    vars
     0000C029  _keystatus                         vars
     0000C02B  G$stageframe$0$0                   vars
     0000C02B  _stageframe                        vars
     0000C02D  G$stageframe2mod$0$0               vars
     0000C02D  _stageframe2mod                    vars
     0000C02E  G$stageframe4mod$0$0               vars
     0000C02E  _stageframe4mod                    vars
     0000C02F  G$sprite82anim$0$0                 vars
     0000C02F  _sprite82anim                      vars
     0000C030  G$sprite164anim$0$0                vars
     0000C030  _sprite164anim                     vars
     0000C031  G$basestage$0$0                    vars
ASxxxx Linker V03.00 + NoICE + sdld,  page 225.
Hexadecimal  [32-Bits]

Area                                    Addr        Size        Decimal Bytes (Attributes)
--------------------------------        ----        ----        ------- ----- ------------
_DATA                               0000C000    00000267 =         615. bytes (REL,CON)

      Value  Global                              Global Defined In Module
      -----  --------------------------------   ------------------------
     0000C031  _basestage                         vars
     0000C032  G$playstage$0$0                    vars
     0000C032  _playstage                         vars
     0000C033  G$updateplaystage$0$0              vars
     0000C033  _updateplaystage                   vars
     0000C034  G$stagenum$0$0                     vars
     0000C034  _stagenum                          vars
     0000C035  G$laststagenum$0$0                 vars
     0000C035  _laststagenum                      vars
     0000C036  G$numplayers$0$0                   vars
     0000C036  _numplayers                        vars
     0000C037  G$exitplaystage$0$0                vars
     0000C037  _exitplaystage                     vars
     0000C038  G$gamelevel$0$0                    vars
     0000C038  _gamelevel                         vars
     0000C039  G$gamestock$0$0                    vars
     0000C039  _gamestock                         vars
     0000C03A  G$gamepause$0$0                    vars
     0000C03A  _gamepause                         vars
     0000C03B  G$playerx$0$0                      vars
     0000C03B  _playerx                           vars
     0000C03C  G$playery$0$0                      vars
     0000C03C  _playery                           vars
     0000C03D  G$playertype$0$0                   vars
     0000C03D  _playertype                        vars
     0000C03E  G$playercounter$0$0                vars
     0000C03E  _playercounter                     vars
     0000C03F  G$playershootcounter$0$0           vars
     0000C03F  _playershootcounter                vars
     0000C040  G$playerside$0$0                   vars
     0000C040  _playerside                        vars
     0000C041  G$playerspeed$0$0                  vars
     0000C041  _playerspeed                       vars
     0000C042  G$playershootlevel$0$0             vars
     0000C042  _playershootlevel                  vars
     0000C043  G$playershootmax$0$0               vars
     0000C043  _playershootmax                    vars
     0000C044  G$numplayershoots$0$0              vars
     0000C044  _numplayershoots                   vars
     0000C045  G$playershoots$0$0                 vars
     0000C045  _playershoots                      vars
     0000C054  G$shootcount$0$0                   vars
     0000C054  _shootcount                        vars
     0000C055  G$numenemyshoots$0$0               vars
     0000C055  _numenemyshoots                    vars
     0000C056  G$enemyshoots$0$0                  vars
     0000C056  _enemyshoots                       vars
     0000C088  G$playstageshootspeed$0$0          vars
     0000C088  _playstageshootspeed               vars
     0000C089  G$numexplosions$0$0                vars
     0000C089  _numexplosions                     vars
ASxxxx Linker V03.00 + NoICE + sdld,  page 226.
Hexadecimal  [32-Bits]

Area                                    Addr        Size        Decimal Bytes (Attributes)
--------------------------------        ----        ----        ------- ----- ------------
_DATA                               0000C000    00000267 =         615. bytes (REL,CON)

      Value  Global                              Global Defined In Module
      -----  --------------------------------   ------------------------
     0000C08A  G$explosions$0$0                   vars
     0000C08A  _explosions                        vars
     0000C0B2  G$numenemies$0$0                   vars
     0000C0B2  _numenemies                        vars
     0000C0B3  G$enemies$0$0                      vars
     0000C0B3  _enemies                           vars
     0000C10D  G$maplines$0$0                     vars
     0000C10D  _maplines                          vars
     0000C10F  G$maplineslength$0$0               vars
     0000C10F  _maplineslength                    vars
     0000C111  G$maptiles$0$0                     vars
     0000C111  _maptiles                          vars
     0000C113  G$mappositionx$0$0                 vars
     0000C113  _mappositionx                      vars
     0000C115  G$mappositiony$0$0                 vars
     0000C115  _mappositiony                      vars
     0000C117  G$oldmappositiony$0$0              vars
     0000C117  _oldmappositiony                   vars
     0000C119  G$lastbank$0$0                     vars
     0000C119  _lastbank                          vars
     0000C11A  G$mapstatics$0$0                   vars
     0000C11A  _mapstatics                        vars
     0000C11C  G$mapstaticscount$0$0              vars
     0000C11C  _mapstaticscount                   vars
     0000C11E  G$mapstaticsbank$0$0               vars
     0000C11E  _mapstaticsbank                    vars
     0000C11F  G$musicbank$0$0                    vars
     0000C11F  _musicbank                         vars
     0000C120  G$mapbank$0$0                      vars
     0000C120  _mapbank                           vars
     0000C121  G$playstagebank$0$0                vars
     0000C121  _playstagebank                     vars
     0000C122  G$numscrolls$0$0                   vars
     0000C122  _numscrolls                        vars
     0000C123  G$scrollactspeedy$0$0              vars
     0000C123  _scrollactspeedy                   vars
     0000C124  G$scrollactspeedx$0$0              vars
     0000C124  _scrollactspeedx                   vars
     0000C125  G$scrollact$0$0                    vars
     0000C125  _scrollact                         vars
     0000C126  G$scrolltimes$0$0                  vars
     0000C126  _scrolltimes                       vars
     0000C128  G$disablescroll$0$0                vars
     0000C128  _disablescroll                     vars
     0000C129  G$scrolls$0$0                      vars
     0000C129  _scrolls                           vars
     0000C12B  G$numscripts$0$0                   vars
     0000C12B  _numscripts                        vars
     0000C12C  G$scripts$0$0                      vars
     0000C12C  _scripts                           vars
     0000C14C  G$numtimeredlabels$0$0             vars
ASxxxx Linker V03.00 + NoICE + sdld,  page 227.
Hexadecimal  [32-Bits]

Area                                    Addr        Size        Decimal Bytes (Attributes)
--------------------------------        ----        ----        ------- ----- ------------
_DATA                               0000C000    00000267 =         615. bytes (REL,CON)

      Value  Global                              Global Defined In Module
      -----  --------------------------------   ------------------------
     0000C14C  _numtimeredlabels                  vars
     0000C14D  G$timeredlabels$0$0                vars
     0000C14D  _timeredlabels                     vars
     0000C153  G$introstageposx$0$0               vars
     0000C153  _introstageposx                    vars
     0000C155  G$introstagevelx$0$0               vars
     0000C155  _introstagevelx                    vars
     0000C157  G$dojukebox$0$0                    vars
     0000C157  _dojukebox                         vars
     0000C158  G$spawnedexplosionposx$0$0         vars
     0000C158  _spawnedexplosionposx              vars
     0000C159  G$spawnedexplosionposy$0$0         vars
     0000C159  _spawnedexplosionposy              vars
     0000C15A  G$spawnedexplosionwidth$0$0        vars
     0000C15A  _spawnedexplosionwidth             vars
     0000C15B  G$spawnedexplosionheight$0$0       vars
     0000C15B  _spawnedexplosionheight            vars
     0000C15C  G$spawnedexplosiontime$0$0         vars
     0000C15C  _spawnedexplosiontime              vars
     0000C15D  G$stage4playrays$0$0               vars
     0000C15D  _stage4playrays                    vars
     0000C15E  G$numinterrupts$0$0                vars
     0000C15E  _numinterrupts                     vars
     0000C15F  G$powerupx$0$0                     vars
     0000C15F  _powerupx                          vars
     0000C160  G$powerupy$0$0                     vars
     0000C160  _powerupy                          vars
     0000C161  G$powerupt$0$0                     vars
     0000C161  _powerupt                          vars
     0000C162  G$powerupv$0$0                     vars
     0000C162  _powerupv                          vars
     0000C163  G$powerupcounter$0$0               vars
     0000C163  _powerupcounter                    vars
     0000C165  G$lastplayedmusic$0$0              vars
     0000C165  _lastplayedmusic                   vars
     0000C167  G$lastplayedmusicbank$0$0          vars
     0000C167  _lastplayedmusicbank               vars
     0000C168  G$lastplayedmusiclooped$0$0        vars
     0000C168  _lastplayedmusiclooped             vars
     0000C169  G$stage8phase$0$0                  vars
     0000C169  _stage8phase                       vars
     0000C16A  G$stage3stars$0$0                  vars
     0000C16A  _stage3stars                       vars
     0000C17C  _VDPBlank                          SMSlib
     0000C17D  _SMS_VDPFlags                      SMSlib
     0000C17E  _PauseRequested                    SMSlib
     0000C17F  _VDPType                           SMSlib
     0000C180  _KeysStatus                        SMSlib
     0000C182  _PreviousKeysStatus                SMSlib
     0000C184  _SMS_theLineInterruptHandler       SMSlib
     0000C186  _SpriteTableY                      SMSlib_sprite
ASxxxx Linker V03.00 + NoICE + sdld,  page 228.
Hexadecimal  [32-Bits]

Area                                    Addr        Size        Decimal Bytes (Attributes)
--------------------------------        ----        ----        ------- ----- ------------
_DATA                               0000C000    00000267 =         615. bytes (REL,CON)

      Value  Global                              Global Defined In Module
      -----  --------------------------------   ------------------------
     0000C1C6  _SpriteTableXN                     SMSlib_sprite
     0000C246  _SpriteNextFree                    SMSlib_sprite
     0000C247  _decompBuffer                      SMSlib_PSGaiden

ASxxxx Linker V03.00 + NoICE + sdld,  page 229.
Hexadecimal  [32-Bits]

Area                                    Addr        Size        Decimal Bytes (Attributes)
--------------------------------        ----        ----        ------- ----- ------------
_INITIALIZED                        0000C267    00000256 =         598. bytes (REL,CON)

      Value  Global                              Global Defined In Module
      -----  --------------------------------   ------------------------
     0000C267  G$jukebox_songs$0$0                fixedbank
     0000C267  _jukebox_songs                     fixedbank
     0000C291  G$jukebox_names$0$0                fixedbank
     0000C291  _jukebox_names                     fixedbank
     0000C2BB  G$selectornamestage$0$0            fixedbank
     0000C2BB  _selectornamestage                 fixedbank
     0000C2C5  G$intro1labels$0$0                 fixedbank
     0000C2C5  _intro1labels                      fixedbank
     0000C2D1  G$intro3labels$0$0                 fixedbank
     0000C2D1  _intro3labels                      fixedbank
     0000C2E7  G$finishlabels$0$0                 fixedbank
     0000C2E7  _finishlabels                      fixedbank
     0000C30F  G$stageinitdata$0$0                fixedbank
     0000C30F  _stageinitdata                     fixedbank
     0000C38F  G$ww2plane_patterns$0$0            fixedbank
     0000C38F  _ww2plane_patterns                 fixedbank
     0000C39B  G$spawners$0$0                     fixedbank
     0000C39B  _spawners                          fixedbank
     0000C3C7  G$imagepointers$0$0                fixedbank
     0000C3C7  _imagepointers                     fixedbank
     0000C473  G$monsterheadshootdirecionsx$0$0   fixedbank
     0000C473  _monsterheadshootdirecionsx        fixedbank
     0000C483  G$monsterheadshootdirecionsy$0$0   fixedbank
     0000C483  _monsterheadshootdirecionsy        fixedbank
     0000C493  G$difficultlabels$0$0              fixedbank
     0000C493  _difficultlabels                   fixedbank
     0000C497  G$playerupdatefunctions$0$0        fixedbank
     0000C497  _playerupdatefunctions             fixedbank
     0000C49D  G$barromx$0$0                      barrom
     0000C49D  _barromx                           barrom
     0000C4A9  G$barromy$0$0                      barrom
     0000C4A9  _barromy                           barrom
     0000C4B5  G$state$0$0                        funcs
     0000C4B5  _state                             funcs
     0000C4B9  _VDPReg                            SMSlib
     0000C4BB  _spritesHeight                     SMSlib
     0000C4BC  _spritesWidth                      SMSlib

ASxxxx Linker V03.00 + NoICE + sdld,  page 230.
Hexadecimal  [32-Bits]

Area                                    Addr        Size        Decimal Bytes (Attributes)
--------------------------------        ----        ----        ------- ----- ------------
_BANK2                              00008000    00003FB5 =       16309. bytes (REL,CON)

      Value  Global                              Global Defined In Module
      -----  --------------------------------   ------------------------
     00008000  G$bigexplosion_psgcompr$0$0        bank2
     00008000  _bigexplosion_psgcompr             bank2
     000080A7  G$ending_psg$0$0                   bank2
     000080A7  _ending_psg                        bank2
     0000A7F1  G$enemybomb_psg$0$0                bank2
     0000A7F1  _enemybomb_psg                     bank2
     0000A809  G$enemylaser_psg$0$0               bank2
     0000A809  _enemylaser_psg                    bank2
     0000A821  G$explosion_psg$0$0                bank2
     0000A821  _explosion_psg                     bank2
     0000A83A  G$font_psgcompr$0$0                bank2
     0000A83A  _font_psgcompr                     bank2
     0000AA09  G$fortressdoor_psgcompr$0$0        bank2
     0000AA09  _fortressdoor_psgcompr             bank2
     0000AA45  G$mikgamestilemap_bin$0$0          bank2
     0000AA45  _mikgamestilemap_bin               bank2
     0000AAC5  G$mikgamestiles_psgcompr$0$0       bank2
     0000AAC5  _mikgamestiles_psgcompr            bank2
     0000ABC3  G$pause_psg$0$0                    bank2
     0000ABC3  _pause_psg                         bank2
     0000ABE6  G$persons_bin$0$0                  bank2
     0000ABE6  _persons_bin                       bank2
     0000ADDE  G$persons_psgcompr$0$0             bank2
     0000ADDE  _persons_psgcompr                  bank2
     0000B849  G$personspalette_bin$0$0           bank2
     0000B849  _personspalette_bin                bank2
     0000B859  G$playershoot_psg$0$0              bank2
     0000B859  _playershoot_psg                   bank2
     0000B861  G$powerup_psg$0$0                  bank2
     0000B861  _powerup_psg                       bank2
     0000B88F  G$ray_psg$0$0                      bank2
     0000B88F  _ray_psg                           bank2
     0000B8B2  G$selectorpalette_bin$0$0          bank2
     0000B8B2  _selectorpalette_bin               bank2
     0000B8C2  G$selectortiles_psgcompr$0$0       bank2
     0000B8C2  _selectortiles_psgcompr            bank2
     0000BF84  G$silence_psg$0$0                  bank2
     0000BF84  _silence_psg                       bank2

ASxxxx Linker V03.00 + NoICE + sdld,  page 231.
Hexadecimal  [32-Bits]

Area                                    Addr        Size        Decimal Bytes (Attributes)
--------------------------------        ----        ----        ------- ----- ------------
_BANK3                              00008000    00003FED =       16365. bytes (REL,CON)

      Value  Global                              Global Defined In Module
      -----  --------------------------------   ------------------------
     00008000  G$fortresssearch_psgcompr$0$0      bank3
     00008000  _fortresssearch_psgcompr           bank3
     000082CF  G$logopalette_bin$0$0              bank3
     000082CF  _logopalette_bin                   bank3
     000082DF  G$logotilemap_l$0$0                bank3
     000082DF  _logotilemap_l                     bank3
     000082FB  G$logotilemap_m$0$0                bank3
     000082FB  _logotilemap_m                     bank3
     0000867B  G$logotiles_psgcompr$0$0           bank3
     0000867B  _logotiles_psgcompr                bank3
     000090ED  G$spacestation_psgcompr$0$0        bank3
     000090ED  _spacestation_psgcompr             bank3
     000091A8  G$stage2palette_bin$0$0            bank3
     000091A8  _stage2palette_bin                 bank3
     000091B8  G$stage2tilemap_l$0$0              bank3
     000091B8  _stage2tilemap_l                   bank3
     000093B8  G$stage2tilemap_m$0$0              bank3
     000093B8  _stage2tilemap_m                   bank3
     0000B538  G$stage2tiles_psgcompr$0$0         bank3
     0000B538  _stage2tiles_psgcompr              bank3
     0000BF8D  G$ww2ship_psgcompr$0$0             bank3
     0000BF8D  _ww2ship_psgcompr                  bank3

ASxxxx Linker V03.00 + NoICE + sdld,  page 232.
Hexadecimal  [32-Bits]

Area                                    Addr        Size        Decimal Bytes (Attributes)
--------------------------------        ----        ----        ------- ----- ------------
_BANK4                              00008000    00003FBD =       16317. bytes (REL,CON)

      Value  Global                              Global Defined In Module
      -----  --------------------------------   ------------------------
     00008000  G$endingstagetilemap_bin$0$0       bank4
     00008000  _endingstagetilemap_bin            bank4
     000082C0  G$endingstagetiles_psgcompr$0$0    bank4
     000082C0  _endingstagetiles_psgcompr         bank4
     000082DC  G$intro2_psg$0$0                   bank4
     000082DC  _intro2_psg                        bank4
     00008B69  G$introovni_psgcompr$0$0           bank4
     00008B69  _introovni_psgcompr                bank4
     00008CA2  G$introsideplayer_psgcompr$0$0     bank4
     00008CA2  _introsideplayer_psgcompr          bank4
     00008D1A  G$rectship_psgcompr$0$0            bank4
     00008D1A  _rectship_psgcompr                 bank4
     00008DBF  G$select_psg$0$0                   bank4
     00008DBF  _select_psg                        bank4
     00008F67  G$stage3_psg$0$0                   bank4
     00008F67  _stage3_psg                        bank4
     0000A683  G$stage4endboss_psgcompr$0$0       bank4
     0000A683  _stage4endboss_psgcompr            bank4
     0000A7F4  G$stage4endbossb_psgcompr$0$0      bank4
     0000A7F4  _stage4endbossb_psgcompr           bank4
     0000A824  G$stage4endbossc_psgcompr$0$0      bank4
     0000A824  _stage4endbossc_psgcompr           bank4
     0000A995  G$stage4middleboss_psgcompr$0$0    bank4
     0000A995  _stage4middleboss_psgcompr         bank4
     0000ABF0  G$stage4palette_bin$0$0            bank4
     0000ABF0  _stage4palette_bin                 bank4
     0000AC00  G$stage4tilemap_l$0$0              bank4
     0000AC00  _stage4tilemap_l                   bank4
     0000ACBD  G$stage4tilemap_m$0$0              bank4
     0000ACBD  _stage4tilemap_m                   bank4
     0000B4FD  G$stage4tiles_psgcompr$0$0         bank4
     0000B4FD  _stage4tiles_psgcompr              bank4
     0000BC63  G$vulcantank_psgcompr$0$0          bank4
     0000BC63  _vulcantank_psgcompr               bank4
     0000BE1B  G$warning_psgcompr$0$0             bank4
     0000BE1B  _warning_psgcompr                  bank4
     0000BE9C  G$waveship_psgcompr$0$0            bank4
     0000BE9C  _waveship_psgcompr                 bank4

ASxxxx Linker V03.00 + NoICE + sdld,  page 233.
Hexadecimal  [32-Bits]

Area                                    Addr        Size        Decimal Bytes (Attributes)
--------------------------------        ----        ----        ------- ----- ------------
_BANK5                              00008000    00003FDB =       16347. bytes (REL,CON)

      Value  Global                              Global Defined In Module
      -----  --------------------------------   ------------------------
     00008000  G$intro3_psg$0$0                   bank5
     00008000  _intro3_psg                        bank5
     00009310  G$littleexplosion_psgcompr$0$0     bank5
     00009310  _littleexplosion_psgcompr          bank5
     00009327  G$monsterhead_psgcompr$0$0         bank5
     00009327  _monsterhead_psgcompr              bank5
     000095AA  G$monstermissil_psgcompr$0$0       bank5
     000095AA  _monstermissil_psgcompr            bank5
     00009734  G$stage1_psg$0$0                   bank5
     00009734  _stage1_psg                        bank5
     0000BAAD  G$stage7endboss_psgcompr$0$0       bank5
     0000BAAD  _stage7endboss_psgcompr            bank5
     0000BC36  G$vulcanbird_psgcompr$0$0          bank5
     0000BC36  _vulcanbird_psgcompr               bank5
     0000BE16  G$vulcanlaser_psgcompr$0$0         bank5
     0000BE16  _vulcanlaser_psgcompr              bank5
     0000BE5C  G$vulcanlava_psgcompr$0$0          bank5
     0000BE5C  _vulcanlava_psgcompr               bank5
     0000BED7  G$vulcanvulcan_psgcompr$0$0        bank5
     0000BED7  _vulcanvulcan_psgcompr             bank5
     0000BEFC  G$ww2zeppelin_psgcompr$0$0         bank5
     0000BEFC  _ww2zeppelin_psgcompr              bank5

ASxxxx Linker V03.00 + NoICE + sdld,  page 234.
Hexadecimal  [32-Bits]

Area                                    Addr        Size        Decimal Bytes (Attributes)
--------------------------------        ----        ----        ------- ----- ------------
_BANK6                              00008000    00003FB1 =       16305. bytes (REL,CON)

      Value  Global                              Global Defined In Module
      -----  --------------------------------   ------------------------
     00008000  G$bombship_psgcompr$0$0            bank6
     00008000  _bombship_psgcompr                 bank6
     00008118  G$fortresscannon_psgcompr$0$0      bank6
     00008118  _fortresscannon_psgcompr           bank6
     00008286  G$logo_psg$0$0                     bank6
     00008286  _logo_psg                          bank6
     00009B52  G$spreadship_psgcompr$0$0          bank6
     00009B52  _spreadship_psgcompr               bank6
     00009BE5  G$stage5palette_bin$0$0            bank6
     00009BE5  _stage5palette_bin                 bank6
     00009BF5  G$stage5tilemap_l$0$0              bank6
     00009BF5  _stage5tilemap_l                   bank6
     00009DAD  G$stage5tilemap_m$0$0              bank6
     00009DAD  _stage5tilemap_m                   bank6
     0000AF6D  G$stage5tiles_psgcompr$0$0         bank6
     0000AF6D  _stage5tiles_psgcompr              bank6
     0000B20C  G$stage6palette_bin$0$0            bank6
     0000B20C  _stage6palette_bin                 bank6
     0000B21C  G$stage6tilemap_l$0$0              bank6
     0000B21C  _stage6tilemap_l                   bank6
     0000B24C  G$stage6tilemap_m$0$0              bank6
     0000B24C  _stage6tilemap_m                   bank6
     0000B54C  G$stage6tiles_psgcompr$0$0         bank6
     0000B54C  _stage6tiles_psgcompr              bank6
     0000BD16  G$turnship_psgcompr$0$0            bank6
     0000BD16  _turnship_psgcompr                 bank6
     0000BE74  G$watertiles_bin$0$0               bank6
     0000BE74  _watertiles_bin                    bank6
     0000BF74  G$ww2cloud_psgcompr$0$0            bank6
     0000BF74  _ww2cloud_psgcompr                 bank6
ASxxxx Linker V03.00 + NoICE + sdld,  page 235.
Hexadecimal  [32-Bits]

Area                                    Addr        Size        Decimal Bytes (Attributes)
--------------------------------        ----        ----        ------- ----- ------------
_BANK7                              00008000    00003FD0 =       16336. bytes (REL,CON)

      Value  Global                              Global Defined In Module
      -----  --------------------------------   ------------------------
     00008000  G$bone_psgcompr$0$0                bank7
     00008000  _bone_psgcompr                     bank7
     0000811A  G$cursors_psgcompr$0$0             bank7
     0000811A  _cursors_psgcompr                  bank7
     00008125  G$enemyshoot_psgcompr$0$0          bank7
     00008125  _enemyshoot_psgcompr               bank7
     0000817E  G$fortresswave_psgcompr$0$0        bank7
     0000817E  _fortresswave_psgcompr             bank7
     000081EA  G$stage3palette_bin$0$0            bank7
     000081EA  _stage3palette_bin                 bank7
     000081FA  G$stage3tilemap_l$0$0              bank7
     000081FA  _stage3tilemap_l                   bank7
     0000834E  G$stage3tilemap_m$0$0              bank7
     0000834E  _stage3tilemap_m                   bank7
     0000A9CE  G$stage3tiles_psgcompr$0$0         bank7
     0000A9CE  _stage3tiles_psgcompr              bank7
     0000AC3D  G$stage5endboss_psgcompr$0$0       bank7
     0000AC3D  _stage5endboss_psgcompr            bank7
     0000AF24  G$stage6_psg$0$0                   bank7
     0000AF24  _stage6_psg                        bank7
     0000B760  G$stage7animtiles_bin$0$0          bank7
     0000B760  _stage7animtiles_bin               bank7
     0000B860  G$stage7animtilesc_bin$0$0         bank7
     0000B860  _stage7animtilesc_bin              bank7
     0000B960  G$stage7animtilesd_bin$0$0         bank7
     0000B960  _stage7animtilesd_bin              bank7
     0000BA60  G$stage7animtilese_bin$0$0         bank7
     0000BA60  _stage7animtilese_bin              bank7
     0000BB60  G$ww2plane_psgcompr$0$0            bank7
     0000BB60  _ww2plane_psgcompr                 bank7
     0000BE7E  G$ww2tank_psgcompr$0$0             bank7
     0000BE7E  _ww2tank_psgcompr                  bank7

ASxxxx Linker V03.00 + NoICE + sdld,  page 236.
Hexadecimal  [32-Bits]

Area                                    Addr        Size        Decimal Bytes (Attributes)
--------------------------------        ----        ----        ------- ----- ------------
_BANK8                              00008000    00003FA9 =       16297. bytes (REL,CON)

      Value  Global                              Global Defined In Module
      -----  --------------------------------   ------------------------
     00008000  G$gameover_psg$0$0                 bank8
     00008000  _gameover_psg                      bank8
     00008240  G$introstage1tilemap_bin$0$0       bank8
     00008240  _introstage1tilemap_bin            bank8
     000084C0  G$introstage1tiles_psgcompr$0$0    bank8
     000084C0  _introstage1tiles_psgcompr         bank8
     00008E29  G$introstage2tilemap_bin$0$0       bank8
     00008E29  _introstage2tilemap_bin            bank8
     000090E9  G$introstage2tiles_psgcompr$0$0    bank8
     000090E9  _introstage2tiles_psgcompr         bank8
     0000921B  G$playershoot_psgcompr$0$0         bank8
     0000921B  _playershoot_psgcompr              bank8
     00009271  G$stage4_psg$0$0                   bank8
     00009271  _stage4_psg                        bank8
     0000B9D0  G$stage7a_psg$0$0                  bank8
     0000B9D0  _stage7a_psg                       bank8

ASxxxx Linker V03.00 + NoICE + sdld,  page 237.
Hexadecimal  [32-Bits]

Area                                    Addr        Size        Decimal Bytes (Attributes)
--------------------------------        ----        ----        ------- ----- ------------
_BANK9                              00008000    00003F7E =       16254. bytes (REL,CON)

      Value  Global                              Global Defined In Module
      -----  --------------------------------   ------------------------
     00008000  G$afterboss_psg$0$0                bank9
     00008000  _afterboss_psg                     bank9
     0000823B  G$firetiles_bin$0$0                bank9
     0000823B  _firetiles_bin                     bank9
     0000863B  G$fortressphantom_psgcompr$0$0     bank9
     0000863B  _fortressphantom_psgcompr          bank9
     000087BC  G$norefuge_psg$0$0                 bank9
     000087BC  _norefuge_psg                      bank9
     00008921  G$stage1endboss_psgcompr$0$0       bank9
     00008921  _stage1endboss_psgcompr            bank9
     00008C09  G$stage1middleboss_psgcompr$0$0    bank9
     00008C09  _stage1middleboss_psgcompr         bank9
     00008E6B  G$stage2endboss_psgcompr$0$0       bank9
     00008E6B  _stage2endboss_psgcompr            bank9
     00009191  G$stage7middleboss_psgcompr$0$0    bank9
     00009191  _stage7middleboss_psgcompr         bank9
     00009645  G$stage7palette_bin$0$0            bank9
     00009645  _stage7palette_bin                 bank9
     00009655  G$stage7tilemap_l$0$0              bank9
     00009655  _stage7tilemap_l                   bank9
     00009835  G$stage7tilemap_m$0$0              bank9
     00009835  _stage7tilemap_m                   bank9
     0000BAF5  G$stage7tiles_psgcompr$0$0         bank9
     0000BAF5  _stage7tiles_psgcompr              bank9
ASxxxx Linker V03.00 + NoICE + sdld,  page 238.
Hexadecimal  [32-Bits]

Area                                    Addr        Size        Decimal Bytes (Attributes)
--------------------------------        ----        ----        ------- ----- ------------
_BANK10                             00008000    00003FE2 =       16354. bytes (REL,CON)

      Value  Global                              Global Defined In Module
      -----  --------------------------------   ------------------------
     00008000  G$animtilestage1_bin$0$0           bank10
     00008000  _animtilestage1_bin                bank10
     00008080  G$introstar_psgcompr$0$0           bank10
     00008080  _introstar_psgcompr                bank10
     0000808E  G$powerup_psgcompr$0$0             bank10
     0000808E  _powerup_psgcompr                  bank10
     00008133  G$scrolltilestage1_bin$0$0         bank10
     00008133  _scrolltilestage1_bin              bank10
     000081F3  G$skull_psgcompr$0$0               bank10
     000081F3  _skull_psgcompr                    bank10
     000084DB  G$spaceanimtiles_bin$0$0           bank10
     000084DB  _spaceanimtiles_bin                bank10
     0000869B  G$spaceasteroidbig_psgcompr$0$0    bank10
     0000869B  _spaceasteroidbig_psgcompr         bank10
     0000876D  G$spaceasteroidlittle_psgcompr$0   bank10
     0000876D  _spaceasteroidlittle_psgcompr      bank10
     00008789  G$spaceasteroidmedium_psgcompr$0   bank10
     00008789  _spaceasteroidmedium_psgcompr      bank10
     000087F1  G$stage1palette_bin$0$0            bank10
     000087F1  _stage1palette_bin                 bank10
     000087FA  G$stage1tilemap_l$0$0              bank10
     000087FA  _stage1tilemap_l                   bank10
     000089FA  G$stage1tilemap_m$0$0              bank10
     000089FA  _stage1tilemap_m                   bank10
     00009BFA  G$stage1tiles_psgcompr$0$0         bank10
     00009BFA  _stage1tiles_psgcompr              bank10
     00009C7C  G$stage2_psg$0$0                   bank10
     00009C7C  _stage2_psg                        bank10
     0000BD04  G$stage3endboss_psgcompr$0$0       bank10
     0000BD04  _stage3endboss_psgcompr            bank10
     0000BEE0  G$stage8lateral_psgcompr$0$0       bank10
     0000BEE0  _stage8lateral_psgcompr            bank10

ASxxxx Linker V03.00 + NoICE + sdld,  page 239.
Hexadecimal  [32-Bits]

Area                                    Addr        Size        Decimal Bytes (Attributes)
--------------------------------        ----        ----        ------- ----- ------------
_BANK11                             00008000    00003C2B =       15403. bytes (REL,CON)

      Value  Global                              Global Defined In Module
      -----  --------------------------------   ------------------------
     00008000  G$spaceshooter_psgcompr$0$0        bank11
     00008000  _spaceshooter_psgcompr             bank11
     00008144  G$stage5_psg$0$0                   bank11
     00008144  _stage5_psg                        bank11
     00009E0B  G$stage7_psg$0$0                   bank11
     00009E0B  _stage7_psg                        bank11
ASxxxx Linker V03.00 + NoICE + sdld,  page 240.
Hexadecimal  [32-Bits]

Area                                    Addr        Size        Decimal Bytes (Attributes)
--------------------------------        ----        ----        ------- ----- ------------
_BANK12                             00008000    00003F51 =       16209. bytes (REL,CON)

      Value  Global                              Global Defined In Module
      -----  --------------------------------   ------------------------
     00008000  G$boss_psg$0$0                     bank12
     00008000  _boss_psg                          bank12
     00009ABC  G$escape_psg$0$0                   bank12
     00009ABC  _escape_psg                        bank12
     0000A616  G$flight_psg$0$0                   bank12
     0000A616  _flight_psg                        bank12
     0000B99E  G$introstage3tilemap_bin$0$0       bank12
     0000B99E  _introstage3tilemap_bin            bank12
     0000BC9E  G$introstage3tiles_psgcompr$0$0    bank12
     0000BC9E  _introstage3tiles_psgcompr         bank12

ASxxxx Linker V03.00 + NoICE + sdld,  page 241.
Hexadecimal  [32-Bits]

Area                                    Addr        Size        Decimal Bytes (Attributes)
--------------------------------        ----        ----        ------- ----- ------------
_BANK13                             00008000    00003FEA =       16362. bytes (REL,CON)

      Value  Global                              Global Defined In Module
      -----  --------------------------------   ------------------------
     00008000  G$monsterblob_psgcompr$0$0         bank13
     00008000  _monsterblob_psgcompr              bank13
     00008120  G$skullb_psgcompr$0$0              bank13
     00008120  _skullb_psgcompr                   bank13
     00008428  G$stage8_psg$0$0                   bank13
     00008428  _stage8_psg                        bank13
     0000A98C  G$stage8animtilesamov_bin$0$0      bank13
     0000A98C  _stage8animtilesamov_bin           bank13
     0000B08C  G$stage8animtilesbmov_bin$0$0      bank13
     0000B08C  _stage8animtilesbmov_bin           bank13
     0000B78C  G$stage8animtilescloudsmov_bin$0   bank13
     0000B78C  _stage8animtilescloudsmov_bin      bank13
     0000B88C  G$stage8bossb_psgcompr$0$0         bank13
     0000B88C  _stage8bossb_psgcompr              bank13
     0000BECA  G$stage8bossc_psgcompr$0$0         bank13
     0000BECA  _stage8bossc_psgcompr              bank13

ASxxxx Linker V03.00 + NoICE + sdld,  page 242.
Hexadecimal  [32-Bits]

Area                                    Addr        Size        Decimal Bytes (Attributes)
--------------------------------        ----        ----        ------- ----- ------------
_BANK14                             00008000    00003FB3 =       16307. bytes (REL,CON)

      Value  Global                              Global Defined In Module
      -----  --------------------------------   ------------------------
     00008000  G$boss2_psg$0$0                    bank14
     00008000  _boss2_psg                         bank14
     00009930  G$player_psgcompr$0$0              bank14
     00009930  _player_psgcompr                   bank14
     00009AA2  G$stage8palette_bin$0$0            bank14
     00009AA2  _stage8palette_bin                 bank14
     00009AB2  G$stage8tilemap_l$0$0              bank14
     00009AB2  _stage8tilemap_l                   bank14
     00009CA6  G$stage8tilemap_m$0$0              bank14
     00009CA6  _stage8tilemap_m                   bank14
     0000B766  G$stage8tiles_psgcompr$0$0         bank14
     0000B766  _stage8tiles_psgcompr              bank14
     0000BD91  G$vulcanstation_psgcompr$0$0       bank14
     0000BD91  _vulcanstation_psgcompr            bank14

ASxxxx Linker V03.00 + NoICE + sdld,  page 243.
Hexadecimal  [32-Bits]

Area                                    Addr        Size        Decimal Bytes (Attributes)
--------------------------------        ----        ----        ------- ----- ------------
_BANK15                             00008000    00003815 =       14357. bytes (REL,CON)

      Value  Global                              Global Defined In Module
      -----  --------------------------------   ------------------------
     00008000  G$playershootspeedsx$0$0           fixedbank
     00008000  _playershootspeedsx                fixedbank
     00008004  G$playershootspeedsy$0$0           fixedbank
     00008004  _playershootspeedsy                fixedbank
     00008008  G$stage6_fade_pink$0$0             fixedbank
     00008008  _stage6_fade_pink                  fixedbank
     00008010  G$stage6_fade_blue$0$0             fixedbank
     00008010  _stage6_fade_blue                  fixedbank
     00008018  G$skullshootvelx$0$0               fixedbank
     00008018  _skullshootvelx                    fixedbank
     0000801F  G$skullshootvely$0$0               fixedbank
     0000801F  _skullshootvely                    fixedbank
     00008026  G$skullbshootvelx$0$0              fixedbank
     00008026  _skullbshootvelx                   fixedbank
     00008036  G$skullbshootvely$0$0              fixedbank
     00008036  _skullbshootvely                   fixedbank
     00008046  G$palette_bin$0$0                  fixedbank
     00008046  _palette_bin                       fixedbank
     00008056  G$stage4_stormpalette$0$0          fixedbank
     00008056  _stage4_stormpalette               fixedbank
     00008066  G$stage4_seapalette$0$0            fixedbank
     00008066  _stage4_seapalette                 fixedbank
     0000806A  G$stage1_flashpalette$0$0          fixedbank
     0000806A  _stage1_flashpalette               fixedbank
     00008072  G$aracmovingx$0$0                  fixedbank
     00008072  _aracmovingx                       fixedbank
     0000807A  G$aracmovingy$0$0                  fixedbank
     0000807A  _aracmovingy                       fixedbank
     00008082  G$aracmovingt$0$0                  fixedbank
     00008082  _aracmovingt                       fixedbank
     00008092  G$crossamovingx$0$0                fixedbank
     00008092  _crossamovingx                     fixedbank
     0000809A  G$crossamovingy$0$0                fixedbank
     0000809A  _crossamovingy                     fixedbank
     000080A2  G$crossamovingt$0$0                fixedbank
     000080A2  _crossamovingt                     fixedbank
     000080B2  G$crossbmovingx$0$0                fixedbank
     000080B2  _crossbmovingx                     fixedbank
     000080BA  G$crossbmovingy$0$0                fixedbank
     000080BA  _crossbmovingy                     fixedbank
     000080C2  G$crossbmovingt$0$0                fixedbank
     000080C2  _crossbmovingt                     fixedbank
     000080D2  G$stage2endbossshootpatternx$0$0   fixedbank
     000080D2  _stage2endbossshootpatternx        fixedbank
     000080D8  G$stage2endbossshootpatterny$0$0   fixedbank
     000080D8  _stage2endbossshootpatterny        fixedbank
     000080DE  G$stage3enemylaserposx$0$0         fixedbank
     000080DE  _stage3enemylaserposx              fixedbank
     000080E6  G$stage3enemylaserposy$0$0         fixedbank
     000080E6  _stage3enemylaserposy              fixedbank
ASxxxx Linker V03.00 + NoICE + sdld,  page 244.
Hexadecimal  [32-Bits]

Area                                    Addr        Size        Decimal Bytes (Attributes)
--------------------------------        ----        ----        ------- ----- ------------
_BANK15                             00008000    00003815 =       14357. bytes (REL,CON)

      Value  Global                              Global Defined In Module
      -----  --------------------------------   ------------------------
     000080EE  G$stage3laservelx$0$0              fixedbank
     000080EE  _stage3laservelx                   fixedbank
     000080F6  G$stage3laservely$0$0              fixedbank
     000080F6  _stage3laservely                   fixedbank
     000080FE  G$Stage1MiddleBossBPatternX$0$0    fixedbank
     000080FE  _Stage1MiddleBossBPatternX         fixedbank
     00008106  G$Stage1MiddleBossBPatternY$0$0    fixedbank
     00008106  _Stage1MiddleBossBPatternY         fixedbank
     0000810E  G$sinustable$0$0                   fixedbank
     0000810E  _sinustable                        fixedbank
     0000820E  G$jukebox_repeat$0$0               fixedbank
     0000820E  _jukebox_repeat                    fixedbank
     00008223  G$jukebox_banks$0$0                fixedbank
     00008223  _jukebox_banks                     fixedbank
     00008238  G$selectorstatebasetiles$0$0       fixedbank
     00008238  _selectorstatebasetiles            fixedbank
     0000823D  G$selectormarkx$0$0                fixedbank
     0000823D  _selectormarkx                     fixedbank
     00008241  G$selectormarky$0$0                fixedbank
     00008241  _selectormarky                     fixedbank
     00008245  G$selectormarkt$0$0                fixedbank
     00008245  _selectormarkt                     fixedbank
     00008249  G$intro4script$0$0                 fixedbank
     00008249  _intro4script                      fixedbank
     00008375  G$intro1script$0$0                 fixedbank
     00008375  _intro1script                      fixedbank
     0000846F  G$intro2script$0$0                 fixedbank
     0000846F  _intro2script                      fixedbank
     0000850A  G$intro3script$0$0                 fixedbank
     0000850A  _intro3script                      fixedbank
     00008550  G$finishscript$0$0                 fixedbank
     00008550  _finishscript                      fixedbank
     00008654  G$stagedatamarks$0$0               fixedbank
     00008654  _stagedatamarks                    fixedbank
     0000865C  G$ww2planemovementy$0$0            fixedbank
     0000865C  _ww2planemovementy                 fixedbank
     00008664  G$ww2planemovementx$0$0            fixedbank
     00008664  _ww2planemovementx                 fixedbank
     0000866C  G$ww2plane_pattern_a$0$0           fixedbank
     0000866C  _ww2plane_pattern_a                fixedbank
     0000867A  G$ww2plane_pattern_b$0$0           fixedbank
     0000867A  _ww2plane_pattern_b                fixedbank
     00008688  G$ww2plane_pattern_c$0$0           fixedbank
     00008688  _ww2plane_pattern_c                fixedbank
     0000869A  G$ww2plane_pattern_d$0$0           fixedbank
     0000869A  _ww2plane_pattern_d                fixedbank
     000086AC  G$ww2plane_pattern_e$0$0           fixedbank
     000086AC  _ww2plane_pattern_e                fixedbank
     000086CA  G$ww2plane_pattern_f$0$0           fixedbank
     000086CA  _ww2plane_pattern_f                fixedbank
     000086E8  G$span_waveship80_script$0$0       fixedbank
ASxxxx Linker V03.00 + NoICE + sdld,  page 245.
Hexadecimal  [32-Bits]

Area                                    Addr        Size        Decimal Bytes (Attributes)
--------------------------------        ----        ----        ------- ----- ------------
_BANK15                             00008000    00003815 =       14357. bytes (REL,CON)

      Value  Global                              Global Defined In Module
      -----  --------------------------------   ------------------------
     000086E8  _span_waveship80_script            fixedbank
     000086F7  G$span_waveship160_script$0$0      fixedbank
     000086F7  _span_waveship160_script           fixedbank
     00008706  G$span_randomrectship_script$0$0   fixedbank
     00008706  _span_randomrectship_script        fixedbank
     00008728  G$span_rectshiplateral_script$0$   fixedbank
     00008728  _span_rectshiplateral_script       fixedbank
     0000874A  G$span_bombships_script$0$0        fixedbank
     0000874A  _span_bombships_script             fixedbank
     0000875D  G$span_randomwaveship_script$0$0   fixedbank
     0000875D  _span_randomwaveship_script        fixedbank
     00008775  G$span_turnships_script$0$0        fixedbank
     00008775  _span_turnships_script             fixedbank
     000087A6  G$span_spreadships_script$0$0      fixedbank
     000087A6  _span_spreadships_script           fixedbank
     000087B4  G$stage4scriptc$0$0                fixedbank
     000087B4  _stage4scriptc                     fixedbank
     000087C8  G$stage4scriptb$0$0                fixedbank
     000087C8  _stage4scriptb                     fixedbank
     00008813  G$stage4script$0$0                 fixedbank
     00008813  _stage4script                      fixedbank
     0000884A  G$span_ww2planea_script$0$0        fixedbank
     0000884A  _span_ww2planea_script             fixedbank
     0000886C  G$span_ww2planeb_script$0$0        fixedbank
     0000886C  _span_ww2planeb_script             fixedbank
     0000888E  G$span_ww2planec_script$0$0        fixedbank
     0000888E  _span_ww2planec_script             fixedbank
     000088B0  G$span_ww2zeppelina_script$0$0     fixedbank
     000088B0  _span_ww2zeppelina_script          fixedbank
     000088C3  G$stage5scriptc$0$0                fixedbank
     000088C3  _stage5scriptc                     fixedbank
     000088D2  G$stage5scriptb$0$0                fixedbank
     000088D2  _stage5scriptb                     fixedbank
     000089B8  G$stage5script$0$0                 fixedbank
     000089B8  _stage5script                      fixedbank
     00008ABB  G$stage5_statics$0$0               fixedbank
     00008ABB  _stage5_statics                    fixedbank
     00008BF5  G$stage1_statics$0$0               fixedbank
     00008BF5  _stage1_statics                    fixedbank
     00009227  G$stage2_statics$0$0               fixedbank
     00009227  _stage2_statics                    fixedbank
     00009827  G$span_asteroids_full_script$0$0   fixedbank
     00009827  _span_asteroids_full_script        fixedbank
     00009858  G$span_asteroids_little_script$0   fixedbank
     00009858  _span_asteroids_little_script      fixedbank
     0000987A  G$stage3scriptb$0$0                fixedbank
     0000987A  _stage3scriptb                     fixedbank
     00009893  G$stage3script$0$0                 fixedbank
     00009893  _stage3script                      fixedbank
     000098C0  G$stage3_statics$0$0               fixedbank
     000098C0  _stage3_statics                    fixedbank
ASxxxx Linker V03.00 + NoICE + sdld,  page 246.
Hexadecimal  [32-Bits]

Area                                    Addr        Size        Decimal Bytes (Attributes)
--------------------------------        ----        ----        ------- ----- ------------
_BANK15                             00008000    00003815 =       14357. bytes (REL,CON)

      Value  Global                              Global Defined In Module
      -----  --------------------------------   ------------------------
     00009B38  G$stage7_statics$0$0               fixedbank
     00009B38  _stage7_statics                    fixedbank
     00009EF8  G$initenemyfunctions$0$0           fixedbank
     00009EF8  _initenemyfunctions                fixedbank
     00009F66  G$updateenemyfunctions$0$0         fixedbank
     00009F66  _updateenemyfunctions              fixedbank
     0000A012  G$updatestagefunctions$0$0         fixedbank
     0000A012  _updatestagefunctions              fixedbank
     0000A024  G$initstagefunctions$0$0           fixedbank
     0000A024  _initstagefunctions                fixedbank
     0000A02A  G$killenemyfunctions$0$0           fixedbank
     0000A02A  _killenemyfunctions                fixedbank
     0000A02C  G$stage4_scrollers$0$0             fixedbank
     0000A02C  _stage4_scrollers                  fixedbank
     0000A0CC  G$stage1_scrollers$0$0             fixedbank
     0000A0CC  _stage1_scrollers                  fixedbank
     0000A0F4  G$stage2_scrollers$0$0             fixedbank
     0000A0F4  _stage2_scrollers                  fixedbank
     0000A112  G$stage5_scrollers$0$0             fixedbank
     0000A112  _stage5_scrollers                  fixedbank
     0000A13A  G$stage3_scrollers$0$0             fixedbank
     0000A13A  _stage3_scrollers                  fixedbank
     0000A14E  G$stage7_scrollers$0$0             fixedbank
     0000A14E  _stage7_scrollers                  fixedbank
     0000A162  G$stage6_scrollers$0$0             fixedbank
     0000A162  _stage6_scrollers                  fixedbank
     0000A176  G$imagebases$0$0                   fixedbank
     0000A176  _imagebases                        fixedbank
     0000A222  G$imagebanks$0$0                   fixedbank
     0000A222  _imagebanks                        fixedbank
     0000A278  G$stage3spriteslist$0$0            fixedbank
     0000A278  _stage3spriteslist                 fixedbank
     0000A284  G$stage1spriteslist$0$0            fixedbank
     0000A284  _stage1spriteslist                 fixedbank
     0000A28C  G$stage2spriteslist$0$0            fixedbank
     0000A28C  _stage2spriteslist                 fixedbank
     0000A294  G$stage7spriteslist$0$0            fixedbank
     0000A294  _stage7spriteslist                 fixedbank
     0000A29A  G$stage5spriteslist$0$0            fixedbank
     0000A29A  _stage5spriteslist                 fixedbank
     0000A2A0  G$stage4spriteslist$0$0            fixedbank
     0000A2A0  _stage4spriteslist                 fixedbank
     0000A2AA  G$stage6spriteslist$0$0            fixedbank
     0000A2AA  _stage6spriteslist                 fixedbank
     0000A2AD  G$stage6script$0$0                 fixedbank
     0000A2AD  _stage6script                      fixedbank
     0000A2B7  G$stage6scriptb$0$0                fixedbank
     0000A2B7  _stage6scriptb                     fixedbank
     0000A2C1  G$vulcantankshootspeedx$0$0        fixedbank
     0000A2C1  _vulcantankshootspeedx             fixedbank
     0000A2C4  G$vulcantankshootspeedy$0$0        fixedbank
ASxxxx Linker V03.00 + NoICE + sdld,  page 247.
Hexadecimal  [32-Bits]

Area                                    Addr        Size        Decimal Bytes (Attributes)
--------------------------------        ----        ----        ------- ----- ------------
_BANK15                             00008000    00003815 =       14357. bytes (REL,CON)

      Value  Global                              Global Defined In Module
      -----  --------------------------------   ------------------------
     0000A2C4  _vulcantankshootspeedy             fixedbank
     0000A2C7  G$vulcanstationshootspeedx$0$0     fixedbank
     0000A2C7  _vulcanstationshootspeedx          fixedbank
     0000A2CA  G$vulcanstationshootspeedy$0$0     fixedbank
     0000A2CA  _vulcanstationshootspeedy          fixedbank
     0000A2CD  G$stage8bosscshootspeedx$0$0       fixedbank
     0000A2CD  _stage8bosscshootspeedx            fixedbank
     0000A2DD  G$stage8bosscshootspeedy$0$0       fixedbank
     0000A2DD  _stage8bosscshootspeedy            fixedbank
     0000A2EC  G$stage8bossbshootspeedx$0$0       fixedbank
     0000A2EC  _stage8bossbshootspeedx            fixedbank
     0000A2FC  G$stage8bossbshootspeedy$0$0       fixedbank
     0000A2FC  _stage8bossbshootspeedy            fixedbank
     0000A30C  G$checkcollisionfunctions$0$0      fixedbank
     0000A30C  _checkcollisionfunctions           fixedbank
     0000A30E  G$updateintro3objectfunctions$0$   fixedbank
     0000A30E  _updateintro3objectfunctions       fixedbank
     0000A310  G$stage8spriteslist$0$0            fixedbank
     0000A310  _stage8spriteslist                 fixedbank
     0000A317  G$stage8_statics$0$0               fixedbank
     0000A317  _stage8_statics                    fixedbank
     0000A951  G$stage8_scrollers$0$0             fixedbank
     0000A951  _stage8_scrollers                  fixedbank
     0000A95B  G$updatestage8bossbfunctions$0$0   fixedbank
     0000A95B  _updatestage8bossbfunctions        fixedbank
     0000A95D  G$stage8animpalette$0$0            fixedbank
     0000A95D  _stage8animpalette                 fixedbank
     0000A96B  G$enemieswidth$0$0                 fixedbank
     0000A96B  _enemieswidth                      fixedbank
     0000A9C1  G$enemiesheight$0$0                fixedbank
     0000A9C1  _enemiesheight                     fixedbank
     0000AA17  G$enemiesenergy$0$0                fixedbank
     0000AA17  _enemiesenergy                     fixedbank
     0000AA6D  G$intro1_psg$0$0                   fixedbank
     0000AA6D  _intro1_psg                        fixedbank
     0000B3AE  Ffixedbank$__str_0$0$0             fixedbank
     0000B3BC  Ffixedbank$__str_1$0$0             fixedbank
     0000B3CA  Ffixedbank$__str_2$0$0             fixedbank
     0000B3D8  Ffixedbank$__str_3$0$0             fixedbank
     0000B3E6  Ffixedbank$__str_4$0$0             fixedbank
     0000B3F4  Ffixedbank$__str_5$0$0             fixedbank
     0000B402  Ffixedbank$__str_6$0$0             fixedbank
     0000B410  Ffixedbank$__str_7$0$0             fixedbank
     0000B41E  Ffixedbank$__str_8$0$0             fixedbank
     0000B42C  Ffixedbank$__str_9$0$0             fixedbank
     0000B43A  Ffixedbank$__str_10$0$0            fixedbank
     0000B448  Ffixedbank$__str_11$0$0            fixedbank
     0000B456  Ffixedbank$__str_12$0$0            fixedbank
     0000B464  Ffixedbank$__str_13$0$0            fixedbank
     0000B472  Ffixedbank$__str_14$0$0            fixedbank
     0000B480  Ffixedbank$__str_15$0$0            fixedbank
ASxxxx Linker V03.00 + NoICE + sdld,  page 248.
Hexadecimal  [32-Bits]

Area                                    Addr        Size        Decimal Bytes (Attributes)
--------------------------------        ----        ----        ------- ----- ------------
_BANK15                             00008000    00003815 =       14357. bytes (REL,CON)

      Value  Global                              Global Defined In Module
      -----  --------------------------------   ------------------------
     0000B48E  Ffixedbank$__str_16$0$0            fixedbank
     0000B49C  Ffixedbank$__str_17$0$0            fixedbank
     0000B4AA  Ffixedbank$__str_18$0$0            fixedbank
     0000B4B8  Ffixedbank$__str_19$0$0            fixedbank
     0000B4C6  Ffixedbank$__str_20$0$0            fixedbank
     0000B4D4  Ffixedbank$__str_21$0$0            fixedbank
     0000B4DD  Ffixedbank$__str_22$0$0            fixedbank
     0000B4E6  Ffixedbank$__str_23$0$0            fixedbank
     0000B4EF  Ffixedbank$__str_24$0$0            fixedbank
     0000B4F7  Ffixedbank$__str_25$0$0            fixedbank
     0000B500  Ffixedbank$__str_26$0$0            fixedbank
     0000B50D  Ffixedbank$__str_27$0$0            fixedbank
     0000B521  Ffixedbank$__str_28$0$0            fixedbank
     0000B538  Ffixedbank$__str_29$0$0            fixedbank
     0000B549  Ffixedbank$__str_30$0$0            fixedbank
     0000B55E  Ffixedbank$__str_31$0$0            fixedbank
     0000B574  Ffixedbank$__str_32$0$0            fixedbank
     0000B589  Ffixedbank$__str_33$0$0            fixedbank
     0000B5A3  Ffixedbank$__str_34$0$0            fixedbank
     0000B5B9  Ffixedbank$__str_35$0$0            fixedbank
     0000B5CC  Ffixedbank$__str_36$0$0            fixedbank
     0000B5DC  Ffixedbank$__str_37$0$0            fixedbank
     0000B5EF  Ffixedbank$__str_38$0$0            fixedbank
     0000B603  Ffixedbank$__str_39$0$0            fixedbank
     0000B61D  Ffixedbank$__str_40$0$0            fixedbank
     0000B633  Ffixedbank$__str_41$0$0            fixedbank
     0000B651  Ffixedbank$__str_42$0$0            fixedbank
     0000B65B  Ffixedbank$__str_43$0$0            fixedbank
     0000B665  Ffixedbank$__str_44$0$0            fixedbank
     0000B677  Ffixedbank$__str_45$0$0            fixedbank
     0000B684  Ffixedbank$__str_46$0$0            fixedbank
     0000B69A  Ffixedbank$__str_47$0$0            fixedbank
     0000B6AE  Ffixedbank$__str_48$0$0            fixedbank
     0000B6C8  Ffixedbank$__str_49$0$0            fixedbank
     0000B6DF  Ffixedbank$__str_50$0$0            fixedbank
     0000B6FD  Ffixedbank$__str_51$0$0            fixedbank
     0000B715  Ffixedbank$__str_52$0$0            fixedbank
     0000B730  Ffixedbank$__str_53$0$0            fixedbank
     0000B745  Ffixedbank$__str_54$0$0            fixedbank
     0000B74D  Ffixedbank$__str_55$0$0            fixedbank
     0000B765  Ffixedbank$__str_56$0$0            fixedbank
     0000B77F  Ffixedbank$__str_57$0$0            fixedbank
     0000B79C  Ffixedbank$__str_58$0$0            fixedbank
     0000B7B2  Ffixedbank$__str_59$0$0            fixedbank
     0000B7C6  Ffixedbank$__str_60$0$0            fixedbank
     0000B7E3  Ffixedbank$__str_61$0$0            fixedbank
     0000B7F8  Ffixedbank$__str_62$0$0            fixedbank
     0000B80B  Ffixedbank$__str_63$0$0            fixedbank
     0000B810  Ffixedbank$__str_64$0$0            fixedbank
ASxxxx Linker V03.00 + NoICE + sdld,  page 249.
Hexadecimal  [32-Bits]

Area                                    Addr        Size        Decimal Bytes (Attributes)
--------------------------------        ----        ----        ------- ----- ------------
_CABS0                              00000000    00000010 =          16. bytes (ABS,CON)

      Value  Global                              Global Defined In Module
      -----  --------------------------------   ------------------------
     00007FF0  G$__SMS__SEGA_signature$0$0        _sms_manager
     00007FF0  ___SMS__SEGA_signature             _sms_manager

ASxxxx Linker V03.00 + NoICE + sdld,  page 250.
Hexadecimal  [32-Bits]

Area                                    Addr        Size        Decimal Bytes (Attributes)
--------------------------------        ----        ----        ------- ----- ------------
_CABS1                              00000000    0000000E =          14. bytes (ABS,CON)

      Value  Global                              Global Defined In Module
      -----  --------------------------------   ------------------------
     00007FD2  G$__SMS__SDSC_author$0$0           _sms_manager
     00007FD2  ___SMS__SDSC_author                _sms_manager

ASxxxx Linker V03.00 + NoICE + sdld,  page 251.
Hexadecimal  [32-Bits]

Area                                    Addr        Size        Decimal Bytes (Attributes)
--------------------------------        ----        ----        ------- ----- ------------
_CABS2                              00000000    0000000B =          11. bytes (ABS,CON)

      Value  Global                              Global Defined In Module
      -----  --------------------------------   ------------------------
     00007FC7  G$__SMS__SDSC_name$0$0             _sms_manager
     00007FC7  ___SMS__SDSC_name                  _sms_manager

ASxxxx Linker V03.00 + NoICE + sdld,  page 252.
Hexadecimal  [32-Bits]

Area                                    Addr        Size        Decimal Bytes (Attributes)
--------------------------------        ----        ----        ------- ----- ------------
_CABS3                              00000000    00000028 =          40. bytes (ABS,CON)

      Value  Global                              Global Defined In Module
      -----  --------------------------------   ------------------------
     00007F9F  G$__SMS__SDSC_descr$0$0            _sms_manager
     00007F9F  ___SMS__SDSC_descr                 _sms_manager

ASxxxx Linker V03.00 + NoICE + sdld,  page 253.
Hexadecimal  [32-Bits]

Area                                    Addr        Size        Decimal Bytes (Attributes)
--------------------------------        ----        ----        ------- ----- ------------
_CABS4                              00000000    00000010 =          16. bytes (ABS,CON)

      Value  Global                              Global Defined In Module
      -----  --------------------------------   ------------------------
     00007FE0  G$__SMS__SDSC_signature$0$0        _sms_manager
     00007FE0  ___SMS__SDSC_signature             _sms_manager

ASxxxx Linker V03.00 + NoICE + sdld,  page 254.

Files Linked                              [ module(s) ]

../crt0/crt0_sms.rel                      [ crt0 ]
main.rel                                  [ main ]
../lib/PSGlib.rel                         [ PSGlib ]
banks/bank2.rel                           [ bank2 ]
banks/bank3.rel                           [ bank3 ]
banks/bank4.rel                           [ bank4 ]
banks/bank5.rel                           [ bank5 ]
banks/bank6.rel                           [ bank6 ]
banks/bank7.rel                           [ bank7 ]
banks/bank8.rel                           [ bank8 ]
banks/bank9.rel                           [ bank9 ]
banks/bank10.rel                          [ bank10 ]
banks/bank11.rel                          [ bank11 ]
banks/bank12.rel                          [ bank12 ]
banks/bank13.rel                          [ bank13 ]
banks/bank14.rel                          [ bank14 ]
banks/fixedbank.rel                       [ fixedbank ]
devkit/_sms_manager.rel                   [ _sms_manager ]
devkit/_snd_manager.rel                   [ _snd_manager ]
Enemies/enemy.rel                         [ enemy ]
Enemies/enemyshoot.rel                    [ enemyshoot ]
Fortresses/fortresscannon.rel             [ fortresscannon ]
Fortresses/fortressdoor.rel               [ fortressdoor ]
Fortresses/fortressphantom.rel            [ fortressphantom ]
Fortresses/fortresssearcher.rel           [ fortresssearcher ]
Fortresses/fortresswave.rel               [ fortresswave ]
General/barrom.rel                        [ barrom ]
General/bombship.rel                      [ bombship ]
General/explosion.rel                     [ explosion ]
General/finishstage.rel                   [ finishstage ]
General/gameoverstage.rel                 [ gameoverstage ]
General/jukeboxstage.rel                  [ jukeboxstage ]
General/logostage.rel                     [ logostage ]
General/map.rel                           [ map ]
General/mikgamesstage.rel                 [ mikgamesstage ]
General/powerup.rel                       [ powerup ]
General/rectship.rel                      [ rectship ]
General/rsgthing.rel                      [ rsgthing ]
General/scripter.rel                      [ scripter ]
General/scroller.rel                      [ scroller ]
General/selectorstage.rel                 [ selectorstage ]
General/skullbone.rel                     [ skullbone ]
General/spreadship.rel                    [ spreadship ]
General/timeredlabel.rel                  [ timeredlabel ]
General/turnship.rel                      [ turnship ]
General/warning.rel                       [ warning ]
General/waveship.rel                      [ waveship ]
Intros/intro1stage.rel                    [ intro1stage ]
Intros/intro2stage.rel                    [ intro2stage ]
Intros/intro3object.rel                   [ intro3object ]
Intros/intro3stage.rel                    [ intro3stage ]
Intros/intro4stage.rel                    [ intro4stage ]
Intros/introovni.rel                      [ introovni ]
Intros/introsideplayer.rel                [ introsideplayer ]
Intros/introstage.rel                     [ introstage ]
Intros/introstar.rel                      [ introstar ]
Monsters/monsterblob.rel                  [ monsterblob ]
Monsters/monsterhead.rel                  [ monsterhead ]
Monsters/monstermissil.rel                [ monstermissil ]
Players/player.rel                        [ player ]
Players/playershoot.rel                   [ playershoot ]
Players/playstage.rel                     [ playstage ]
Spaces/spaceasteroid.rel                  [ spaceasteroid ]
Spaces/spaceshooter.rel                   [ spaceshooter ]
Spaces/spacestation.rel                   [ spacestation ]
Stages/stage1.rel                         [ stage1 ]
Stages/stage1endboss.rel                  [ stage1endboss ]
Stages/stage1middleboss.rel               [ stage1middleboss ]
Stages/stage1middlebossb.rel              [ stage1middlebossb ]
Stages/stage1middlebossc.rel              [ stage1middlebossc ]
Stages/stage2.rel                         [ stage2 ]
Stages/stage2endboss.rel                  [ stage2endboss ]
Stages/stage2object.rel                   [ stage2object ]
Stages/stage3.rel                         [ stage3 ]
Stages/stage3endboss.rel                  [ stage3endboss ]
Stages/stage3laser.rel                    [ stage3laser ]
Stages/stage3star.rel                     [ stage3star ]
Stages/stage4.rel                         [ stage4 ]
Stages/stage4endboss.rel                  [ stage4endboss ]
Stages/stage4endbossb.rel                 [ stage4endbossb ]
Stages/stage4middleboss.rel               [ stage4middleboss ]
Stages/stage4object.rel                   [ stage4object ]
Stages/stage5.rel                         [ stage5 ]
Stages/stage5endboss.rel                  [ stage5endboss ]
Stages/stage5missile.rel                  [ stage5missile ]
Stages/stage6.rel                         [ stage6 ]
Stages/stage6endboss.rel                  [ stage6endboss ]
Stages/stage6endbossb.rel                 [ stage6endbossb ]
Stages/stage6object.rel                   [ stage6object ]
Stages/stage7.rel                         [ stage7 ]
Stages/stage7endboss.rel                  [ stage7endboss ]
Stages/stage7middleboss.rel               [ stage7middleboss ]
Stages/stage7object.rel                   [ stage7object ]
Stages/stage8.rel                         [ stage8 ]
Stages/stage8bossa.rel                    [ stage8bossa ]
Stages/stage8bossb.rel                    [ stage8bossb ]
Stages/stage8bossc.rel                    [ stage8bossc ]
Stages/stage8lateral.rel                  [ stage8lateral ]
Vulcans/vulcanbird.rel                    [ vulcanbird ]
Vulcans/vulcanlaser.rel                   [ vulcanlaser ]
Vulcans/vulcanlava.rel                    [ vulcanlava ]
Vulcans/vulcanstation.rel                 [ vulcanstation ]
Vulcans/vulcantank.rel                    [ vulcantank ]
Vulcans/vulcanvulcan.rel                  [ vulcanvulcan ]
Wars/ww2plane.rel                         [ ww2plane ]
Wars/ww2planeb.rel                        [ ww2planeb ]
Wars/ww2ship.rel                          [ ww2ship ]
Wars/ww2zeppelin.rel                      [ ww2zeppelin ]
defines.rel                               [ defines ]
funcs.rel                                 [ funcs ]
vars.rel                                  [ vars ]


Libraries Linked                          [ object file ]

C:\Program Files\SDCC\bin\..\lib\z80/z80.lib
                                          [ divunsigned.rel ]
../lib/SMSlib.lib                         [ SMSlib_UNSAFE.rel ]
../lib/SMSlib.lib                         [ SMSlib.rel ]
../lib/SMSlib.lib                         [ SMSlib_VRAMmemset.rel ]
../lib/SMSlib.lib                         [ SMSlib_sprite.rel ]
C:\Program Files\SDCC\bin\..\lib\z80/z80.lib
                                          [ modunsigned.rel ]
C:\Program Files\SDCC\bin\..\lib\z80/z80.lib
                                          [ abs.rel ]
C:\Program Files\SDCC\bin\..\lib\z80/z80.lib
                                          [ mul.rel ]
../lib/SMSlib.lib                         [ SMSlib_VRAMmemcpy.rel ]
../lib/SMSlib.lib                         [ SMSlib_STMcomp.rel ]
C:\Program Files\SDCC\bin\..\lib\z80/z80.lib
                                          [ __sdcc_call_hl.rel ]
../lib/SMSlib.lib                         [ SMSlib_PSGaiden.rel ]
C:\Program Files\SDCC\bin\..\lib\z80/z80.lib
                                          [ strlen.rel ]
C:\Program Files\SDCC\bin\..\lib\z80/z80.lib
                                          [ _mullong.rel ]
C:\Program Files\SDCC\bin\..\lib\z80/z80.lib
                                          [ modsigned.rel ]
C:\Program Files\SDCC\bin\..\lib\z80/z80.lib
                                          [ divsigned.rel ]

ASxxxx Linker V03.00 + NoICE + sdld,  page 255.

User Base Address Definitions

_CODE = 0x0200
_DATA = 0xc000
_BANK2=0x8000
_BANK3=0x8000
_BANK4=0x8000
_BANK5=0x8000
_BANK6=0x8000
_BANK7=0x8000
_BANK8=0x8000
_BANK9=0x8000
_BANK10=0x8000
_BANK11=0x8000
_BANK12=0x8000
_BANK13=0x8000
_BANK14=0x8000
_BANK15=0x8000

