ASxxxx Linker V03.00 + NoICE + sdld,  page 1.
Hexadecimal  [32-Bits]

Area                                    Addr        Size        Decimal Bytes (Attributes)
--------------------------------        ----        ----        ------- ----- ------------
.  .ABS.                            00000000    00000000 =           0. bytes (ABS,CON)

      Value  Global                              Global Defined In Module
      -----  --------------------------------   ------------------------
     00000000  .__.ABS.                           
     00000000  l__BSEG                         
     00000000  l__BSS                          
     00000000  l__CABS                         
     00000000  l__DABS                         
     00000000  l__HEADER                       
     00000000  l__HEAP                         
     00000000  s__CABS                         
     00000000  s__CABS0                        
     00000000  s__CABS1                        
     00000000  s__CABS2                        
     00000000  s__CABS3                        
     00000000  s__CABS4                        
     00000000  s__DABS                         
     00000000  s__HEADER                       
     00000000  s__HEADER0                      
     00000000  s__HEADER1                      
     00000000  s__HEADER2                      
     00000000  s__HEADER3                      
     00000000  s__HEADER4                      
     00000000  s__HEADER5                      
     00000001  l__GSFINAL                      
     00000003  l__HEADER3                      
     00000003  l__HEADER4                      
     00000006  l__HEADER0                      
     00000009  l__HEADER1                      
     0000000A  l__HEADER2                      
     0000000B  l__CABS2                        
     0000000E  l__CABS1                        
     0000000F  l__GSINIT                       
     00000010  l__CABS0                        
     00000010  l__CABS4                        
     00000028  l__CABS3                        
     0000012A  l__HEADER5                      
     0000017C  l__HOME                         
     00000200  s__CODE                         
     00000250  l__INITIALIZED                  
     00000250  l__INITIALIZER                  
     00000252  l__DATA                         
     00002471  l__CODE                         
     00002671  s__HOME                         
     000027ED  s__INITIALIZER                  
     00002A3D  s__GSINIT                       
     00002A4C  s__GSFINAL                      
     000036E5  l__BANK15                       
     00003C2B  l__BANK11                       
     00003F51  l__BANK12                       
     00003F7E  l__BANK9                        
     00003FA9  l__BANK8                        
     00003FB1  l__BANK6                        
ASxxxx Linker V03.00 + NoICE + sdld,  page 2.
Hexadecimal  [32-Bits]

Area                                    Addr        Size        Decimal Bytes (Attributes)
--------------------------------        ----        ----        ------- ----- ------------
.  .ABS.                            00000000    00000000 =           0. bytes (ABS,CON)

      Value  Global                              Global Defined In Module
      -----  --------------------------------   ------------------------
     00003FB3  l__BANK14                       
     00003FB5  l__BANK2                        
     00003FBD  l__BANK4                        
     00003FD0  l__BANK7                        
     00003FDB  l__BANK5                        
     00003FE2  l__BANK10                       
     00003FEA  l__BANK13                       
     00003FED  l__BANK3                        
     00008000  G$SMS_SRAM$0$0                     _sms_manager
     00008000  _SMS_SRAM                          SMSlib_PSGaiden
     00008000  s__BANK10                       
     00008000  s__BANK11                       
     00008000  s__BANK12                       
     00008000  s__BANK13                       
     00008000  s__BANK14                       
     00008000  s__BANK15                       
     00008000  s__BANK2                        
     00008000  s__BANK3                        
     00008000  s__BANK4                        
     00008000  s__BANK5                        
     00008000  s__BANK6                        
     00008000  s__BANK7                        
     00008000  s__BANK8                        
     00008000  s__BANK9                        
     0000C000  s__DATA                         
     0000C252  s__INITIALIZED                  
     0000C4A2  s__BSEG                         
     0000C4A2  s__BSS                          
     0000C4A2  s__HEAP                         
     0000FFFC  G$SRAM_bank_to_be_mapped_on_slot   _sms_manager
     0000FFFC  _SRAM_bank_to_be_mapped_on_slot2   SMSlib_PSGaiden
     0000FFFF  G$ROM_bank_to_be_mapped_on_slot2   _sms_manager
     0000FFFF  _ROM_bank_to_be_mapped_on_slot2    SMSlib_PSGaiden

ASxxxx Linker V03.00 + NoICE + sdld,  page 3.
Hexadecimal  [32-Bits]

Area                                    Addr        Size        Decimal Bytes (Attributes)
--------------------------------        ----        ----        ------- ----- ------------
_CODE                               00000200    00002471 =        9329. bytes (REL,CON)

      Value  Global                              Global Defined In Module
      -----  --------------------------------   ------------------------
     00000200  __clock                            crt0
     00000204  _exit                              crt0
     0000020A  A$main$57                          main
     0000020A  C$main.c$3$0$0                     main
     0000020A  C$main.c$5$1$111                   main
     0000020A  G$main$0$0                         main
     0000020A  _main                              main
     0000020D  A$main$61                          main
     0000020D  C$main.c$7$1$111                   main
     00000210  A$main$62                          main
     00000212  A$main$66                          main
     00000212  C$main.c$8$1$111                   main
     00000215  A$main$67                          main
     00000217  A$main$75                          main
     00000217  C$main.c$10$1$111                  main
     00000217  C$main.c$17$2$112                  main
     00000219  A$main$76                          main
     0000021A  A$main$77                          main
     0000021B  A$main$78                          main
     0000021E  A$main$79                          main
     0000021F  A$main$84                          main
     0000021F  C$main.c$47$1$111                  main
     0000021F  XG$main$0$0                        main
     00000221  _PSGStop                           PSGlib
     00000248  _PSGResume                         PSGlib
     00000294  _PSGPlay                           PSGlib
     000002C1  _PSGCancelLoop                     PSGlib
     000002C7  _PSGPlayNoRepeat                   PSGlib
     000002D6  _PSGGetStatus                      PSGlib
     000002DE  _PSGSilenceChannels                PSGlib
     000002EF  _PSGRestoreVolumes                 PSGlib
     000003C0  _PSGSetMusicVolumeAttenuation      PSGlib
     00000485  _PSGSFXStop                        PSGlib
     0000053E  _PSGSFXPlay                        PSGlib
     0000058B  _PSGSFXCancelLoop                  PSGlib
     00000591  _PSGSFXGetStatus                   PSGlib
     00000599  _PSGSFXPlayLoop                    PSGlib
     000005B3  _PSGFrame                          PSGlib
     000006CC  _PSGSFXFrame                       PSGlib
     00000752  A$_sms_manager$161                 _sms_manager
     00000752  C$_sms_manager.c$11$0$0            _sms_manager
     00000752  C$_sms_manager.c$13$1$83           _sms_manager
     00000752  C$_sms_manager.c$14$1$83           _sms_manager
     00000752  G$devkit_SMS_init$0$0              _sms_manager
     00000752  XG$devkit_SMS_init$0$0             _sms_manager
     00000752  _devkit_SMS_init                   _sms_manager
     00000755  A$_sms_manager$174                 _sms_manager
     00000755  C$_sms_manager.c$15$1$83           _sms_manager
     00000755  C$_sms_manager.c$17$1$84           _sms_manager
     00000755  G$devkit_SMS_displayOn$0$0         _sms_manager
ASxxxx Linker V03.00 + NoICE + sdld,  page 4.
Hexadecimal  [32-Bits]

Area                                    Addr        Size        Decimal Bytes (Attributes)
--------------------------------        ----        ----        ------- ----- ------------
_CODE                               00000200    00002471 =        9329. bytes (REL,CON)

      Value  Global                              Global Defined In Module
      -----  --------------------------------   ------------------------
     00000755  _devkit_SMS_displayOn              _sms_manager
     00000758  A$_sms_manager$179                 _sms_manager
     00000758  C$_sms_manager.c$18$1$84           _sms_manager
     00000758  XG$devkit_SMS_displayOn$0$0        _sms_manager
     0000075B  A$_sms_manager$192                 _sms_manager
     0000075B  C$_sms_manager.c$19$1$84           _sms_manager
     0000075B  C$_sms_manager.c$21$1$85           _sms_manager
     0000075B  G$devkit_SMS_displayOff$0$0        _sms_manager
     0000075B  _devkit_SMS_displayOff             _sms_manager
     0000075E  A$_sms_manager$197                 _sms_manager
     0000075E  C$_sms_manager.c$22$1$85           _sms_manager
     0000075E  XG$devkit_SMS_displayOff$0$0       _sms_manager
     00000761  A$_sms_manager$210                 _sms_manager
     00000761  C$_sms_manager.c$24$1$85           _sms_manager
     00000761  C$_sms_manager.c$26$1$87           _sms_manager
     00000761  G$devkit_SMS_setBGScrollX$0$0      _sms_manager
     00000761  _devkit_SMS_setBGScrollX           _sms_manager
     00000765  A$_sms_manager$211                 _sms_manager
     00000767  A$_sms_manager$212                 _sms_manager
     0000076A  A$_sms_manager$217                 _sms_manager
     0000076A  C$_sms_manager.c$27$1$87           _sms_manager
     0000076A  XG$devkit_SMS_setBGScrollX$0$0     _sms_manager
     0000076D  A$_sms_manager$230                 _sms_manager
     0000076D  C$_sms_manager.c$28$1$87           _sms_manager
     0000076D  C$_sms_manager.c$30$1$89           _sms_manager
     0000076D  G$devkit_SMS_setBGScrollY$0$0      _sms_manager
     0000076D  _devkit_SMS_setBGScrollY           _sms_manager
     00000771  A$_sms_manager$231                 _sms_manager
     00000773  A$_sms_manager$232                 _sms_manager
     00000776  A$_sms_manager$237                 _sms_manager
     00000776  C$_sms_manager.c$31$1$89           _sms_manager
     00000776  XG$devkit_SMS_setBGScrollY$0$0     _sms_manager
     00000779  A$_sms_manager$250                 _sms_manager
     00000779  C$_sms_manager.c$32$1$89           _sms_manager
     00000779  C$_sms_manager.c$34$1$91           _sms_manager
     00000779  G$devkit_SMS_setBackdropColor$0$   _sms_manager
     00000779  _devkit_SMS_setBackdropColor       _sms_manager
     0000077D  A$_sms_manager$251                 _sms_manager
     0000077F  A$_sms_manager$252                 _sms_manager
     00000782  A$_sms_manager$257                 _sms_manager
     00000782  C$_sms_manager.c$35$1$91           _sms_manager
     00000782  XG$devkit_SMS_setBackdropColor$0   _sms_manager
     00000785  A$_sms_manager$270                 _sms_manager
     00000785  C$_sms_manager.c$36$1$91           _sms_manager
     00000785  C$_sms_manager.c$38$1$92           _sms_manager
     00000785  G$devkit_SMS_useFirstHalfTilesfo   _sms_manager
     00000785  _devkit_SMS_useFirstHalfTilesfor   _sms_manager
     00000787  A$_sms_manager$275                 _sms_manager
     00000787  C$_sms_manager.c$39$1$92           _sms_manager
     00000787  XG$devkit_SMS_useFirstHalfTilesf   _sms_manager
     0000078A  A$_sms_manager$288                 _sms_manager
ASxxxx Linker V03.00 + NoICE + sdld,  page 5.
Hexadecimal  [32-Bits]

Area                                    Addr        Size        Decimal Bytes (Attributes)
--------------------------------        ----        ----        ------- ----- ------------
_CODE                               00000200    00002471 =        9329. bytes (REL,CON)

      Value  Global                              Global Defined In Module
      -----  --------------------------------   ------------------------
     0000078A  C$_sms_manager.c$40$1$92           _sms_manager
     0000078A  C$_sms_manager.c$42$1$93           _sms_manager
     0000078A  G$devkit_SMS_useFirstHalfTilesfo   _sms_manager
     0000078A  _devkit_SMS_useFirstHalfTilesfor   _sms_manager
     0000078C  A$_sms_manager$293                 _sms_manager
     0000078C  C$_sms_manager.c$43$1$93           _sms_manager
     0000078C  XG$devkit_SMS_useFirstHalfTilesf   _sms_manager
     0000078F  A$_sms_manager$306                 _sms_manager
     0000078F  C$_sms_manager.c$44$1$93           _sms_manager
     0000078F  C$_sms_manager.c$46$1$95           _sms_manager
     0000078F  G$devkit_SMS_setSpriteMode$0$0     _sms_manager
     0000078F  _devkit_SMS_setSpriteMode          _sms_manager
     00000793  A$_sms_manager$307                 _sms_manager
     00000795  A$_sms_manager$308                 _sms_manager
     00000798  A$_sms_manager$313                 _sms_manager
     00000798  C$_sms_manager.c$47$1$95           _sms_manager
     00000798  XG$devkit_SMS_setSpriteMode$0$0    _sms_manager
     0000079B  A$_sms_manager$326                 _sms_manager
     0000079B  C$_sms_manager.c$49$1$95           _sms_manager
     0000079B  C$_sms_manager.c$51$1$97           _sms_manager
     0000079B  G$devkit_SMS_mapROMBank$0$0        _sms_manager
     0000079B  _devkit_SMS_mapROMBank             _sms_manager
     0000079E  A$_sms_manager$327                 _sms_manager
     0000079F  A$_sms_manager$328                 _sms_manager
     000007A0  A$_sms_manager$329                 _sms_manager
     000007A3  A$_sms_manager$334                 _sms_manager
     000007A3  C$_sms_manager.c$52$1$97           _sms_manager
     000007A3  XG$devkit_SMS_mapROMBank$0$0       _sms_manager
     000007A4  A$_sms_manager$347                 _sms_manager
     000007A4  C$_sms_manager.c$53$1$97           _sms_manager
     000007A4  C$_sms_manager.c$55$1$99           _sms_manager
     000007A4  G$devkit_SMS_VDPturnOnFeature$0$   _sms_manager
     000007A4  _devkit_SMS_VDPturnOnFeature       _sms_manager
     000007A5  A$_sms_manager$348                 _sms_manager
     000007A6  A$_sms_manager$349                 _sms_manager
     000007A7  A$_sms_manager$350                 _sms_manager
     000007A8  A$_sms_manager$355                 _sms_manager
     000007A8  C$_sms_manager.c$56$1$99           _sms_manager
     000007A8  XG$devkit_SMS_VDPturnOnFeature$0   _sms_manager
     000007AB  A$_sms_manager$365                 _sms_manager
     000007AB  C$_sms_manager.c$58$1$99           _sms_manager
     000007AB  G$devkit_SMS_loadTileMap$0$0       _sms_manager
     000007AB  _devkit_SMS_loadTileMap            _sms_manager
     000007AD  A$_sms_manager$366                 _sms_manager
     000007B1  A$_sms_manager$367                 _sms_manager
     000007B3  A$_sms_manager$371                 _sms_manager
     000007B3  C$_sms_manager.c$60$1$101          _sms_manager
     000007B6  A$_sms_manager$372                 _sms_manager
     000007B9  A$_sms_manager$373                 _sms_manager
     000007BC  A$_sms_manager$374                 _sms_manager
     000007BE  A$_sms_manager$375                 _sms_manager
ASxxxx Linker V03.00 + NoICE + sdld,  page 6.
Hexadecimal  [32-Bits]

Area                                    Addr        Size        Decimal Bytes (Attributes)
--------------------------------        ----        ----        ------- ----- ------------
_CODE                               00000200    00002471 =        9329. bytes (REL,CON)

      Value  Global                              Global Defined In Module
      -----  --------------------------------   ------------------------
     000007BF  A$_sms_manager$376                 _sms_manager
     000007C0  A$_sms_manager$377                 _sms_manager
     000007C1  A$_sms_manager$378                 _sms_manager
     000007C2  A$_sms_manager$379                 _sms_manager
     000007C3  A$_sms_manager$380                 _sms_manager
     000007C4  A$_sms_manager$381                 _sms_manager
     000007C5  A$_sms_manager$382                 _sms_manager
     000007C6  A$_sms_manager$383                 _sms_manager
     000007C8  A$_sms_manager$384                 _sms_manager
     000007C9  A$_sms_manager$385                 _sms_manager
     000007CC  A$_sms_manager$386                 _sms_manager
     000007CE  A$_sms_manager$387                 _sms_manager
     000007CF  A$_sms_manager$388                 _sms_manager
     000007D0  A$_sms_manager$389                 _sms_manager
     000007D1  A$_sms_manager$390                 _sms_manager
     000007D2  A$_sms_manager$391                 _sms_manager
     000007D3  A$_sms_manager$392                 _sms_manager
     000007D4  A$_sms_manager$393                 _sms_manager
     000007D5  A$_sms_manager$394                 _sms_manager
     000007D8  A$_sms_manager$395                 _sms_manager
     000007DB  A$_sms_manager$396                 _sms_manager
     000007DC  A$_sms_manager$397                 _sms_manager
     000007DD  A$_sms_manager$398                 _sms_manager
     000007DE  A$_sms_manager$399                 _sms_manager
     000007E1  A$_sms_manager$400                 _sms_manager
     000007E4  A$_sms_manager$401                 _sms_manager
     000007E5  A$_sms_manager$402                 _sms_manager
     000007E6  A$_sms_manager$403                 _sms_manager
     000007E8  A$_sms_manager$408                 _sms_manager
     000007E8  C$_sms_manager.c$61$1$101          _sms_manager
     000007E8  XG$devkit_SMS_loadTileMap$0$0      _sms_manager
     000007E9  A$_sms_manager$421                 _sms_manager
     000007E9  C$_sms_manager.c$63$1$101          _sms_manager
     000007E9  C$_sms_manager.c$65$1$103          _sms_manager
     000007E9  G$devkit_SMS_loadPSGaidencompres   _sms_manager
     000007E9  _devkit_SMS_loadPSGaidencompress   _sms_manager
     000007EC  A$_sms_manager$422                 _sms_manager
     000007ED  A$_sms_manager$423                 _sms_manager
     000007EE  A$_sms_manager$424                 _sms_manager
     000007EF  A$_sms_manager$425                 _sms_manager
     000007F0  A$_sms_manager$426                 _sms_manager
     000007F1  A$_sms_manager$427                 _sms_manager
     000007F4  A$_sms_manager$428                 _sms_manager
     000007F5  A$_sms_manager$429                 _sms_manager
     000007F6  A$_sms_manager$430                 _sms_manager
     000007F7  A$_sms_manager$431                 _sms_manager
     000007F8  A$_sms_manager$432                 _sms_manager
     000007F9  A$_sms_manager$433                 _sms_manager
     000007FC  A$_sms_manager$434                 _sms_manager
     000007FD  A$_sms_manager$435                 _sms_manager
     000007FE  A$_sms_manager$440                 _sms_manager
ASxxxx Linker V03.00 + NoICE + sdld,  page 7.
Hexadecimal  [32-Bits]

Area                                    Addr        Size        Decimal Bytes (Attributes)
--------------------------------        ----        ----        ------- ----- ------------
_CODE                               00000200    00002471 =        9329. bytes (REL,CON)

      Value  Global                              Global Defined In Module
      -----  --------------------------------   ------------------------
     000007FE  C$_sms_manager.c$66$1$103          _sms_manager
     000007FE  XG$devkit_SMS_loadPSGaidencompre   _sms_manager
     000007FF  A$_sms_manager$453                 _sms_manager
     000007FF  C$_sms_manager.c$67$1$103          _sms_manager
     000007FF  C$_sms_manager.c$69$1$105          _sms_manager
     000007FF  G$devkit_SMS_loadSTMcompressedTi   _sms_manager
     000007FF  _devkit_SMS_loadSTMcompressedTil   _sms_manager
     00000801  A$_sms_manager$454                 _sms_manager
     00000802  A$_sms_manager$455                 _sms_manager
     00000803  A$_sms_manager$456                 _sms_manager
     00000806  A$_sms_manager$457                 _sms_manager
     00000807  A$_sms_manager$458                 _sms_manager
     00000808  A$_sms_manager$459                 _sms_manager
     00000809  A$_sms_manager$460                 _sms_manager
     0000080A  A$_sms_manager$461                 _sms_manager
     0000080B  A$_sms_manager$462                 _sms_manager
     0000080E  A$_sms_manager$463                 _sms_manager
     0000080F  A$_sms_manager$464                 _sms_manager
     00000810  A$_sms_manager$465                 _sms_manager
     00000811  A$_sms_manager$466                 _sms_manager
     00000812  A$_sms_manager$467                 _sms_manager
     00000815  A$_sms_manager$468                 _sms_manager
     00000816  A$_sms_manager$469                 _sms_manager
     00000817  A$_sms_manager$470                 _sms_manager
     00000818  A$_sms_manager$471                 _sms_manager
     00000819  A$_sms_manager$472                 _sms_manager
     0000081C  A$_sms_manager$473                 _sms_manager
     0000081D  A$_sms_manager$474                 _sms_manager
     0000081E  A$_sms_manager$475                 _sms_manager
     0000081F  A$_sms_manager$480                 _sms_manager
     0000081F  C$_sms_manager.c$70$1$105          _sms_manager
     0000081F  XG$devkit_SMS_loadSTMcompressedT   _sms_manager
     00000820  A$_sms_manager$493                 _sms_manager
     00000820  C$_sms_manager.c$72$1$105          _sms_manager
     00000820  C$_sms_manager.c$74$1$107          _sms_manager
     00000820  G$devkit_SMS_setBGPaletteColor$0   _sms_manager
     00000820  _devkit_SMS_setBGPaletteColor      _sms_manager
     00000823  A$_sms_manager$494                 _sms_manager
     00000824  A$_sms_manager$495                 _sms_manager
     00000825  A$_sms_manager$496                 _sms_manager
     00000826  A$_sms_manager$497                 _sms_manager
     00000827  A$_sms_manager$498                 _sms_manager
     0000082A  A$_sms_manager$499                 _sms_manager
     0000082B  A$_sms_manager$500                 _sms_manager
     0000082C  A$_sms_manager$501                 _sms_manager
     0000082D  A$_sms_manager$502                 _sms_manager
     0000082E  A$_sms_manager$503                 _sms_manager
     00000831  A$_sms_manager$504                 _sms_manager
     00000832  A$_sms_manager$509                 _sms_manager
     00000832  C$_sms_manager.c$75$1$107          _sms_manager
     00000832  XG$devkit_SMS_setBGPaletteColor$   _sms_manager
ASxxxx Linker V03.00 + NoICE + sdld,  page 8.
Hexadecimal  [32-Bits]

Area                                    Addr        Size        Decimal Bytes (Attributes)
--------------------------------        ----        ----        ------- ----- ------------
_CODE                               00000200    00002471 =        9329. bytes (REL,CON)

      Value  Global                              Global Defined In Module
      -----  --------------------------------   ------------------------
     00000833  A$_sms_manager$522                 _sms_manager
     00000833  C$_sms_manager.c$76$1$107          _sms_manager
     00000833  C$_sms_manager.c$78$1$109          _sms_manager
     00000833  G$devkit_SMS_setSpritePaletteCol   _sms_manager
     00000833  _devkit_SMS_setSpritePaletteColo   _sms_manager
     00000836  A$_sms_manager$523                 _sms_manager
     00000837  A$_sms_manager$524                 _sms_manager
     00000838  A$_sms_manager$525                 _sms_manager
     00000839  A$_sms_manager$526                 _sms_manager
     0000083A  A$_sms_manager$527                 _sms_manager
     0000083D  A$_sms_manager$528                 _sms_manager
     0000083E  A$_sms_manager$529                 _sms_manager
     0000083F  A$_sms_manager$530                 _sms_manager
     00000840  A$_sms_manager$531                 _sms_manager
     00000843  A$_sms_manager$532                 _sms_manager
     00000844  A$_sms_manager$533                 _sms_manager
     00000845  A$_sms_manager$534                 _sms_manager
     00000846  A$_sms_manager$535                 _sms_manager
     00000847  A$_sms_manager$536                 _sms_manager
     00000848  A$_sms_manager$537                 _sms_manager
     00000849  A$_sms_manager$538                 _sms_manager
     0000084B  A$_sms_manager$539                 _sms_manager
     0000084C  A$_sms_manager$540                 _sms_manager
     0000084D  A$_sms_manager$544                 _sms_manager
     0000084D  C$_sms_manager.c$79$1$109          _sms_manager
     0000084E  A$_sms_manager$545                 _sms_manager
     0000084F  A$_sms_manager$546                 _sms_manager
     00000852  A$_sms_manager$547                 _sms_manager
     00000853  A$_sms_manager$548                 _sms_manager
     00000854  A$_sms_manager$549                 _sms_manager
     00000855  A$_sms_manager$550                 _sms_manager
     00000856  A$_sms_manager$551                 _sms_manager
     00000859  A$_sms_manager$552                 _sms_manager
     0000085A  A$_sms_manager$557                 _sms_manager
     0000085A  C$_sms_manager.c$80$1$109          _sms_manager
     0000085A  XG$devkit_SMS_setSpritePaletteCo   _sms_manager
     0000085B  A$_sms_manager$570                 _sms_manager
     0000085B  C$_sms_manager.c$81$1$109          _sms_manager
     0000085B  C$_sms_manager.c$83$1$111          _sms_manager
     0000085B  G$devkit_SMS_loadBGPalette$0$0     _sms_manager
     0000085B  _devkit_SMS_loadBGPalette          _sms_manager
     0000085C  A$_sms_manager$571                 _sms_manager
     0000085D  A$_sms_manager$572                 _sms_manager
     0000085E  A$_sms_manager$573                 _sms_manager
     0000085F  A$_sms_manager$578                 _sms_manager
     0000085F  C$_sms_manager.c$84$1$111          _sms_manager
     0000085F  XG$devkit_SMS_loadBGPalette$0$0    _sms_manager
     00000862  A$_sms_manager$591                 _sms_manager
     00000862  C$_sms_manager.c$85$1$111          _sms_manager
     00000862  C$_sms_manager.c$87$1$113          _sms_manager
     00000862  G$devkit_SMS_loadSpritePalette$0   _sms_manager
ASxxxx Linker V03.00 + NoICE + sdld,  page 9.
Hexadecimal  [32-Bits]

Area                                    Addr        Size        Decimal Bytes (Attributes)
--------------------------------        ----        ----        ------- ----- ------------
_CODE                               00000200    00002471 =        9329. bytes (REL,CON)

      Value  Global                              Global Defined In Module
      -----  --------------------------------   ------------------------
     00000862  _devkit_SMS_loadSpritePalette      _sms_manager
     00000863  A$_sms_manager$592                 _sms_manager
     00000864  A$_sms_manager$593                 _sms_manager
     00000865  A$_sms_manager$594                 _sms_manager
     00000866  A$_sms_manager$599                 _sms_manager
     00000866  C$_sms_manager.c$88$1$113          _sms_manager
     00000866  XG$devkit_SMS_loadSpritePalette$   _sms_manager
     00000869  A$_sms_manager$609                 _sms_manager
     00000869  C$_sms_manager.c$90$1$113          _sms_manager
     00000869  G$devkit_SMS_setNextTileatXY$0$0   _sms_manager
     00000869  _devkit_SMS_setNextTileatXY        _sms_manager
     0000086B  A$_sms_manager$610                 _sms_manager
     0000086F  A$_sms_manager$611                 _sms_manager
     00000871  A$_sms_manager$615                 _sms_manager
     00000871  C$_sms_manager.c$92$1$115          _sms_manager
     00000874  A$_sms_manager$616                 _sms_manager
     00000876  A$_sms_manager$617                 _sms_manager
     00000877  A$_sms_manager$618                 _sms_manager
     00000878  A$_sms_manager$619                 _sms_manager
     00000879  A$_sms_manager$620                 _sms_manager
     0000087A  A$_sms_manager$621                 _sms_manager
     0000087B  A$_sms_manager$622                 _sms_manager
     0000087C  A$_sms_manager$623                 _sms_manager
     0000087D  A$_sms_manager$624                 _sms_manager
     0000087E  A$_sms_manager$625                 _sms_manager
     00000880  A$_sms_manager$626                 _sms_manager
     00000881  A$_sms_manager$627                 _sms_manager
     00000884  A$_sms_manager$628                 _sms_manager
     00000886  A$_sms_manager$629                 _sms_manager
     00000887  A$_sms_manager$630                 _sms_manager
     00000888  A$_sms_manager$631                 _sms_manager
     00000889  A$_sms_manager$632                 _sms_manager
     0000088A  A$_sms_manager$633                 _sms_manager
     0000088B  A$_sms_manager$634                 _sms_manager
     0000088C  A$_sms_manager$635                 _sms_manager
     0000088D  A$_sms_manager$640                 _sms_manager
     0000088D  C$_sms_manager.c$93$1$115          _sms_manager
     0000088D  XG$devkit_SMS_setNextTileatXY$0$   _sms_manager
     0000088F  A$_sms_manager$641                 _sms_manager
     00000892  A$_sms_manager$654                 _sms_manager
     00000892  C$_sms_manager.c$94$1$115          _sms_manager
     00000892  C$_sms_manager.c$96$1$117          _sms_manager
     00000892  G$devkit_SMS_setTile$0$0           _sms_manager
     00000892  _devkit_SMS_setTile                _sms_manager
     00000896  A$_sms_manager$655                 _sms_manager
     00000898  A$_sms_manager$656                 _sms_manager
     0000089B  A$_sms_manager$657                 _sms_manager
     0000089D  A$_sms_manager$662                 _sms_manager
     0000089D  C$_sms_manager.c$97$1$117          _sms_manager
     0000089D  XG$devkit_SMS_setTile$0$0          _sms_manager
     000008A0  A$_sms_manager$675                 _sms_manager
ASxxxx Linker V03.00 + NoICE + sdld,  page 10.
Hexadecimal  [32-Bits]

Area                                    Addr        Size        Decimal Bytes (Attributes)
--------------------------------        ----        ----        ------- ----- ------------
_CODE                               00000200    00002471 =        9329. bytes (REL,CON)

      Value  Global                              Global Defined In Module
      -----  --------------------------------   ------------------------
     000008A0  C$_sms_manager.c$101$1$119         _sms_manager
     000008A0  C$_sms_manager.c$99$1$117          _sms_manager
     000008A0  G$devkit_SMS_addSprite$0$0         _sms_manager
     000008A0  _devkit_SMS_addSprite              _sms_manager
     000008A3  A$_sms_manager$676                 _sms_manager
     000008A4  A$_sms_manager$677                 _sms_manager
     000008A5  A$_sms_manager$678                 _sms_manager
     000008A6  A$_sms_manager$679                 _sms_manager
     000008A7  A$_sms_manager$680                 _sms_manager
     000008AA  A$_sms_manager$681                 _sms_manager
     000008AB  A$_sms_manager$682                 _sms_manager
     000008AC  A$_sms_manager$683                 _sms_manager
     000008AD  A$_sms_manager$684                 _sms_manager
     000008AE  A$_sms_manager$685                 _sms_manager
     000008B1  A$_sms_manager$686                 _sms_manager
     000008B2  A$_sms_manager$687                 _sms_manager
     000008B3  A$_sms_manager$688                 _sms_manager
     000008B4  A$_sms_manager$689                 _sms_manager
     000008B5  A$_sms_manager$690                 _sms_manager
     000008B8  A$_sms_manager$691                 _sms_manager
     000008B9  A$_sms_manager$692                 _sms_manager
     000008BA  A$_sms_manager$697                 _sms_manager
     000008BA  C$_sms_manager.c$102$1$119         _sms_manager
     000008BA  XG$devkit_SMS_addSprite$0$0        _sms_manager
     000008BB  A$_sms_manager$714                 _sms_manager
     000008BB  C$_sms_manager.c$104$1$119         _sms_manager
     000008BB  C$_sms_manager.c$106$1$120         _sms_manager
     000008BB  C$_sms_manager.c$107$1$120         _sms_manager
     000008BB  G$devkit_SMS_initSprites$0$0       _sms_manager
     000008BB  XG$devkit_SMS_initSprites$0$0      _sms_manager
     000008BB  _devkit_SMS_initSprites            _sms_manager
     000008BE  A$_sms_manager$731                 _sms_manager
     000008BE  C$_sms_manager.c$108$1$120         _sms_manager
     000008BE  C$_sms_manager.c$110$1$121         _sms_manager
     000008BE  C$_sms_manager.c$111$1$121         _sms_manager
     000008BE  G$devkit_SMS_finalizeSprites$0$0   _sms_manager
     000008BE  XG$devkit_SMS_finalizeSprites$0$   _sms_manager
     000008BE  _devkit_SMS_finalizeSprites        _sms_manager
     000008C1  A$_sms_manager$748                 _sms_manager
     000008C1  C$_sms_manager.c$112$1$121         _sms_manager
     000008C1  C$_sms_manager.c$114$1$122         _sms_manager
     000008C1  C$_sms_manager.c$115$1$122         _sms_manager
     000008C1  G$devkit_SMS_waitForVBlank$0$0     _sms_manager
     000008C1  XG$devkit_SMS_waitForVBlank$0$0    _sms_manager
     000008C1  _devkit_SMS_waitForVBlank          _sms_manager
     000008C4  A$_sms_manager$765                 _sms_manager
     000008C4  C$_sms_manager.c$116$1$122         _sms_manager
     000008C4  C$_sms_manager.c$118$1$123         _sms_manager
     000008C4  C$_sms_manager.c$119$1$123         _sms_manager
     000008C4  G$devkit_SMS_copySpritestoSAT$0$   _sms_manager
     000008C4  XG$devkit_SMS_copySpritestoSAT$0   _sms_manager
ASxxxx Linker V03.00 + NoICE + sdld,  page 11.
Hexadecimal  [32-Bits]

Area                                    Addr        Size        Decimal Bytes (Attributes)
--------------------------------        ----        ----        ------- ----- ------------
_CODE                               00000200    00002471 =        9329. bytes (REL,CON)

      Value  Global                              Global Defined In Module
      -----  --------------------------------   ------------------------
     000008C4  _devkit_SMS_copySpritestoSAT       _sms_manager
     000008C7  A$_sms_manager$782                 _sms_manager
     000008C7  C$_sms_manager.c$120$1$123         _sms_manager
     000008C7  C$_sms_manager.c$122$1$124         _sms_manager
     000008C7  C$_sms_manager.c$123$1$124         _sms_manager
     000008C7  G$devkit_UNSAFE_SMS_copySpritest   _sms_manager
     000008C7  XG$devkit_UNSAFE_SMS_copySprites   _sms_manager
     000008C7  _devkit_UNSAFE_SMS_copySpritesto   _sms_manager
     000008CA  A$_sms_manager$795                 _sms_manager
     000008CA  C$_sms_manager.c$124$1$124         _sms_manager
     000008CA  C$_sms_manager.c$126$1$126         _sms_manager
     000008CA  G$devkit_UNSAFE_SMS_VRAMmemcpy32   _sms_manager
     000008CA  _devkit_UNSAFE_SMS_VRAMmemcpy32    _sms_manager
     000008CD  A$_sms_manager$796                 _sms_manager
     000008CE  A$_sms_manager$797                 _sms_manager
     000008CF  A$_sms_manager$798                 _sms_manager
     000008D0  A$_sms_manager$799                 _sms_manager
     000008D1  A$_sms_manager$800                 _sms_manager
     000008D2  A$_sms_manager$801                 _sms_manager
     000008D5  A$_sms_manager$802                 _sms_manager
     000008D6  A$_sms_manager$803                 _sms_manager
     000008D7  A$_sms_manager$804                 _sms_manager
     000008D8  A$_sms_manager$805                 _sms_manager
     000008D9  A$_sms_manager$806                 _sms_manager
     000008DA  A$_sms_manager$807                 _sms_manager
     000008DD  A$_sms_manager$808                 _sms_manager
     000008DE  A$_sms_manager$809                 _sms_manager
     000008DF  A$_sms_manager$814                 _sms_manager
     000008DF  C$_sms_manager.c$127$1$126         _sms_manager
     000008DF  XG$devkit_UNSAFE_SMS_VRAMmemcpy3   _sms_manager
     000008E0  A$_sms_manager$827                 _sms_manager
     000008E0  C$_sms_manager.c$128$1$126         _sms_manager
     000008E0  C$_sms_manager.c$130$1$128         _sms_manager
     000008E0  G$devkit_UNSAFE_SMS_VRAMmemcpy64   _sms_manager
     000008E0  _devkit_UNSAFE_SMS_VRAMmemcpy64    _sms_manager
     000008E3  A$_sms_manager$828                 _sms_manager
     000008E4  A$_sms_manager$829                 _sms_manager
     000008E5  A$_sms_manager$830                 _sms_manager
     000008E6  A$_sms_manager$831                 _sms_manager
     000008E7  A$_sms_manager$832                 _sms_manager
     000008E8  A$_sms_manager$833                 _sms_manager
     000008EB  A$_sms_manager$834                 _sms_manager
     000008EC  A$_sms_manager$835                 _sms_manager
     000008ED  A$_sms_manager$836                 _sms_manager
     000008EE  A$_sms_manager$837                 _sms_manager
     000008EF  A$_sms_manager$838                 _sms_manager
     000008F0  A$_sms_manager$839                 _sms_manager
     000008F3  A$_sms_manager$840                 _sms_manager
     000008F4  A$_sms_manager$841                 _sms_manager
     000008F5  A$_sms_manager$846                 _sms_manager
     000008F5  C$_sms_manager.c$131$1$128         _sms_manager
ASxxxx Linker V03.00 + NoICE + sdld,  page 12.
Hexadecimal  [32-Bits]

Area                                    Addr        Size        Decimal Bytes (Attributes)
--------------------------------        ----        ----        ------- ----- ------------
_CODE                               00000200    00002471 =        9329. bytes (REL,CON)

      Value  Global                              Global Defined In Module
      -----  --------------------------------   ------------------------
     000008F5  XG$devkit_UNSAFE_SMS_VRAMmemcpy6   _sms_manager
     000008F6  A$_sms_manager$859                 _sms_manager
     000008F6  C$_sms_manager.c$132$1$128         _sms_manager
     000008F6  C$_sms_manager.c$134$1$130         _sms_manager
     000008F6  G$devkit_UNSAFE_SMS_VRAMmemcpy12   _sms_manager
     000008F6  _devkit_UNSAFE_SMS_VRAMmemcpy128   _sms_manager
     000008F9  A$_sms_manager$860                 _sms_manager
     000008FA  A$_sms_manager$861                 _sms_manager
     000008FB  A$_sms_manager$862                 _sms_manager
     000008FC  A$_sms_manager$863                 _sms_manager
     000008FD  A$_sms_manager$864                 _sms_manager
     000008FE  A$_sms_manager$865                 _sms_manager
     00000901  A$_sms_manager$866                 _sms_manager
     00000902  A$_sms_manager$867                 _sms_manager
     00000903  A$_sms_manager$868                 _sms_manager
     00000904  A$_sms_manager$869                 _sms_manager
     00000905  A$_sms_manager$870                 _sms_manager
     00000906  A$_sms_manager$871                 _sms_manager
     00000909  A$_sms_manager$872                 _sms_manager
     0000090A  A$_sms_manager$873                 _sms_manager
     0000090B  A$_sms_manager$878                 _sms_manager
     0000090B  C$_sms_manager.c$135$1$130         _sms_manager
     0000090B  XG$devkit_UNSAFE_SMS_VRAMmemcpy1   _sms_manager
     0000090C  A$_sms_manager$895                 _sms_manager
     0000090C  C$_sms_manager.c$137$1$130         _sms_manager
     0000090C  C$_sms_manager.c$139$1$131         _sms_manager
     0000090C  C$_sms_manager.c$140$1$131         _sms_manager
     0000090C  G$devkit_SMS_queryPauseRequested   _sms_manager
     0000090C  XG$devkit_SMS_queryPauseRequeste   _sms_manager
     0000090C  _devkit_SMS_queryPauseRequested    _sms_manager
     0000090F  A$_sms_manager$912                 _sms_manager
     0000090F  C$_sms_manager.c$141$1$131         _sms_manager
     0000090F  C$_sms_manager.c$143$1$132         _sms_manager
     0000090F  C$_sms_manager.c$144$1$132         _sms_manager
     0000090F  G$devkit_SMS_resetPauseRequest$0   _sms_manager
     0000090F  XG$devkit_SMS_resetPauseRequest$   _sms_manager
     0000090F  _devkit_SMS_resetPauseRequest      _sms_manager
     00000912  A$_sms_manager$929                 _sms_manager
     00000912  C$_sms_manager.c$147$1$132         _sms_manager
     00000912  C$_sms_manager.c$149$1$133         _sms_manager
     00000912  C$_sms_manager.c$150$1$133         _sms_manager
     00000912  G$devkit_SMS_getKeysStatus$0$0     _sms_manager
     00000912  XG$devkit_SMS_getKeysStatus$0$0    _sms_manager
     00000912  _devkit_SMS_getKeysStatus          _sms_manager
     00000915  A$_sms_manager$946                 _sms_manager
     00000915  C$_sms_manager.c$151$1$133         _sms_manager
     00000915  C$_sms_manager.c$153$1$134         _sms_manager
     00000915  C$_sms_manager.c$154$1$134         _sms_manager
     00000915  G$devkit_SMS_getKeysPressed$0$0    _sms_manager
     00000915  XG$devkit_SMS_getKeysPressed$0$0   _sms_manager
     00000915  _devkit_SMS_getKeysPressed         _sms_manager
ASxxxx Linker V03.00 + NoICE + sdld,  page 13.
Hexadecimal  [32-Bits]

Area                                    Addr        Size        Decimal Bytes (Attributes)
--------------------------------        ----        ----        ------- ----- ------------
_CODE                               00000200    00002471 =        9329. bytes (REL,CON)

      Value  Global                              Global Defined In Module
      -----  --------------------------------   ------------------------
     00000918  A$_sms_manager$963                 _sms_manager
     00000918  C$_sms_manager.c$155$1$134         _sms_manager
     00000918  C$_sms_manager.c$157$1$135         _sms_manager
     00000918  C$_sms_manager.c$158$1$135         _sms_manager
     00000918  G$devkit_SMS_getKeysHeld$0$0       _sms_manager
     00000918  XG$devkit_SMS_getKeysHeld$0$0      _sms_manager
     00000918  _devkit_SMS_getKeysHeld            _sms_manager
     0000091B  A$_sms_manager$980                 _sms_manager
     0000091B  C$_sms_manager.c$159$1$135         _sms_manager
     0000091B  C$_sms_manager.c$161$1$136         _sms_manager
     0000091B  C$_sms_manager.c$162$1$136         _sms_manager
     0000091B  G$devkit_SMS_getKeysReleased$0$0   _sms_manager
     0000091B  XG$devkit_SMS_getKeysReleased$0$   _sms_manager
     0000091B  _devkit_SMS_getKeysReleased        _sms_manager
     0000091E  A$_sms_manager$993                 _sms_manager
     0000091E  C$_sms_manager.c$164$1$136         _sms_manager
     0000091E  C$_sms_manager.c$166$1$137         _sms_manager
     0000091E  G$devkit_PORT_A_KEY_UP$0$0         _sms_manager
     0000091E  _devkit_PORT_A_KEY_UP              _sms_manager
     00000921  A$_sms_manager$998                 _sms_manager
     00000921  C$_sms_manager.c$167$1$137         _sms_manager
     00000921  XG$devkit_PORT_A_KEY_UP$0$0        _sms_manager
     00000922  A$_sms_manager$1011                _sms_manager
     00000922  C$_sms_manager.c$168$1$137         _sms_manager
     00000922  C$_sms_manager.c$170$1$138         _sms_manager
     00000922  G$devkit_PORT_A_KEY_DOWN$0$0       _sms_manager
     00000922  _devkit_PORT_A_KEY_DOWN            _sms_manager
     00000925  A$_sms_manager$1016                _sms_manager
     00000925  C$_sms_manager.c$171$1$138         _sms_manager
     00000925  XG$devkit_PORT_A_KEY_DOWN$0$0      _sms_manager
     00000926  A$_sms_manager$1029                _sms_manager
     00000926  C$_sms_manager.c$172$1$138         _sms_manager
     00000926  C$_sms_manager.c$174$1$139         _sms_manager
     00000926  G$devkit_PORT_A_KEY_LEFT$0$0       _sms_manager
     00000926  _devkit_PORT_A_KEY_LEFT            _sms_manager
     00000929  A$_sms_manager$1034                _sms_manager
     00000929  C$_sms_manager.c$175$1$139         _sms_manager
     00000929  XG$devkit_PORT_A_KEY_LEFT$0$0      _sms_manager
     0000092A  A$_sms_manager$1047                _sms_manager
     0000092A  C$_sms_manager.c$176$1$139         _sms_manager
     0000092A  C$_sms_manager.c$178$1$140         _sms_manager
     0000092A  G$devkit_PORT_A_KEY_RIGHT$0$0      _sms_manager
     0000092A  _devkit_PORT_A_KEY_RIGHT           _sms_manager
     0000092D  A$_sms_manager$1052                _sms_manager
     0000092D  C$_sms_manager.c$179$1$140         _sms_manager
     0000092D  XG$devkit_PORT_A_KEY_RIGHT$0$0     _sms_manager
     0000092E  A$_sms_manager$1065                _sms_manager
     0000092E  C$_sms_manager.c$180$1$140         _sms_manager
     0000092E  C$_sms_manager.c$182$1$141         _sms_manager
     0000092E  G$devkit_PORT_A_KEY_1$0$0          _sms_manager
     0000092E  _devkit_PORT_A_KEY_1               _sms_manager
ASxxxx Linker V03.00 + NoICE + sdld,  page 14.
Hexadecimal  [32-Bits]

Area                                    Addr        Size        Decimal Bytes (Attributes)
--------------------------------        ----        ----        ------- ----- ------------
_CODE                               00000200    00002471 =        9329. bytes (REL,CON)

      Value  Global                              Global Defined In Module
      -----  --------------------------------   ------------------------
     00000931  A$_sms_manager$1070                _sms_manager
     00000931  C$_sms_manager.c$183$1$141         _sms_manager
     00000931  XG$devkit_PORT_A_KEY_1$0$0         _sms_manager
     00000932  A$_sms_manager$1083                _sms_manager
     00000932  C$_sms_manager.c$184$1$141         _sms_manager
     00000932  C$_sms_manager.c$186$1$142         _sms_manager
     00000932  G$devkit_PORT_A_KEY_2$0$0          _sms_manager
     00000932  _devkit_PORT_A_KEY_2               _sms_manager
     00000935  A$_sms_manager$1088                _sms_manager
     00000935  C$_sms_manager.c$187$1$142         _sms_manager
     00000935  XG$devkit_PORT_A_KEY_2$0$0         _sms_manager
     00000936  A$_sms_manager$1101                _sms_manager
     00000936  C$_sms_manager.c$190$1$142         _sms_manager
     00000936  C$_sms_manager.c$192$1$144         _sms_manager
     00000936  G$devkit_SMS_VRAMmemcpy$0$0        _sms_manager
     00000936  _devkit_SMS_VRAMmemcpy             _sms_manager
     00000939  A$_sms_manager$1102                _sms_manager
     0000093A  A$_sms_manager$1103                _sms_manager
     0000093B  A$_sms_manager$1104                _sms_manager
     0000093C  A$_sms_manager$1105                _sms_manager
     0000093D  A$_sms_manager$1106                _sms_manager
     0000093E  A$_sms_manager$1107                _sms_manager
     00000941  A$_sms_manager$1108                _sms_manager
     00000942  A$_sms_manager$1109                _sms_manager
     00000943  A$_sms_manager$1110                _sms_manager
     00000944  A$_sms_manager$1111                _sms_manager
     00000945  A$_sms_manager$1112                _sms_manager
     00000946  A$_sms_manager$1113                _sms_manager
     00000949  A$_sms_manager$1114                _sms_manager
     0000094A  A$_sms_manager$1115                _sms_manager
     0000094B  A$_sms_manager$1116                _sms_manager
     0000094C  A$_sms_manager$1117                _sms_manager
     0000094D  A$_sms_manager$1118                _sms_manager
     0000094E  A$_sms_manager$1119                _sms_manager
     00000951  A$_sms_manager$1120                _sms_manager
     00000954  A$_sms_manager$1121                _sms_manager
     00000955  A$_sms_manager$1122                _sms_manager
     00000956  A$_sms_manager$1127                _sms_manager
     00000956  C$_sms_manager.c$193$1$144         _sms_manager
     00000956  XG$devkit_SMS_VRAMmemcpy$0$0       _sms_manager
     00000957  A$_sms_manager$1140                _sms_manager
     00000957  C$_sms_manager.c$194$1$144         _sms_manager
     00000957  C$_sms_manager.c$196$1$146         _sms_manager
     00000957  G$devkit_SMS_VRAMmemcpy_brief$0$   _sms_manager
     00000957  _devkit_SMS_VRAMmemcpy_brief       _sms_manager
     0000095A  A$_sms_manager$1141                _sms_manager
     0000095B  A$_sms_manager$1142                _sms_manager
     0000095C  A$_sms_manager$1143                _sms_manager
     0000095D  A$_sms_manager$1144                _sms_manager
     0000095E  A$_sms_manager$1145                _sms_manager
     00000961  A$_sms_manager$1146                _sms_manager
ASxxxx Linker V03.00 + NoICE + sdld,  page 15.
Hexadecimal  [32-Bits]

Area                                    Addr        Size        Decimal Bytes (Attributes)
--------------------------------        ----        ----        ------- ----- ------------
_CODE                               00000200    00002471 =        9329. bytes (REL,CON)

      Value  Global                              Global Defined In Module
      -----  --------------------------------   ------------------------
     00000962  A$_sms_manager$1147                _sms_manager
     00000963  A$_sms_manager$1148                _sms_manager
     00000964  A$_sms_manager$1149                _sms_manager
     00000965  A$_sms_manager$1150                _sms_manager
     00000966  A$_sms_manager$1151                _sms_manager
     00000969  A$_sms_manager$1152                _sms_manager
     0000096A  A$_sms_manager$1153                _sms_manager
     0000096B  A$_sms_manager$1154                _sms_manager
     0000096C  A$_sms_manager$1155                _sms_manager
     0000096D  A$_sms_manager$1156                _sms_manager
     0000096E  A$_sms_manager$1157                _sms_manager
     00000971  A$_sms_manager$1158                _sms_manager
     00000972  A$_sms_manager$1159                _sms_manager
     00000973  A$_sms_manager$1160                _sms_manager
     00000974  A$_sms_manager$1165                _sms_manager
     00000974  C$_sms_manager.c$197$1$146         _sms_manager
     00000974  XG$devkit_SMS_VRAMmemcpy_brief$0   _sms_manager
     00000975  A$_sms_manager$1178                _sms_manager
     00000975  C$_sms_manager.c$198$1$146         _sms_manager
     00000975  C$_sms_manager.c$200$1$148         _sms_manager
     00000975  G$devkit_SMS_VRAMmemset$0$0        _sms_manager
     00000975  _devkit_SMS_VRAMmemset             _sms_manager
     00000978  A$_sms_manager$1179                _sms_manager
     00000979  A$_sms_manager$1180                _sms_manager
     0000097A  A$_sms_manager$1181                _sms_manager
     0000097B  A$_sms_manager$1182                _sms_manager
     0000097C  A$_sms_manager$1183                _sms_manager
     0000097D  A$_sms_manager$1184                _sms_manager
     00000980  A$_sms_manager$1185                _sms_manager
     00000981  A$_sms_manager$1186                _sms_manager
     00000982  A$_sms_manager$1187                _sms_manager
     00000983  A$_sms_manager$1188                _sms_manager
     00000984  A$_sms_manager$1189                _sms_manager
     00000987  A$_sms_manager$1190                _sms_manager
     00000988  A$_sms_manager$1191                _sms_manager
     00000989  A$_sms_manager$1192                _sms_manager
     0000098A  A$_sms_manager$1193                _sms_manager
     0000098B  A$_sms_manager$1194                _sms_manager
     0000098C  A$_sms_manager$1195                _sms_manager
     0000098F  A$_sms_manager$1196                _sms_manager
     00000990  A$_sms_manager$1197                _sms_manager
     00000991  A$_sms_manager$1198                _sms_manager
     00000992  A$_sms_manager$1203                _sms_manager
     00000992  C$_sms_manager.c$201$1$148         _sms_manager
     00000992  XG$devkit_SMS_VRAMmemset$0$0       _sms_manager
     00000993  A$_sms_manager$1216                _sms_manager
     00000993  C$_sms_manager.c$202$1$148         _sms_manager
     00000993  C$_sms_manager.c$204$1$150         _sms_manager
     00000993  G$devkit_SMS_VRAMmemsetW$0$0       _sms_manager
     00000993  _devkit_SMS_VRAMmemsetW            _sms_manager
     00000996  A$_sms_manager$1217                _sms_manager
ASxxxx Linker V03.00 + NoICE + sdld,  page 16.
Hexadecimal  [32-Bits]

Area                                    Addr        Size        Decimal Bytes (Attributes)
--------------------------------        ----        ----        ------- ----- ------------
_CODE                               00000200    00002471 =        9329. bytes (REL,CON)

      Value  Global                              Global Defined In Module
      -----  --------------------------------   ------------------------
     00000997  A$_sms_manager$1218                _sms_manager
     00000998  A$_sms_manager$1219                _sms_manager
     00000999  A$_sms_manager$1220                _sms_manager
     0000099A  A$_sms_manager$1221                _sms_manager
     0000099B  A$_sms_manager$1222                _sms_manager
     0000099E  A$_sms_manager$1223                _sms_manager
     0000099F  A$_sms_manager$1224                _sms_manager
     000009A0  A$_sms_manager$1225                _sms_manager
     000009A1  A$_sms_manager$1226                _sms_manager
     000009A2  A$_sms_manager$1227                _sms_manager
     000009A3  A$_sms_manager$1228                _sms_manager
     000009A6  A$_sms_manager$1229                _sms_manager
     000009A7  A$_sms_manager$1230                _sms_manager
     000009A8  A$_sms_manager$1231                _sms_manager
     000009A9  A$_sms_manager$1232                _sms_manager
     000009AA  A$_sms_manager$1233                _sms_manager
     000009AB  A$_sms_manager$1234                _sms_manager
     000009AE  A$_sms_manager$1235                _sms_manager
     000009B1  A$_sms_manager$1236                _sms_manager
     000009B2  A$_sms_manager$1237                _sms_manager
     000009B3  A$_sms_manager$1242                _sms_manager
     000009B3  C$_sms_manager.c$205$1$150         _sms_manager
     000009B3  XG$devkit_SMS_VRAMmemsetW$0$0      _sms_manager
     000009B4  A$_sms_manager$1255                _sms_manager
     000009B4  C$_sms_manager.c$208$1$150         _sms_manager
     000009B4  C$_sms_manager.c$210$1$153         _sms_manager
     000009B4  G$devkit_SMS_setLineInterruptHan   _sms_manager
     000009B4  _devkit_SMS_setLineInterruptHand   _sms_manager
     000009B5  A$_sms_manager$1256                _sms_manager
     000009B6  A$_sms_manager$1257                _sms_manager
     000009B7  A$_sms_manager$1258                _sms_manager
     000009B8  A$_sms_manager$1259                _sms_manager
     000009B9  A$_sms_manager$1260                _sms_manager
     000009BC  A$_sms_manager$1261                _sms_manager
     000009BD  A$_sms_manager$1266                _sms_manager
     000009BD  C$_sms_manager.c$211$1$153         _sms_manager
     000009BD  XG$devkit_SMS_setLineInterruptHa   _sms_manager
     000009BE  A$_sms_manager$1279                _sms_manager
     000009BE  C$_sms_manager.c$212$1$153         _sms_manager
     000009BE  C$_sms_manager.c$214$1$155         _sms_manager
     000009BE  G$devkit_SMS_setLineCounter$0$0    _sms_manager
     000009BE  _devkit_SMS_setLineCounter         _sms_manager
     000009C1  A$_sms_manager$1280                _sms_manager
     000009C2  A$_sms_manager$1281                _sms_manager
     000009C3  A$_sms_manager$1282                _sms_manager
     000009C4  A$_sms_manager$1283                _sms_manager
     000009C5  A$_sms_manager$1284                _sms_manager
     000009C8  A$_sms_manager$1285                _sms_manager
     000009C9  A$_sms_manager$1290                _sms_manager
     000009C9  C$_sms_manager.c$215$1$155         _sms_manager
     000009C9  XG$devkit_SMS_setLineCounter$0$0   _sms_manager
ASxxxx Linker V03.00 + NoICE + sdld,  page 17.
Hexadecimal  [32-Bits]

Area                                    Addr        Size        Decimal Bytes (Attributes)
--------------------------------        ----        ----        ------- ----- ------------
_CODE                               00000200    00002471 =        9329. bytes (REL,CON)

      Value  Global                              Global Defined In Module
      -----  --------------------------------   ------------------------
     000009CA  A$_sms_manager$1303                _sms_manager
     000009CA  C$_sms_manager.c$216$1$155         _sms_manager
     000009CA  C$_sms_manager.c$218$1$156         _sms_manager
     000009CA  G$devkit_SMS_enableLineInterrupt   _sms_manager
     000009CA  _devkit_SMS_enableLineInterrupt    _sms_manager
     000009CD  A$_sms_manager$1308                _sms_manager
     000009CD  C$_sms_manager.c$219$1$156         _sms_manager
     000009CD  XG$devkit_SMS_enableLineInterrup   _sms_manager
     000009D0  A$_sms_manager$1321                _sms_manager
     000009D0  C$_sms_manager.c$220$1$156         _sms_manager
     000009D0  C$_sms_manager.c$222$1$157         _sms_manager
     000009D0  G$devkit_SMS_disableLineInterrup   _sms_manager
     000009D0  _devkit_SMS_disableLineInterrupt   _sms_manager
     000009D3  A$_sms_manager$1326                _sms_manager
     000009D3  C$_sms_manager.c$223$1$157         _sms_manager
     000009D3  XG$devkit_SMS_disableLineInterru   _sms_manager
     000009D6  A$_sms_manager$1339                _sms_manager
     000009D6  C$_sms_manager.c$226$1$157         _sms_manager
     000009D6  C$_sms_manager.c$228$1$158         _sms_manager
     000009D6  G$devkit_VDPFEATURE_HIDEFIRSTCOL   _sms_manager
     000009D6  _devkit_VDPFEATURE_HIDEFIRSTCOL    _sms_manager
     000009D9  A$_sms_manager$1344                _sms_manager
     000009D9  C$_sms_manager.c$229$1$158         _sms_manager
     000009D9  XG$devkit_VDPFEATURE_HIDEFIRSTCO   _sms_manager
     000009DA  A$_sms_manager$1357                _sms_manager
     000009DA  C$_sms_manager.c$230$1$158         _sms_manager
     000009DA  C$_sms_manager.c$232$1$159         _sms_manager
     000009DA  G$devkit_VDPFEATURE_LEFTCOLBLANK   _sms_manager
     000009DA  _devkit_VDPFEATURE_LEFTCOLBLANK    _sms_manager
     000009DD  A$_sms_manager$1362                _sms_manager
     000009DD  C$_sms_manager.c$233$1$159         _sms_manager
     000009DD  XG$devkit_VDPFEATURE_LEFTCOLBLAN   _sms_manager
     000009DE  A$_sms_manager$1375                _sms_manager
     000009DE  C$_sms_manager.c$234$1$159         _sms_manager
     000009DE  C$_sms_manager.c$236$1$160         _sms_manager
     000009DE  G$devkit_SPRITEMODE_NORMAL$0$0     _sms_manager
     000009DE  _devkit_SPRITEMODE_NORMAL          _sms_manager
     000009E0  A$_sms_manager$1380                _sms_manager
     000009E0  C$_sms_manager.c$237$1$160         _sms_manager
     000009E0  XG$devkit_SPRITEMODE_NORMAL$0$0    _sms_manager
     000009E1  F_sms_manager$__str_0$0$0          _sms_manager
     000009EF  F_sms_manager$__str_1$0$0          _sms_manager
     000009FA  F_sms_manager$__str_2$0$0          _sms_manager
     00000A22  A$_snd_manager$89                  _snd_manager
     00000A22  C$_snd_manager.c$11$1$34           _snd_manager
     00000A22  C$_snd_manager.c$9$0$0             _snd_manager
     00000A22  G$devkit_PSGPlay$0$0               _snd_manager
     00000A22  _devkit_PSGPlay                    _snd_manager
     00000A23  A$_snd_manager$90                  _snd_manager
     00000A24  A$_snd_manager$91                  _snd_manager
     00000A25  A$_snd_manager$92                  _snd_manager
ASxxxx Linker V03.00 + NoICE + sdld,  page 18.
Hexadecimal  [32-Bits]

Area                                    Addr        Size        Decimal Bytes (Attributes)
--------------------------------        ----        ----        ------- ----- ------------
_CODE                               00000200    00002471 =        9329. bytes (REL,CON)

      Value  Global                              Global Defined In Module
      -----  --------------------------------   ------------------------
     00000A26  A$_snd_manager$93                  _snd_manager
     00000A27  A$_snd_manager$94                  _snd_manager
     00000A2A  A$_snd_manager$95                  _snd_manager
     00000A2B  A$_snd_manager$100                 _snd_manager
     00000A2B  C$_snd_manager.c$12$1$34           _snd_manager
     00000A2B  XG$devkit_PSGPlay$0$0              _snd_manager
     00000A2C  A$_snd_manager$117                 _snd_manager
     00000A2C  C$_snd_manager.c$13$1$34           _snd_manager
     00000A2C  C$_snd_manager.c$15$1$36           _snd_manager
     00000A2C  C$_snd_manager.c$16$1$36           _snd_manager
     00000A2C  G$devkit_PSGCancelLoop$0$0         _snd_manager
     00000A2C  XG$devkit_PSGCancelLoop$0$0        _snd_manager
     00000A2C  _devkit_PSGCancelLoop              _snd_manager
     00000A2F  A$_snd_manager$130                 _snd_manager
     00000A2F  C$_snd_manager.c$17$1$36           _snd_manager
     00000A2F  C$_snd_manager.c$19$1$38           _snd_manager
     00000A2F  G$devkit_PSGPlayNoRepeat$0$0       _snd_manager
     00000A2F  _devkit_PSGPlayNoRepeat            _snd_manager
     00000A30  A$_snd_manager$131                 _snd_manager
     00000A31  A$_snd_manager$132                 _snd_manager
     00000A32  A$_snd_manager$133                 _snd_manager
     00000A33  A$_snd_manager$134                 _snd_manager
     00000A34  A$_snd_manager$135                 _snd_manager
     00000A37  A$_snd_manager$136                 _snd_manager
     00000A38  A$_snd_manager$141                 _snd_manager
     00000A38  C$_snd_manager.c$20$1$38           _snd_manager
     00000A38  XG$devkit_PSGPlayNoRepeat$0$0      _snd_manager
     00000A39  A$_snd_manager$158                 _snd_manager
     00000A39  C$_snd_manager.c$21$1$38           _snd_manager
     00000A39  C$_snd_manager.c$23$1$40           _snd_manager
     00000A39  C$_snd_manager.c$24$1$40           _snd_manager
     00000A39  G$devkit_PSGStop$0$0               _snd_manager
     00000A39  XG$devkit_PSGStop$0$0              _snd_manager
     00000A39  _devkit_PSGStop                    _snd_manager
     00000A3C  A$_snd_manager$175                 _snd_manager
     00000A3C  C$_snd_manager.c$25$1$40           _snd_manager
     00000A3C  C$_snd_manager.c$27$1$42           _snd_manager
     00000A3C  C$_snd_manager.c$28$1$42           _snd_manager
     00000A3C  G$devkit_PSGResume$0$0             _snd_manager
     00000A3C  XG$devkit_PSGResume$0$0            _snd_manager
     00000A3C  _devkit_PSGResume                  _snd_manager
     00000A3F  A$_snd_manager$192                 _snd_manager
     00000A3F  C$_snd_manager.c$29$1$42           _snd_manager
     00000A3F  C$_snd_manager.c$31$1$44           _snd_manager
     00000A3F  C$_snd_manager.c$32$1$44           _snd_manager
     00000A3F  G$devkit_PSGGetStatus$0$0          _snd_manager
     00000A3F  XG$devkit_PSGGetStatus$0$0         _snd_manager
     00000A3F  _devkit_PSGGetStatus               _snd_manager
     00000A42  A$_snd_manager$205                 _snd_manager
     00000A42  C$_snd_manager.c$33$1$44           _snd_manager
     00000A42  C$_snd_manager.c$35$1$46           _snd_manager
ASxxxx Linker V03.00 + NoICE + sdld,  page 19.
Hexadecimal  [32-Bits]

Area                                    Addr        Size        Decimal Bytes (Attributes)
--------------------------------        ----        ----        ------- ----- ------------
_CODE                               00000200    00002471 =        9329. bytes (REL,CON)

      Value  Global                              Global Defined In Module
      -----  --------------------------------   ------------------------
     00000A42  G$devkit_PSGSetMusicVolumeAttenu   _snd_manager
     00000A42  _devkit_PSGSetMusicVolumeAttenua   _snd_manager
     00000A45  A$_snd_manager$206                 _snd_manager
     00000A46  A$_snd_manager$207                 _snd_manager
     00000A47  A$_snd_manager$208                 _snd_manager
     00000A48  A$_snd_manager$209                 _snd_manager
     00000A49  A$_snd_manager$210                 _snd_manager
     00000A4C  A$_snd_manager$211                 _snd_manager
     00000A4D  A$_snd_manager$216                 _snd_manager
     00000A4D  C$_snd_manager.c$36$1$46           _snd_manager
     00000A4D  XG$devkit_PSGSetMusicVolumeAtten   _snd_manager
     00000A4E  A$_snd_manager$229                 _snd_manager
     00000A4E  C$_snd_manager.c$38$1$46           _snd_manager
     00000A4E  C$_snd_manager.c$40$1$48           _snd_manager
     00000A4E  G$devkit_PSGSFXPlay$0$0            _snd_manager
     00000A4E  _devkit_PSGSFXPlay                 _snd_manager
     00000A51  A$_snd_manager$230                 _snd_manager
     00000A52  A$_snd_manager$231                 _snd_manager
     00000A53  A$_snd_manager$232                 _snd_manager
     00000A54  A$_snd_manager$233                 _snd_manager
     00000A55  A$_snd_manager$234                 _snd_manager
     00000A58  A$_snd_manager$235                 _snd_manager
     00000A59  A$_snd_manager$236                 _snd_manager
     00000A5A  A$_snd_manager$237                 _snd_manager
     00000A5B  A$_snd_manager$238                 _snd_manager
     00000A5C  A$_snd_manager$239                 _snd_manager
     00000A5D  A$_snd_manager$240                 _snd_manager
     00000A60  A$_snd_manager$241                 _snd_manager
     00000A61  A$_snd_manager$242                 _snd_manager
     00000A62  A$_snd_manager$247                 _snd_manager
     00000A62  C$_snd_manager.c$41$1$48           _snd_manager
     00000A62  XG$devkit_PSGSFXPlay$0$0           _snd_manager
     00000A63  A$_snd_manager$260                 _snd_manager
     00000A63  C$_snd_manager.c$42$1$48           _snd_manager
     00000A63  C$_snd_manager.c$44$1$50           _snd_manager
     00000A63  G$devkit_PSGSFXPlayLoop$0$0        _snd_manager
     00000A63  _devkit_PSGSFXPlayLoop             _snd_manager
     00000A66  A$_snd_manager$261                 _snd_manager
     00000A67  A$_snd_manager$262                 _snd_manager
     00000A68  A$_snd_manager$263                 _snd_manager
     00000A69  A$_snd_manager$264                 _snd_manager
     00000A6A  A$_snd_manager$265                 _snd_manager
     00000A6D  A$_snd_manager$266                 _snd_manager
     00000A6E  A$_snd_manager$267                 _snd_manager
     00000A6F  A$_snd_manager$268                 _snd_manager
     00000A70  A$_snd_manager$269                 _snd_manager
     00000A71  A$_snd_manager$270                 _snd_manager
     00000A72  A$_snd_manager$271                 _snd_manager
     00000A75  A$_snd_manager$272                 _snd_manager
     00000A76  A$_snd_manager$273                 _snd_manager
     00000A77  A$_snd_manager$278                 _snd_manager
ASxxxx Linker V03.00 + NoICE + sdld,  page 20.
Hexadecimal  [32-Bits]

Area                                    Addr        Size        Decimal Bytes (Attributes)
--------------------------------        ----        ----        ------- ----- ------------
_CODE                               00000200    00002471 =        9329. bytes (REL,CON)

      Value  Global                              Global Defined In Module
      -----  --------------------------------   ------------------------
     00000A77  C$_snd_manager.c$45$1$50           _snd_manager
     00000A77  XG$devkit_PSGSFXPlayLoop$0$0       _snd_manager
     00000A78  A$_snd_manager$295                 _snd_manager
     00000A78  C$_snd_manager.c$46$1$50           _snd_manager
     00000A78  C$_snd_manager.c$48$1$52           _snd_manager
     00000A78  C$_snd_manager.c$49$1$52           _snd_manager
     00000A78  G$devkit_PSGSFXCancelLoop$0$0      _snd_manager
     00000A78  XG$devkit_PSGSFXCancelLoop$0$0     _snd_manager
     00000A78  _devkit_PSGSFXCancelLoop           _snd_manager
     00000A7B  A$_snd_manager$312                 _snd_manager
     00000A7B  C$_snd_manager.c$50$1$52           _snd_manager
     00000A7B  C$_snd_manager.c$52$1$54           _snd_manager
     00000A7B  C$_snd_manager.c$53$1$54           _snd_manager
     00000A7B  G$devkit_PSGSFXStop$0$0            _snd_manager
     00000A7B  XG$devkit_PSGSFXStop$0$0           _snd_manager
     00000A7B  _devkit_PSGSFXStop                 _snd_manager
     00000A7E  A$_snd_manager$329                 _snd_manager
     00000A7E  C$_snd_manager.c$54$1$54           _snd_manager
     00000A7E  C$_snd_manager.c$56$1$56           _snd_manager
     00000A7E  C$_snd_manager.c$57$1$56           _snd_manager
     00000A7E  G$devkit_PSGSFXGetStatus$0$0       _snd_manager
     00000A7E  XG$devkit_PSGSFXGetStatus$0$0      _snd_manager
     00000A7E  _devkit_PSGSFXGetStatus            _snd_manager
     00000A81  A$_snd_manager$346                 _snd_manager
     00000A81  C$_snd_manager.c$59$1$56           _snd_manager
     00000A81  C$_snd_manager.c$61$1$58           _snd_manager
     00000A81  C$_snd_manager.c$62$1$58           _snd_manager
     00000A81  G$devkit_PSGSilenceChannels$0$0    _snd_manager
     00000A81  XG$devkit_PSGSilenceChannels$0$0   _snd_manager
     00000A81  _devkit_PSGSilenceChannels         _snd_manager
     00000A84  A$_snd_manager$363                 _snd_manager
     00000A84  C$_snd_manager.c$63$1$58           _snd_manager
     00000A84  C$_snd_manager.c$65$1$60           _snd_manager
     00000A84  C$_snd_manager.c$66$1$60           _snd_manager
     00000A84  G$devkit_PSGRestoreVolumes$0$0     _snd_manager
     00000A84  XG$devkit_PSGRestoreVolumes$0$0    _snd_manager
     00000A84  _devkit_PSGRestoreVolumes          _snd_manager
     00000A87  A$_snd_manager$380                 _snd_manager
     00000A87  C$_snd_manager.c$68$1$60           _snd_manager
     00000A87  C$_snd_manager.c$70$1$62           _snd_manager
     00000A87  C$_snd_manager.c$71$1$62           _snd_manager
     00000A87  G$devkit_PSGFrame$0$0              _snd_manager
     00000A87  XG$devkit_PSGFrame$0$0             _snd_manager
     00000A87  _devkit_PSGFrame                   _snd_manager
     00000A8A  A$_snd_manager$397                 _snd_manager
     00000A8A  C$_snd_manager.c$72$1$62           _snd_manager
     00000A8A  C$_snd_manager.c$74$1$64           _snd_manager
     00000A8A  C$_snd_manager.c$75$1$64           _snd_manager
     00000A8A  G$devkit_PSGSFXFrame$0$0           _snd_manager
     00000A8A  XG$devkit_PSGSFXFrame$0$0          _snd_manager
     00000A8A  _devkit_PSGSFXFrame                _snd_manager
ASxxxx Linker V03.00 + NoICE + sdld,  page 21.
Hexadecimal  [32-Bits]

Area                                    Addr        Size        Decimal Bytes (Attributes)
--------------------------------        ----        ----        ------- ----- ------------
_CODE                               00000200    00002471 =        9329. bytes (REL,CON)

      Value  Global                              Global Defined In Module
      -----  --------------------------------   ------------------------
     00000A8D  A$_snd_manager$410                 _snd_manager
     00000A8D  C$_snd_manager.c$78$1$64           _snd_manager
     00000A8D  C$_snd_manager.c$80$1$65           _snd_manager
     00000A8D  G$devkit_SFX_CHANNEL2$0$0          _snd_manager
     00000A8D  _devkit_SFX_CHANNEL2               _snd_manager
     00000A8F  A$_snd_manager$415                 _snd_manager
     00000A8F  C$_snd_manager.c$81$1$65           _snd_manager
     00000A8F  XG$devkit_SFX_CHANNEL2$0$0         _snd_manager
     00000A90  A$_snd_manager$428                 _snd_manager
     00000A90  C$_snd_manager.c$82$1$65           _snd_manager
     00000A90  C$_snd_manager.c$84$1$66           _snd_manager
     00000A90  G$devkit_SFX_CHANNEL3$0$0          _snd_manager
     00000A90  _devkit_SFX_CHANNEL3               _snd_manager
     00000A92  A$_snd_manager$433                 _snd_manager
     00000A92  C$_snd_manager.c$85$1$66           _snd_manager
     00000A92  XG$devkit_SFX_CHANNEL3$0$0         _snd_manager
     00000A93  A$_snd_manager$446                 _snd_manager
     00000A93  C$_snd_manager.c$86$1$66           _snd_manager
     00000A93  C$_snd_manager.c$88$1$67           _snd_manager
     00000A93  G$devkit_SFX_CHANNELS2AND3$0$0     _snd_manager
     00000A93  _devkit_SFX_CHANNELS2AND3          _snd_manager
     00000A95  A$_snd_manager$451                 _snd_manager
     00000A95  C$_snd_manager.c$89$1$67           _snd_manager
     00000A95  XG$devkit_SFX_CHANNELS2AND3$0$0    _snd_manager
     00000A96  A$enemy$65                         enemy
     00000A96  C$enemy.c$6$0$0                    enemy
     00000A96  C$enemy.c$8$0$0                    enemy
     00000A96  G$enemy_foo$0$0                    enemy
     00000A96  XG$enemy_foo$0$0                   enemy
     00000A96  _enemy_foo                         enemy
     00000A97  A$enemy$75                         enemy
     00000A97  C$enemy.c$40$0$0                   enemy
     00000A97  G$RemoveEnemy$0$0                  enemy
     00000A97  _RemoveEnemy                       enemy
     00000A99  A$enemy$76                         enemy
     00000A9D  A$enemy$77                         enemy
     00000A9F  A$enemy$81                         enemy
     00000A9F  C$enemy.c$45$1$22                  enemy
     00000AA2  A$enemy$82                         enemy
     00000AA3  A$enemy$83                         enemy
     00000AA5  A$enemy$84                         enemy
     00000AA6  A$enemy$85                         enemy
     00000AA9  A$enemy$86                         enemy
     00000AAC  A$enemy$87                         enemy
     00000AAD  A$enemy$88                         enemy
     00000AAE  A$enemy$89                         enemy
     00000AAF  A$enemy$90                         enemy
     00000AB0  A$enemy$91                         enemy
     00000AB1  A$enemy$92                         enemy
     00000AB2  A$enemy$93                         enemy
     00000AB3  A$enemy$94                         enemy
ASxxxx Linker V03.00 + NoICE + sdld,  page 22.
Hexadecimal  [32-Bits]

Area                                    Addr        Size        Decimal Bytes (Attributes)
--------------------------------        ----        ----        ------- ----- ------------
_CODE                               00000200    00002471 =        9329. bytes (REL,CON)

      Value  Global                              Global Defined In Module
      -----  --------------------------------   ------------------------
     00000AB6  A$enemy$95                         enemy
     00000AB8  A$enemy$97                         enemy
     00000ABB  A$enemy$101                        enemy
     00000ABB  C$enemy.c$47$2$23                  enemy
     00000ABE  A$enemy$102                        enemy
     00000AC1  A$enemy$103                        enemy
     00000AC2  A$enemy$104                        enemy
     00000AC4  A$enemy$105                        enemy
     00000AC5  A$enemy$106                        enemy
     00000AC6  A$enemy$107                        enemy
     00000AC7  A$enemy$108                        enemy
     00000AC8  A$enemy$109                        enemy
     00000AC9  A$enemy$110                        enemy
     00000ACA  A$enemy$111                        enemy
     00000ACB  A$enemy$112                        enemy
     00000ACC  A$enemy$113                        enemy
     00000ACD  A$enemy$114                        enemy
     00000ACE  A$enemy$115                        enemy
     00000ACF  A$enemy$119                        enemy
     00000ACF  C$enemy.c$48$2$23                  enemy
     00000AD2  A$enemy$120                        enemy
     00000AD4  A$enemy$121                        enemy
     00000AD5  A$enemy$122                        enemy
     00000AD6  A$enemy$123                        enemy
     00000AD8  A$enemy$124                        enemy
     00000AD9  A$enemy$125                        enemy
     00000ADA  A$enemy$126                        enemy
     00000ADB  A$enemy$127                        enemy
     00000ADC  A$enemy$128                        enemy
     00000ADD  A$enemy$129                        enemy
     00000ADE  A$enemy$130                        enemy
     00000ADF  A$enemy$131                        enemy
     00000AE0  A$enemy$132                        enemy
     00000AE1  A$enemy$133                        enemy
     00000AE3  A$enemy$137                        enemy
     00000AE3  C$enemy.c$50$2$23                  enemy
     00000AE6  A$enemy$138                        enemy
     00000AE7  A$enemy$142                        enemy
     00000AE7  C$enemy.c$51$2$23                  enemy
     00000AE8  A$enemy$143                        enemy
     00000AE9  A$enemy$144                        enemy
     00000AEA  A$enemy$145                        enemy
     00000AEC  A$enemy$146                        enemy
     00000AED  A$enemy$147                        enemy
     00000AEE  A$enemy$148                        enemy
     00000AEF  A$enemy$149                        enemy
     00000AF0  A$enemy$153                        enemy
     00000AF0  C$enemy.c$52$2$23                  enemy
     00000AF1  A$enemy$154                        enemy
     00000AF2  A$enemy$155                        enemy
     00000AF3  A$enemy$156                        enemy
ASxxxx Linker V03.00 + NoICE + sdld,  page 23.
Hexadecimal  [32-Bits]

Area                                    Addr        Size        Decimal Bytes (Attributes)
--------------------------------        ----        ----        ------- ----- ------------
_CODE                               00000200    00002471 =        9329. bytes (REL,CON)

      Value  Global                              Global Defined In Module
      -----  --------------------------------   ------------------------
     00000AF4  A$enemy$157                        enemy
     00000AF6  A$enemy$158                        enemy
     00000AF7  A$enemy$159                        enemy
     00000AF8  A$enemy$160                        enemy
     00000AF9  A$enemy$161                        enemy
     00000AFA  A$enemy$162                        enemy
     00000AFB  A$enemy$166                        enemy
     00000AFB  C$enemy.c$53$2$23                  enemy
     00000AFC  A$enemy$167                        enemy
     00000AFD  A$enemy$168                        enemy
     00000AFE  A$enemy$169                        enemy
     00000AFF  A$enemy$170                        enemy
     00000B00  A$enemy$171                        enemy
     00000B02  A$enemy$172                        enemy
     00000B03  A$enemy$173                        enemy
     00000B04  A$enemy$174                        enemy
     00000B05  A$enemy$175                        enemy
     00000B06  A$enemy$176                        enemy
     00000B07  A$enemy$177                        enemy
     00000B08  A$enemy$181                        enemy
     00000B08  C$enemy.c$54$2$23                  enemy
     00000B0B  A$enemy$182                        enemy
     00000B0C  A$enemy$183                        enemy
     00000B0D  A$enemy$184                        enemy
     00000B0F  A$enemy$185                        enemy
     00000B10  A$enemy$186                        enemy
     00000B11  A$enemy$187                        enemy
     00000B12  A$enemy$188                        enemy
     00000B13  A$enemy$189                        enemy
     00000B14  A$enemy$190                        enemy
     00000B15  A$enemy$191                        enemy
     00000B16  A$enemy$195                        enemy
     00000B16  C$enemy.c$55$2$23                  enemy
     00000B19  A$enemy$196                        enemy
     00000B1A  A$enemy$197                        enemy
     00000B1B  A$enemy$198                        enemy
     00000B1D  A$enemy$199                        enemy
     00000B1E  A$enemy$200                        enemy
     00000B1F  A$enemy$201                        enemy
     00000B20  A$enemy$202                        enemy
     00000B21  A$enemy$203                        enemy
     00000B22  A$enemy$204                        enemy
     00000B23  A$enemy$205                        enemy
     00000B24  A$enemy$206                        enemy
     00000B25  A$enemy$210                        enemy
     00000B25  C$enemy.c$56$2$23                  enemy
     00000B28  A$enemy$211                        enemy
     00000B29  A$enemy$212                        enemy
     00000B2A  A$enemy$213                        enemy
     00000B2C  A$enemy$214                        enemy
     00000B2D  A$enemy$215                        enemy
ASxxxx Linker V03.00 + NoICE + sdld,  page 24.
Hexadecimal  [32-Bits]

Area                                    Addr        Size        Decimal Bytes (Attributes)
--------------------------------        ----        ----        ------- ----- ------------
_CODE                               00000200    00002471 =        9329. bytes (REL,CON)

      Value  Global                              Global Defined In Module
      -----  --------------------------------   ------------------------
     00000B2E  A$enemy$216                        enemy
     00000B31  A$enemy$217                        enemy
     00000B32  A$enemy$218                        enemy
     00000B33  A$enemy$219                        enemy
     00000B34  A$enemy$220                        enemy
     00000B35  A$enemy$224                        enemy
     00000B35  C$enemy.c$57$2$23                  enemy
     00000B38  A$enemy$225                        enemy
     00000B39  A$enemy$226                        enemy
     00000B3A  A$enemy$227                        enemy
     00000B3C  A$enemy$228                        enemy
     00000B3D  A$enemy$229                        enemy
     00000B3E  A$enemy$230                        enemy
     00000B41  A$enemy$231                        enemy
     00000B42  A$enemy$232                        enemy
     00000B43  A$enemy$233                        enemy
     00000B44  A$enemy$234                        enemy
     00000B45  A$enemy$238                        enemy
     00000B45  C$enemy.c$58$2$23                  enemy
     00000B48  A$enemy$239                        enemy
     00000B49  A$enemy$240                        enemy
     00000B4A  A$enemy$241                        enemy
     00000B4B  A$enemy$242                        enemy
     00000B4E  A$enemy$243                        enemy
     00000B4F  A$enemy$248                        enemy
     00000B4F  C$enemy.c$61$1$22                  enemy
     00000B53  A$enemy$249                        enemy
     00000B56  A$enemy$250                        enemy
     00000B57  A$enemy$251                        enemy
     00000B59  A$enemy$252                        enemy
     00000B5C  A$enemy$254                        enemy
     00000B5E  A$enemy$259                        enemy
     00000B5E  C$enemy.c$62$1$22                  enemy
     00000B5E  XG$RemoveEnemy$0$0                 enemy
     00000B5F  A$enemy$269                        enemy
     00000B5F  C$enemy.c$111$1$22                 enemy
     00000B5F  G$UpdateEnemy$0$0                  enemy
     00000B5F  _UpdateEnemy                       enemy
     00000B61  A$enemy$270                        enemy
     00000B65  A$enemy$271                        enemy
     00000B67  A$enemy$272                        enemy
     00000B68  A$enemy$276                        enemy
     00000B68  C$enemy.c$118$1$25                 enemy
     00000B6B  A$enemy$277                        enemy
     00000B6E  A$enemy$278                        enemy
     00000B6F  A$enemy$279                        enemy
     00000B71  A$enemy$283                        enemy
     00000B71  C$enemy.c$121$1$25                 enemy
     00000B74  A$enemy$284                        enemy
     00000B77  A$enemy$285                        enemy
     00000B79  A$enemy$286                        enemy
ASxxxx Linker V03.00 + NoICE + sdld,  page 25.
Hexadecimal  [32-Bits]

Area                                    Addr        Size        Decimal Bytes (Attributes)
--------------------------------        ----        ----        ------- ----- ------------
_CODE                               00000200    00002471 =        9329. bytes (REL,CON)

      Value  Global                              Global Defined In Module
      -----  --------------------------------   ------------------------
     00000B7A  A$enemy$287                        enemy
     00000B7B  A$enemy$288                        enemy
     00000B7C  A$enemy$289                        enemy
     00000B7D  A$enemy$290                        enemy
     00000B7E  A$enemy$291                        enemy
     00000B7F  A$enemy$292                        enemy
     00000B80  A$enemy$293                        enemy
     00000B81  A$enemy$294                        enemy
     00000B82  A$enemy$298                        enemy
     00000B82  C$enemy.c$124$1$25                 enemy
     00000B86  A$enemy$302                        enemy
     00000B86  C$enemy.c$127$1$25                 enemy
     00000B89  A$enemy$303                        enemy
     00000B8A  A$enemy$304                        enemy
     00000B8B  A$enemy$305                        enemy
     00000B8C  A$enemy$306                        enemy
     00000B8D  A$enemy$307                        enemy
     00000B8E  A$enemy$308                        enemy
     00000B90  A$enemy$309                        enemy
     00000B91  A$enemy$310                        enemy
     00000B92  A$enemy$311                        enemy
     00000B93  A$enemy$312                        enemy
     00000B94  A$enemy$313                        enemy
     00000B95  A$enemy$314                        enemy
     00000B96  A$enemy$315                        enemy
     00000B97  A$enemy$316                        enemy
     00000B99  A$enemy$320                        enemy
     00000B99  C$enemy.c$128$1$25                 enemy
     00000B9A  A$enemy$321                        enemy
     00000B9B  A$enemy$322                        enemy
     00000B9C  A$enemy$323                        enemy
     00000B9F  A$enemy$324                        enemy
     00000BA0  A$enemy$325                        enemy
     00000BA1  A$enemy$326                        enemy
     00000BA4  A$enemy$331                        enemy
     00000BA4  C$enemy.c$131$1$25                 enemy
     00000BA7  A$enemy$332                        enemy
     00000BA8  A$enemy$333                        enemy
     00000BAA  A$enemy$337                        enemy
     00000BAA  C$enemy.c$132$1$25                 enemy
     00000BAD  A$enemy$338                        enemy
     00000BAE  A$enemy$339                        enemy
     00000BAF  A$enemy$340                        enemy
     00000BB2  A$enemy$341                        enemy
     00000BB3  A$enemy$342                        enemy
     00000BB5  A$enemy$347                        enemy
     00000BB5  C$enemy.c$136$2$26                 enemy
     00000BB6  A$enemy$348                        enemy
     00000BB7  A$enemy$349                        enemy
     00000BB8  A$enemy$350                        enemy
     00000BB9  A$enemy$351                        enemy
ASxxxx Linker V03.00 + NoICE + sdld,  page 26.
Hexadecimal  [32-Bits]

Area                                    Addr        Size        Decimal Bytes (Attributes)
--------------------------------        ----        ----        ------- ----- ------------
_CODE                               00000200    00002471 =        9329. bytes (REL,CON)

      Value  Global                              Global Defined In Module
      -----  --------------------------------   ------------------------
     00000BBA  A$enemy$352                        enemy
     00000BBB  A$enemy$354                        enemy
     00000BBC  A$enemy$355                        enemy
     00000BBE  A$enemy$360                        enemy
     00000BBE  C$enemy.c$168$1$25                 enemy
     00000BBE  XG$UpdateEnemy$0$0                 enemy
     00000BBF  A$enemy$373                        enemy
     00000BBF  C$enemy.c$171$1$25                 enemy
     00000BBF  C$enemy.c$176$1$27                 enemy
     00000BBF  G$UpdateEnemies$0$0                enemy
     00000BBF  _UpdateEnemies                     enemy
     00000BC1  A$enemy$374                        enemy
     00000BC2  A$enemy$375                        enemy
     00000BC3  A$enemy$376                        enemy
     00000BC6  A$enemy$377                        enemy
     00000BC7  A$enemy$381                        enemy
     00000BC7  C$enemy.c$179$1$27                 enemy
     00000BCB  A$enemy$382                        enemy
     00000BCE  A$enemy$383                        enemy
     00000BCF  A$enemy$384                        enemy
     00000BD0  A$enemy$388                        enemy
     00000BD3  A$enemy$389                        enemy
     00000BD4  A$enemy$391                        enemy
     00000BD6  A$enemy$392                        enemy
     00000BD7  A$enemy$396                        enemy
     00000BD7  C$enemy.c$182$3$29                 enemy
     00000BD8  A$enemy$397                        enemy
     00000BD9  A$enemy$398                        enemy
     00000BDA  A$enemy$399                        enemy
     00000BDD  A$enemy$400                        enemy
     00000BDE  A$enemy$401                        enemy
     00000BDF  A$enemy$405                        enemy
     00000BDF  C$enemy.c$180$2$28                 enemy
     00000BE0  A$enemy$410                        enemy
     00000BE0  C$enemy.c$184$1$27                 enemy
     00000BE0  XG$UpdateEnemies$0$0               enemy
     00000BE2  A$enemy$420                        enemy
     00000BE2  C$enemy.c$187$1$27                 enemy
     00000BE2  G$InitEnemy$0$0                    enemy
     00000BE2  _InitEnemy                         enemy
     00000BE4  A$enemy$421                        enemy
     00000BE8  A$enemy$422                        enemy
     00000BEA  A$enemy$423                        enemy
     00000BEB  A$enemy$427                        enemy
     00000BEB  C$enemy.c$191$1$31                 enemy
     00000BEE  A$enemy$428                        enemy
     00000BF0  A$enemy$429                        enemy
     00000BF3  A$enemy$433                        enemy
     00000BF3  C$enemy.c$194$2$32                 enemy
     00000BF6  A$enemy$434                        enemy
     00000BFA  A$enemy$435                        enemy
ASxxxx Linker V03.00 + NoICE + sdld,  page 27.
Hexadecimal  [32-Bits]

Area                                    Addr        Size        Decimal Bytes (Attributes)
--------------------------------        ----        ----        ------- ----- ------------
_CODE                               00000200    00002471 =        9329. bytes (REL,CON)

      Value  Global                              Global Defined In Module
      -----  --------------------------------   ------------------------
     00000BFC  A$enemy$436                        enemy
     00000BFD  A$enemy$437                        enemy
     00000BFE  A$enemy$438                        enemy
     00000BFF  A$enemy$439                        enemy
     00000C00  A$enemy$440                        enemy
     00000C01  A$enemy$441                        enemy
     00000C02  A$enemy$442                        enemy
     00000C03  A$enemy$443                        enemy
     00000C04  A$enemy$444                        enemy
     00000C05  A$enemy$448                        enemy
     00000C05  C$enemy.c$197$2$32                 enemy
     00000C08  A$enemy$449                        enemy
     00000C09  A$enemy$453                        enemy
     00000C09  C$enemy.c$198$2$32                 enemy
     00000C0A  A$enemy$454                        enemy
     00000C0B  A$enemy$455                        enemy
     00000C0C  A$enemy$456                        enemy
     00000C0F  A$enemy$457                        enemy
     00000C10  A$enemy$461                        enemy
     00000C10  C$enemy.c$199$2$32                 enemy
     00000C11  A$enemy$462                        enemy
     00000C12  A$enemy$463                        enemy
     00000C13  A$enemy$464                        enemy
     00000C14  A$enemy$465                        enemy
     00000C17  A$enemy$466                        enemy
     00000C18  A$enemy$470                        enemy
     00000C18  C$enemy.c$200$2$32                 enemy
     00000C19  A$enemy$471                        enemy
     00000C1A  A$enemy$472                        enemy
     00000C1B  A$enemy$473                        enemy
     00000C1C  A$enemy$474                        enemy
     00000C1D  A$enemy$475                        enemy
     00000C1E  A$enemy$476                        enemy
     00000C1F  A$enemy$480                        enemy
     00000C1F  C$enemy.c$201$2$32                 enemy
     00000C22  A$enemy$481                        enemy
     00000C23  A$enemy$482                        enemy
     00000C25  A$enemy$486                        enemy
     00000C25  C$enemy.c$202$2$32                 enemy
     00000C28  A$enemy$487                        enemy
     00000C29  A$enemy$488                        enemy
     00000C2B  A$enemy$492                        enemy
     00000C2B  C$enemy.c$203$2$32                 enemy
     00000C2E  A$enemy$493                        enemy
     00000C2F  A$enemy$494                        enemy
     00000C30  A$enemy$495                        enemy
     00000C33  A$enemy$496                        enemy
     00000C35  A$enemy$497                        enemy
     00000C36  A$enemy$498                        enemy
     00000C38  A$enemy$499                        enemy
     00000C3A  A$enemy$500                        enemy
ASxxxx Linker V03.00 + NoICE + sdld,  page 28.
Hexadecimal  [32-Bits]

Area                                    Addr        Size        Decimal Bytes (Attributes)
--------------------------------        ----        ----        ------- ----- ------------
_CODE                               00000200    00002471 =        9329. bytes (REL,CON)

      Value  Global                              Global Defined In Module
      -----  --------------------------------   ------------------------
     00000C3B  A$enemy$501                        enemy
     00000C3C  A$enemy$502                        enemy
     00000C3D  A$enemy$506                        enemy
     00000C3D  C$enemy.c$204$2$32                 enemy
     00000C40  A$enemy$507                        enemy
     00000C41  A$enemy$508                        enemy
     00000C42  A$enemy$509                        enemy
     00000C45  A$enemy$510                        enemy
     00000C47  A$enemy$511                        enemy
     00000C48  A$enemy$512                        enemy
     00000C4A  A$enemy$513                        enemy
     00000C4C  A$enemy$514                        enemy
     00000C4D  A$enemy$515                        enemy
     00000C4E  A$enemy$516                        enemy
     00000C4F  A$enemy$520                        enemy
     00000C4F  C$enemy.c$205$2$32                 enemy
     00000C52  A$enemy$521                        enemy
     00000C53  A$enemy$522                        enemy
     00000C54  A$enemy$523                        enemy
     00000C57  A$enemy$524                        enemy
     00000C59  A$enemy$525                        enemy
     00000C5A  A$enemy$526                        enemy
     00000C5C  A$enemy$527                        enemy
     00000C5E  A$enemy$528                        enemy
     00000C5F  A$enemy$529                        enemy
     00000C60  A$enemy$530                        enemy
     00000C63  A$enemy$531                        enemy
     00000C64  A$enemy$535                        enemy
     00000C64  C$enemy.c$208$2$32                 enemy
     00000C65  A$enemy$536                        enemy
     00000C68  A$enemy$537                        enemy
     00000C6A  A$enemy$538                        enemy
     00000C6D  A$enemy$539                        enemy
     00000C6F  A$enemy$540                        enemy
     00000C72  A$enemy$541                        enemy
     00000C74  A$enemy$542                        enemy
     00000C76  A$enemy$543                        enemy
     00000C79  A$enemy$544                        enemy
     00000C7A  A$enemy$545                        enemy
     00000C7C  A$enemy$546                        enemy
     00000C7F  A$enemy$547                        enemy
     00000C81  A$enemy$548                        enemy
     00000C82  A$enemy$553                        enemy
     00000C82  C$enemy.c$211$2$32                 enemy
     00000C85  A$enemy$554                        enemy
     00000C86  A$enemy$558                        enemy
     00000C86  C$enemy.c$214$2$32                 enemy
     00000C89  A$enemy$559                        enemy
     00000C8B  A$enemy$560                        enemy
     00000C8C  A$enemy$561                        enemy
     00000C8F  A$enemy$562                        enemy
ASxxxx Linker V03.00 + NoICE + sdld,  page 29.
Hexadecimal  [32-Bits]

Area                                    Addr        Size        Decimal Bytes (Attributes)
--------------------------------        ----        ----        ------- ----- ------------
_CODE                               00000200    00002471 =        9329. bytes (REL,CON)

      Value  Global                              Global Defined In Module
      -----  --------------------------------   ------------------------
     00000C90  A$enemy$563                        enemy
     00000C91  A$enemy$564                        enemy
     00000C92  A$enemy$565                        enemy
     00000C93  A$enemy$566                        enemy
     00000C94  A$enemy$567                        enemy
     00000C95  A$enemy$568                        enemy
     00000C97  A$enemy$572                        enemy
     00000C97  C$enemy.c$215$2$32                 enemy
     00000C98  A$enemy$573                        enemy
     00000C9B  A$enemy$574                        enemy
     00000C9C  A$enemy$576                        enemy
     00000C9E  A$enemy$577                        enemy
     00000CA0  A$enemy$582                        enemy
     00000CA0  C$enemy.c$217$1$31                 enemy
     00000CA0  XG$InitEnemy$0$0                   enemy
     00000CA1  A$enemy$595                        enemy
     00000CA1  C$enemy.c$220$1$31                 enemy
     00000CA1  C$enemy.c$222$1$33                 enemy
     00000CA1  G$InitEnemies$0$0                  enemy
     00000CA1  _InitEnemies                       enemy
     00000CA4  A$enemy$596                        enemy
     00000CA6  A$enemy$601                        enemy
     00000CA6  C$enemy.c$223$1$33                 enemy
     00000CA6  XG$InitEnemies$0$0                 enemy
     00000CA7  A$enemyshoot$59                    enemyshoot
     00000CA7  C$enemyshoot.c$3$0$0               enemyshoot
     00000CA7  C$enemyshoot.c$5$0$0               enemyshoot
     00000CA7  G$enemyshoot_foo$0$0               enemyshoot
     00000CA7  XG$enemyshoot_foo$0$0              enemyshoot
     00000CA7  _enemyshoot_foo                    enemyshoot
     00000CA8  A$fortresscannon$59                fortresscannon
     00000CA8  C$fortresscannon.c$3$0$0           fortresscannon
     00000CA8  C$fortresscannon.c$5$0$0           fortresscannon
     00000CA8  G$fortresscannon_foo$0$0           fortresscannon
     00000CA8  XG$fortresscannon_foo$0$0          fortresscannon
     00000CA8  _fortresscannon_foo                fortresscannon
     00000CA9  A$fortressdoor$59                  fortressdoor
     00000CA9  C$fortressdoor.c$3$0$0             fortressdoor
     00000CA9  C$fortressdoor.c$5$0$0             fortressdoor
     00000CA9  G$fortressdoor_foo$0$0             fortressdoor
     00000CA9  XG$fortressdoor_foo$0$0            fortressdoor
     00000CA9  _fortressdoor_foo                  fortressdoor
     00000CAA  A$fortressphantom$59               fortressphantom
     00000CAA  C$fortressphantom.c$3$0$0          fortressphantom
     00000CAA  C$fortressphantom.c$5$0$0          fortressphantom
     00000CAA  G$fortressphantom_foo$0$0          fortressphantom
     00000CAA  XG$fortressphantom_foo$0$0         fortressphantom
     00000CAA  _fortressphantom_foo               fortressphantom
     00000CAB  A$fortresssearcher$59              fortresssearcher
     00000CAB  C$fortresssearcher.c$3$0$0         fortresssearcher
     00000CAB  C$fortresssearcher.c$5$0$0         fortresssearcher
ASxxxx Linker V03.00 + NoICE + sdld,  page 30.
Hexadecimal  [32-Bits]

Area                                    Addr        Size        Decimal Bytes (Attributes)
--------------------------------        ----        ----        ------- ----- ------------
_CODE                               00000200    00002471 =        9329. bytes (REL,CON)

      Value  Global                              Global Defined In Module
      -----  --------------------------------   ------------------------
     00000CAB  G$fortresssearcher_foo$0$0         fortresssearcher
     00000CAB  XG$fortresssearcher_foo$0$0        fortresssearcher
     00000CAB  _fortresssearcher_foo              fortresssearcher
     00000CAC  A$fortresswave$59                  fortresswave
     00000CAC  C$fortresswave.c$3$0$0             fortresswave
     00000CAC  C$fortresswave.c$5$0$0             fortresswave
     00000CAC  G$fortresswave_foo$0$0             fortresswave
     00000CAC  XG$fortresswave_foo$0$0            fortresswave
     00000CAC  _fortresswave_foo                  fortresswave
     00000CAD  A$barrom$70                        barrom
     00000CAD  C$barrom.c$11$1$17                 barrom
     00000CAD  C$barrom.c$9$0$0                   barrom
     00000CAD  G$UpdateBarrom$0$0                 barrom
     00000CAD  _UpdateBarrom                      barrom
     00000CB1  A$barrom$71                        barrom
     00000CB4  A$barrom$72                        barrom
     00000CB6  A$barrom$73                        barrom
     00000CB7  A$barrom$77                        barrom
     00000CB7  C$barrom.c$14$2$18                 barrom
     00000CBA  A$barrom$78                        barrom
     00000CBD  A$barrom$79                        barrom
     00000CBF  A$barrom$80                        barrom
     00000CC0  A$barrom$81                        barrom
     00000CC2  A$barrom$82                        barrom
     00000CC3  A$barrom$83                        barrom
     00000CC4  A$barrom$84                        barrom
     00000CC5  A$barrom$85                        barrom
     00000CC6  A$barrom$86                        barrom
     00000CC7  A$barrom$87                        barrom
     00000CC8  A$barrom$88                        barrom
     00000CCB  A$barrom$89                        barrom
     00000CCD  A$barrom$90                        barrom
     00000CCF  A$barrom$91                        barrom
     00000CD1  A$barrom$92                        barrom
     00000CD3  A$barrom$93                        barrom
     00000CD4  A$barrom$94                        barrom
     00000CD5  A$barrom$95                        barrom
     00000CD8  A$barrom$96                        barrom
     00000CD9  A$barrom$97                        barrom
     00000CDA  A$barrom$98                        barrom
     00000CDD  A$barrom$99                        barrom
     00000CDE  A$barrom$100                       barrom
     00000CDF  A$barrom$101                       barrom
     00000CE0  A$barrom$102                       barrom
     00000CE1  A$barrom$103                       barrom
     00000CE2  A$barrom$104                       barrom
     00000CE5  A$barrom$105                       barrom
     00000CE7  A$barrom$106                       barrom
     00000CE8  A$barrom$107                       barrom
     00000CE9  A$barrom$108                       barrom
     00000CEA  A$barrom$109                       barrom
ASxxxx Linker V03.00 + NoICE + sdld,  page 31.
Hexadecimal  [32-Bits]

Area                                    Addr        Size        Decimal Bytes (Attributes)
--------------------------------        ----        ----        ------- ----- ------------
_CODE                               00000200    00002471 =        9329. bytes (REL,CON)

      Value  Global                              Global Defined In Module
      -----  --------------------------------   ------------------------
     00000CEB  A$barrom$110                       barrom
     00000CEC  A$barrom$111                       barrom
     00000CED  A$barrom$112                       barrom
     00000CF0  A$barrom$113                       barrom
     00000CF2  A$barrom$114                       barrom
     00000CF4  A$barrom$115                       barrom
     00000CF6  A$barrom$116                       barrom
     00000CF8  A$barrom$117                       barrom
     00000CF9  A$barrom$118                       barrom
     00000CFB  A$barrom$119                       barrom
     00000CFC  A$barrom$120                       barrom
     00000CFD  A$barrom$121                       barrom
     00000D00  A$barrom$122                       barrom
     00000D01  A$barrom$123                       barrom
     00000D02  A$barrom$127                       barrom
     00000D02  C$barrom.c$15$2$18                 barrom
     00000D05  A$barrom$128                       barrom
     00000D06  A$barrom$133                       barrom
     00000D06  C$barrom.c$17$1$17                 barrom
     00000D06  XG$UpdateBarrom$0$0                barrom
     00000D07  A$barrom$146                       barrom
     00000D07  C$barrom.c$19$1$17                 barrom
     00000D07  C$barrom.c$21$1$19                 barrom
     00000D07  G$DoBarrom$0$0                     barrom
     00000D07  _DoBarrom                          barrom
     00000D0A  A$barrom$147                       barrom
     00000D0C  A$barrom$152                       barrom
     00000D0C  C$barrom.c$22$1$19                 barrom
     00000D0C  XG$DoBarrom$0$0                    barrom
     00000D0D  A$barrom$165                       barrom
     00000D0D  C$barrom.c$24$1$19                 barrom
     00000D0D  C$barrom.c$26$1$20                 barrom
     00000D0D  G$InitBarrom$0$0                   barrom
     00000D0D  _InitBarrom                        barrom
     00000D10  A$barrom$166                       barrom
     00000D12  A$barrom$171                       barrom
     00000D12  C$barrom.c$27$1$20                 barrom
     00000D12  XG$InitBarrom$0$0                  barrom
     00000D13  A$bombship$59                      bombship
     00000D13  C$bombship.c$3$0$0                 bombship
     00000D13  C$bombship.c$5$0$0                 bombship
     00000D13  G$bombship_foo$0$0                 bombship
     00000D13  XG$bombship_foo$0$0                bombship
     00000D13  _bombship_foo                      bombship
     00000D14  A$explosion$64                     explosion
     00000D14  C$explosion.c$11$0$0               explosion
     00000D14  G$RemoveExplosion$0$0              explosion
     00000D14  _RemoveExplosion                   explosion
     00000D16  A$explosion$65                     explosion
     00000D1A  A$explosion$66                     explosion
     00000D1C  A$explosion$70                     explosion
ASxxxx Linker V03.00 + NoICE + sdld,  page 32.
Hexadecimal  [32-Bits]

Area                                    Addr        Size        Decimal Bytes (Attributes)
--------------------------------        ----        ----        ------- ----- ------------
_CODE                               00000200    00002471 =        9329. bytes (REL,CON)

      Value  Global                              Global Defined In Module
      -----  --------------------------------   ------------------------
     00000D1C  C$explosion.c$16$1$48              explosion
     00000D1F  A$explosion$71                     explosion
     00000D20  A$explosion$72                     explosion
     00000D22  A$explosion$73                     explosion
     00000D23  A$explosion$74                     explosion
     00000D26  A$explosion$75                     explosion
     00000D29  A$explosion$76                     explosion
     00000D2A  A$explosion$77                     explosion
     00000D2B  A$explosion$78                     explosion
     00000D2C  A$explosion$79                     explosion
     00000D2D  A$explosion$80                     explosion
     00000D2E  A$explosion$81                     explosion
     00000D2F  A$explosion$82                     explosion
     00000D30  A$explosion$83                     explosion
     00000D33  A$explosion$84                     explosion
     00000D35  A$explosion$86                     explosion
     00000D38  A$explosion$90                     explosion
     00000D38  C$explosion.c$18$2$49              explosion
     00000D3B  A$explosion$91                     explosion
     00000D3C  A$explosion$92                     explosion
     00000D3D  A$explosion$93                     explosion
     00000D3E  A$explosion$94                     explosion
     00000D3F  A$explosion$95                     explosion
     00000D40  A$explosion$96                     explosion
     00000D41  A$explosion$97                     explosion
     00000D42  A$explosion$101                    explosion
     00000D42  C$explosion.c$19$2$49              explosion
     00000D45  A$explosion$102                    explosion
     00000D47  A$explosion$103                    explosion
     00000D48  A$explosion$104                    explosion
     00000D4A  A$explosion$105                    explosion
     00000D4B  A$explosion$106                    explosion
     00000D4C  A$explosion$107                    explosion
     00000D4D  A$explosion$108                    explosion
     00000D4E  A$explosion$109                    explosion
     00000D50  A$explosion$113                    explosion
     00000D50  C$explosion.c$21$2$49              explosion
     00000D53  A$explosion$114                    explosion
     00000D54  A$explosion$118                    explosion
     00000D54  C$explosion.c$22$2$49              explosion
     00000D55  A$explosion$119                    explosion
     00000D56  A$explosion$120                    explosion
     00000D57  A$explosion$121                    explosion
     00000D59  A$explosion$122                    explosion
     00000D5A  A$explosion$123                    explosion
     00000D5B  A$explosion$124                    explosion
     00000D5C  A$explosion$125                    explosion
     00000D5D  A$explosion$129                    explosion
     00000D5D  C$explosion.c$23$2$49              explosion
     00000D5E  A$explosion$130                    explosion
     00000D5F  A$explosion$131                    explosion
ASxxxx Linker V03.00 + NoICE + sdld,  page 33.
Hexadecimal  [32-Bits]

Area                                    Addr        Size        Decimal Bytes (Attributes)
--------------------------------        ----        ----        ------- ----- ------------
_CODE                               00000200    00002471 =        9329. bytes (REL,CON)

      Value  Global                              Global Defined In Module
      -----  --------------------------------   ------------------------
     00000D60  A$explosion$132                    explosion
     00000D61  A$explosion$133                    explosion
     00000D63  A$explosion$134                    explosion
     00000D64  A$explosion$135                    explosion
     00000D65  A$explosion$136                    explosion
     00000D66  A$explosion$137                    explosion
     00000D67  A$explosion$138                    explosion
     00000D68  A$explosion$142                    explosion
     00000D68  C$explosion.c$24$2$49              explosion
     00000D69  A$explosion$143                    explosion
     00000D6A  A$explosion$144                    explosion
     00000D6B  A$explosion$145                    explosion
     00000D6E  A$explosion$146                    explosion
     00000D6F  A$explosion$151                    explosion
     00000D6F  C$explosion.c$27$1$48              explosion
     00000D72  A$explosion$152                    explosion
     00000D73  A$explosion$153                    explosion
     00000D75  A$explosion$158                    explosion
     00000D75  C$explosion.c$28$1$48              explosion
     00000D75  XG$RemoveExplosion$0$0             explosion
     00000D76  A$explosion$168                    explosion
     00000D76  C$explosion.c$31$1$48              explosion
     00000D76  G$UpdateExplosion$0$0              explosion
     00000D76  _UpdateExplosion                   explosion
     00000D78  A$explosion$169                    explosion
     00000D7C  A$explosion$170                    explosion
     00000D7E  A$explosion$171                    explosion
     00000D7F  A$explosion$172                    explosion
     00000D80  A$explosion$176                    explosion
     00000D80  C$explosion.c$33$1$51              explosion
     00000D83  A$explosion$177                    explosion
     00000D86  A$explosion$178                    explosion
     00000D89  A$explosion$179                    explosion
     00000D8A  A$explosion$180                    explosion
     00000D8B  A$explosion$181                    explosion
     00000D8C  A$explosion$182                    explosion
     00000D8D  A$explosion$183                    explosion
     00000D8E  A$explosion$184                    explosion
     00000D8F  A$explosion$188                    explosion
     00000D90  A$explosion$189                    explosion
     00000D91  A$explosion$190                    explosion
     00000D92  A$explosion$191                    explosion
     00000D93  A$explosion$192                    explosion
     00000D94  A$explosion$193                    explosion
     00000D95  A$explosion$197                    explosion
     00000D95  C$explosion.c$37$1$51              explosion
     00000D98  A$explosion$198                    explosion
     00000D9A  A$explosion$199                    explosion
     00000D9D  A$explosion$200                    explosion
     00000DA0  A$explosion$201                    explosion
     00000DA2  A$explosion$202                    explosion
ASxxxx Linker V03.00 + NoICE + sdld,  page 34.
Hexadecimal  [32-Bits]

Area                                    Addr        Size        Decimal Bytes (Attributes)
--------------------------------        ----        ----        ------- ----- ------------
_CODE                               00000200    00002471 =        9329. bytes (REL,CON)

      Value  Global                              Global Defined In Module
      -----  --------------------------------   ------------------------
     00000DA5  A$explosion$203                    explosion
     00000DA8  A$explosion$204                    explosion
     00000DAB  A$explosion$205                    explosion
     00000DAC  A$explosion$209                    explosion
     00000DAC  C$explosion.c$35$1$51              explosion
     00000DAD  A$explosion$210                    explosion
     00000DAE  A$explosion$211                    explosion
     00000DB0  A$explosion$215                    explosion
     00000DB0  C$explosion.c$37$2$52              explosion
     00000DB1  A$explosion$216                    explosion
     00000DB3  A$explosion$217                    explosion
     00000DB5  A$explosion$221                    explosion
     00000DB5  C$explosion.c$38$2$52              explosion
     00000DB8  A$explosion$222                    explosion
     00000DB9  A$explosion$223                    explosion
     00000DBA  A$explosion$224                    explosion
     00000DBD  A$explosion$225                    explosion
     00000DBE  A$explosion$226                    explosion
     00000DC0  A$explosion$231                    explosion
     00000DC0  C$explosion.c$41$3$53              explosion
     00000DC2  A$explosion$232                    explosion
     00000DC4  A$explosion$233                    explosion
     00000DC8  A$explosion$234                    explosion
     00000DCA  A$explosion$235                    explosion
     00000DCB  A$explosion$236                    explosion
     00000DCC  A$explosion$237                    explosion
     00000DCD  A$explosion$238                    explosion
     00000DCE  A$explosion$239                    explosion
     00000DCF  A$explosion$240                    explosion
     00000DD0  A$explosion$241                    explosion
     00000DD1  A$explosion$242                    explosion
     00000DD3  A$explosion$243                    explosion
     00000DD4  A$explosion$244                    explosion
     00000DD5  A$explosion$245                    explosion
     00000DD8  A$explosion$246                    explosion
     00000DD9  A$explosion$247                    explosion
     00000DDA  A$explosion$251                    explosion
     00000DDA  C$explosion.c$42$3$53              explosion
     00000DDD  A$explosion$252                    explosion
     00000DE0  A$explosion$253                    explosion
     00000DE1  A$explosion$254                    explosion
     00000DE2  A$explosion$255                    explosion
     00000DE5  A$explosion$256                    explosion
     00000DE8  A$explosion$257                    explosion
     00000DE9  A$explosion$258                    explosion
     00000DEB  A$explosion$263                    explosion
     00000DEB  C$explosion.c$47$2$54              explosion
     00000DEC  A$explosion$264                    explosion
     00000DEE  A$explosion$265                    explosion
     00000DF0  A$explosion$269                    explosion
     00000DF0  C$explosion.c$48$2$54              explosion
ASxxxx Linker V03.00 + NoICE + sdld,  page 35.
Hexadecimal  [32-Bits]

Area                                    Addr        Size        Decimal Bytes (Attributes)
--------------------------------        ----        ----        ------- ----- ------------
_CODE                               00000200    00002471 =        9329. bytes (REL,CON)

      Value  Global                              Global Defined In Module
      -----  --------------------------------   ------------------------
     00000DF3  A$explosion$270                    explosion
     00000DF4  A$explosion$271                    explosion
     00000DF5  A$explosion$272                    explosion
     00000DF8  A$explosion$273                    explosion
     00000DF9  A$explosion$274                    explosion
     00000DFB  A$explosion$279                    explosion
     00000DFB  C$explosion.c$51$3$55              explosion
     00000DFD  A$explosion$280                    explosion
     00000DFE  A$explosion$281                    explosion
     00000E00  A$explosion$282                    explosion
     00000E01  A$explosion$283                    explosion
     00000E02  A$explosion$284                    explosion
     00000E03  A$explosion$285                    explosion
     00000E04  A$explosion$286                    explosion
     00000E08  A$explosion$287                    explosion
     00000E0A  A$explosion$288                    explosion
     00000E0B  A$explosion$289                    explosion
     00000E0C  A$explosion$290                    explosion
     00000E0D  A$explosion$291                    explosion
     00000E0E  A$explosion$292                    explosion
     00000E0F  A$explosion$293                    explosion
     00000E10  A$explosion$294                    explosion
     00000E11  A$explosion$295                    explosion
     00000E13  A$explosion$296                    explosion
     00000E14  A$explosion$297                    explosion
     00000E15  A$explosion$298                    explosion
     00000E18  A$explosion$299                    explosion
     00000E19  A$explosion$300                    explosion
     00000E1A  A$explosion$304                    explosion
     00000E1A  C$explosion.c$52$3$55              explosion
     00000E1D  A$explosion$305                    explosion
     00000E20  A$explosion$306                    explosion
     00000E21  A$explosion$307                    explosion
     00000E22  A$explosion$308                    explosion
     00000E25  A$explosion$309                    explosion
     00000E28  A$explosion$310                    explosion
     00000E29  A$explosion$312                    explosion
     00000E2B  A$explosion$313                    explosion
     00000E2D  A$explosion$318                    explosion
     00000E2D  C$explosion.c$55$1$51              explosion
     00000E2D  XG$UpdateExplosion$0$0             explosion
     00000E2E  A$explosion$328                    explosion
     00000E2E  C$explosion.c$58$1$51              explosion
     00000E2E  G$InitExplosion$0$0                explosion
     00000E2E  _InitExplosion                     explosion
     00000E30  A$explosion$329                    explosion
     00000E34  A$explosion$330                    explosion
     00000E36  A$explosion$334                    explosion
     00000E36  C$explosion.c$62$1$57              explosion
     00000E3A  A$explosion$335                    explosion
     00000E3D  A$explosion$336                    explosion
ASxxxx Linker V03.00 + NoICE + sdld,  page 36.
Hexadecimal  [32-Bits]

Area                                    Addr        Size        Decimal Bytes (Attributes)
--------------------------------        ----        ----        ------- ----- ------------
_CODE                               00000200    00002471 =        9329. bytes (REL,CON)

      Value  Global                              Global Defined In Module
      -----  --------------------------------   ------------------------
     00000E3F  A$explosion$337                    explosion
     00000E41  A$explosion$341                    explosion
     00000E41  C$explosion.c$65$2$58              explosion
     00000E44  A$explosion$342                    explosion
     00000E47  A$explosion$343                    explosion
     00000E49  A$explosion$344                    explosion
     00000E4A  A$explosion$345                    explosion
     00000E4B  A$explosion$346                    explosion
     00000E4C  A$explosion$347                    explosion
     00000E4D  A$explosion$348                    explosion
     00000E4E  A$explosion$352                    explosion
     00000E4E  C$explosion.c$68$2$58              explosion
     00000E51  A$explosion$353                    explosion
     00000E52  A$explosion$357                    explosion
     00000E52  C$explosion.c$69$2$58              explosion
     00000E53  A$explosion$358                    explosion
     00000E54  A$explosion$359                    explosion
     00000E55  A$explosion$360                    explosion
     00000E58  A$explosion$361                    explosion
     00000E59  A$explosion$365                    explosion
     00000E59  C$explosion.c$70$2$58              explosion
     00000E5A  A$explosion$366                    explosion
     00000E5B  A$explosion$367                    explosion
     00000E5C  A$explosion$368                    explosion
     00000E5D  A$explosion$369                    explosion
     00000E5E  A$explosion$370                    explosion
     00000E5F  A$explosion$374                    explosion
     00000E5F  C$explosion.c$71$2$58              explosion
     00000E60  A$explosion$375                    explosion
     00000E61  A$explosion$376                    explosion
     00000E62  A$explosion$377                    explosion
     00000E63  A$explosion$378                    explosion
     00000E64  A$explosion$379                    explosion
     00000E67  A$explosion$380                    explosion
     00000E68  A$explosion$384                    explosion
     00000E68  C$explosion.c$74$2$58              explosion
     00000E6B  A$explosion$388                    explosion
     00000E6B  C$explosion.c$77$2$58              explosion
     00000E6E  A$explosion$389                    explosion
     00000E6F  A$explosion$390                    explosion
     00000E71  A$explosion$394                    explosion
     00000E71  C$explosion.c$79$3$59              explosion
     00000E73  A$explosion$395                    explosion
     00000E74  A$explosion$396                    explosion
     00000E75  A$explosion$397                    explosion
     00000E78  A$explosion$398                    explosion
     00000E79  A$explosion$399                    explosion
     00000E7C  A$explosion$400                    explosion
     00000E7D  A$explosion$401                    explosion
     00000E7E  A$explosion$403                    explosion
     00000E80  A$explosion$408                    explosion
ASxxxx Linker V03.00 + NoICE + sdld,  page 37.
Hexadecimal  [32-Bits]

Area                                    Addr        Size        Decimal Bytes (Attributes)
--------------------------------        ----        ----        ------- ----- ------------
_CODE                               00000200    00002471 =        9329. bytes (REL,CON)

      Value  Global                              Global Defined In Module
      -----  --------------------------------   ------------------------
     00000E80  C$explosion.c$82$1$57              explosion
     00000E80  XG$InitExplosion$0$0               explosion
     00000E81  A$explosion$421                    explosion
     00000E81  C$explosion.c$85$1$57              explosion
     00000E81  C$explosion.c$90$1$60              explosion
     00000E81  G$UpdateExplosions$0$0             explosion
     00000E81  _UpdateExplosions                  explosion
     00000E85  A$explosion$422                    explosion
     00000E88  A$explosion$423                    explosion
     00000E89  A$explosion$424                    explosion
     00000E8B  A$explosion$428                    explosion
     00000E8E  A$explosion$429                    explosion
     00000E8F  A$explosion$431                    explosion
     00000E91  A$explosion$432                    explosion
     00000E93  A$explosion$436                    explosion
     00000E93  C$explosion.c$93$3$62              explosion
     00000E94  A$explosion$437                    explosion
     00000E95  A$explosion$438                    explosion
     00000E96  A$explosion$439                    explosion
     00000E97  A$explosion$440                    explosion
     00000E98  A$explosion$441                    explosion
     00000E99  A$explosion$442                    explosion
     00000E9A  A$explosion$443                    explosion
     00000E9D  A$explosion$444                    explosion
     00000E9E  A$explosion$445                    explosion
     00000E9F  A$explosion$449                    explosion
     00000E9F  C$explosion.c$91$2$61              explosion
     00000EA0  A$explosion$450                    explosion
     00000EA2  A$explosion$455                    explosion
     00000EA2  C$explosion.c$97$1$60              explosion
     00000EA6  A$explosion$456                    explosion
     00000EA9  A$explosion$457                    explosion
     00000EAA  A$explosion$458                    explosion
     00000EAB  A$explosion$462                    explosion
     00000EAB  C$explosion.c$99$2$63              explosion
     00000EAE  A$explosion$463                    explosion
     00000EB0  A$explosion$464                    explosion
     00000EB2  A$explosion$468                    explosion
     00000EB2  C$explosion.c$101$3$64             explosion
     00000EB5  A$explosion$469                    explosion
     00000EB6  A$explosion$470                    explosion
     00000EB9  A$explosion$471                    explosion
     00000EBA  A$explosion$472                    explosion
     00000EBB  A$explosion$473                    explosion
     00000EBC  A$explosion$474                    explosion
     00000EBD  A$explosion$475                    explosion
     00000EC0  A$explosion$476                    explosion
     00000EC1  A$explosion$477                    explosion
     00000EC4  A$explosion$478                    explosion
     00000EC5  A$explosion$479                    explosion
     00000EC6  A$explosion$480                    explosion
ASxxxx Linker V03.00 + NoICE + sdld,  page 38.
Hexadecimal  [32-Bits]

Area                                    Addr        Size        Decimal Bytes (Attributes)
--------------------------------        ----        ----        ------- ----- ------------
_CODE                               00000200    00002471 =        9329. bytes (REL,CON)

      Value  Global                              Global Defined In Module
      -----  --------------------------------   ------------------------
     00000EC7  A$explosion$481                    explosion
     00000ECA  A$explosion$482                    explosion
     00000ECB  A$explosion$483                    explosion
     00000ECE  A$explosion$484                    explosion
     00000ECF  A$explosion$485                    explosion
     00000ED0  A$explosion$486                    explosion
     00000ED1  A$explosion$487                    explosion
     00000ED2  A$explosion$488                    explosion
     00000ED5  A$explosion$489                    explosion
     00000ED6  A$explosion$490                    explosion
     00000ED7  A$explosion$491                    explosion
     00000EDA  A$explosion$492                    explosion
     00000EDB  A$explosion$493                    explosion
     00000EDC  A$explosion$494                    explosion
     00000EDE  A$explosion$495                    explosion
     00000EDF  A$explosion$496                    explosion
     00000EE0  A$explosion$497                    explosion
     00000EE1  A$explosion$498                    explosion
     00000EE2  A$explosion$499                    explosion
     00000EE5  A$explosion$500                    explosion
     00000EE6  A$explosion$501                    explosion
     00000EE7  A$explosion$505                    explosion
     00000EE7  C$explosion.c$102$3$64             explosion
     00000EEA  A$explosion$510                    explosion
     00000EEA  C$explosion.c$104$2$63             explosion
     00000EED  A$explosion$511                    explosion
     00000EEE  A$explosion$516                    explosion
     00000EEE  C$explosion.c$106$1$60             explosion
     00000EEE  XG$UpdateExplosions$0$0            explosion
     00000EEF  A$explosion$529                    explosion
     00000EEF  C$explosion.c$109$1$60             explosion
     00000EEF  C$explosion.c$112$1$65             explosion
     00000EEF  G$InitExplosionSprite$0$0          explosion
     00000EEF  _InitExplosionSprite               explosion
     00000EF1  A$explosion$530                    explosion
     00000EF2  A$explosion$531                    explosion
     00000EF3  A$explosion$532                    explosion
     00000EF6  A$explosion$533                    explosion
     00000EF7  A$explosion$534                    explosion
     00000EFA  A$explosion$535                    explosion
     00000EFB  A$explosion$536                    explosion
     00000EFE  A$explosion$537                    explosion
     00000EFF  A$explosion$538                    explosion
     00000F00  A$explosion$539                    explosion
     00000F01  A$explosion$543                    explosion
     00000F01  C$explosion.c$113$1$65             explosion
     00000F03  A$explosion$544                    explosion
     00000F04  A$explosion$545                    explosion
     00000F05  A$explosion$546                    explosion
     00000F08  A$explosion$547                    explosion
     00000F09  A$explosion$548                    explosion
ASxxxx Linker V03.00 + NoICE + sdld,  page 39.
Hexadecimal  [32-Bits]

Area                                    Addr        Size        Decimal Bytes (Attributes)
--------------------------------        ----        ----        ------- ----- ------------
_CODE                               00000200    00002471 =        9329. bytes (REL,CON)

      Value  Global                              Global Defined In Module
      -----  --------------------------------   ------------------------
     00000F0C  A$explosion$549                    explosion
     00000F0D  A$explosion$550                    explosion
     00000F10  A$explosion$551                    explosion
     00000F11  A$explosion$552                    explosion
     00000F12  A$explosion$553                    explosion
     00000F13  A$explosion$558                    explosion
     00000F13  C$explosion.c$114$1$65             explosion
     00000F13  XG$InitExplosionSprite$0$0         explosion
     00000F14  A$explosion$571                    explosion
     00000F14  C$explosion.c$117$1$65             explosion
     00000F14  C$explosion.c$119$1$66             explosion
     00000F14  G$InitExplosions$0$0               explosion
     00000F14  _InitExplosions                    explosion
     00000F17  A$explosion$575                    explosion
     00000F17  C$explosion.c$120$1$66             explosion
     00000F1A  A$explosion$576                    explosion
     00000F1C  A$explosion$580                    explosion
     00000F1C  C$explosion.c$121$1$66             explosion
     00000F1F  A$explosion$581                    explosion
     00000F21  A$explosion$586                    explosion
     00000F21  C$explosion.c$122$1$66             explosion
     00000F21  XG$InitExplosions$0$0              explosion
     00000F22  A$explosion$596                    explosion
     00000F22  C$explosion.c$124$1$66             explosion
     00000F22  G$InitSpawnedExplosion$0$0         explosion
     00000F22  _InitSpawnedExplosion              explosion
     00000F24  A$explosion$597                    explosion
     00000F28  A$explosion$598                    explosion
     00000F2A  A$explosion$602                    explosion
     00000F2A  C$explosion.c$126$1$68             explosion
     00000F2D  A$explosion$603                    explosion
     00000F30  A$explosion$607                    explosion
     00000F30  C$explosion.c$127$1$68             explosion
     00000F33  A$explosion$608                    explosion
     00000F36  A$explosion$612                    explosion
     00000F36  C$explosion.c$128$1$68             explosion
     00000F39  A$explosion$613                    explosion
     00000F3C  A$explosion$614                    explosion
     00000F3E  A$explosion$615                    explosion
     00000F3F  A$explosion$619                    explosion
     00000F3F  C$explosion.c$129$1$68             explosion
     00000F42  A$explosion$620                    explosion
     00000F45  A$explosion$621                    explosion
     00000F47  A$explosion$622                    explosion
     00000F48  A$explosion$626                    explosion
     00000F48  C$explosion.c$130$1$68             explosion
     00000F4B  A$explosion$627                    explosion
     00000F4D  A$explosion$628                    explosion
     00000F50  A$explosion$629                    explosion
     00000F52  A$explosion$630                    explosion
     00000F53  A$explosion$631                    explosion
ASxxxx Linker V03.00 + NoICE + sdld,  page 40.
Hexadecimal  [32-Bits]

Area                                    Addr        Size        Decimal Bytes (Attributes)
--------------------------------        ----        ----        ------- ----- ------------
_CODE                               00000200    00002471 =        9329. bytes (REL,CON)

      Value  Global                              Global Defined In Module
      -----  --------------------------------   ------------------------
     00000F55  A$explosion$632                    explosion
     00000F57  A$explosion$633                    explosion
     00000F5B  A$explosion$634                    explosion
     00000F5E  A$explosion$635                    explosion
     00000F60  A$explosion$640                    explosion
     00000F60  C$explosion.c$131$1$68             explosion
     00000F60  XG$InitSpawnedExplosion$0$0        explosion
     00000F61  A$finishstage$59                   finishstage
     00000F61  C$finishstage.c$3$0$0              finishstage
     00000F61  C$finishstage.c$5$0$0              finishstage
     00000F61  G$finishstage_foo$0$0              finishstage
     00000F61  XG$finishstage_foo$0$0             finishstage
     00000F61  _finishstage_foo                   finishstage
     00000F62  A$gameoverstage$59                 gameoverstage
     00000F62  C$gameoverstage.c$3$0$0            gameoverstage
     00000F62  C$gameoverstage.c$5$0$0            gameoverstage
     00000F62  G$gameoverstage_foo$0$0            gameoverstage
     00000F62  XG$gameoverstage_foo$0$0           gameoverstage
     00000F62  _gameoverstage_foo                 gameoverstage
     00000F63  A$jukeboxstage$59                  jukeboxstage
     00000F63  C$jukeboxstage.c$3$0$0             jukeboxstage
     00000F63  C$jukeboxstage.c$5$0$0             jukeboxstage
     00000F63  G$jukeboxstage_foo$0$0             jukeboxstage
     00000F63  XG$jukeboxstage_foo$0$0            jukeboxstage
     00000F63  _jukeboxstage_foo                  jukeboxstage
     00000F64  A$logostage$59                     logostage
     00000F64  C$logostage.c$3$0$0                logostage
     00000F64  C$logostage.c$5$0$0                logostage
     00000F64  G$logostage_foo$0$0                logostage
     00000F64  XG$logostage_foo$0$0               logostage
     00000F64  _logostage_foo                     logostage
     00000F65  A$map$64                           map
     00000F65  C$map.c$10$0$0                     map
     00000F65  C$map.c$8$0$0                      map
     00000F65  G$map_foo$0$0                      map
     00000F65  XG$map_foo$0$0                     map
     00000F65  _map_foo                           map
     00000F66  A$map$74                           map
     00000F66  C$map.c$79$0$0                     map
     00000F66  G$MoveMap$0$0                      map
     00000F66  _MoveMap                           map
     00000F68  A$map$75                           map
     00000F6C  A$map$76                           map
     00000F6E  A$map$77                           map
     00000F6F  A$map$78                           map
     00000F70  A$map$82                           map
     00000F70  C$map.c$85$1$49                    map
     00000F73  A$map$83                           map
     00000F76  A$map$84                           map
     00000F79  A$map$85                           map
     00000F7A  A$map$86                           map
ASxxxx Linker V03.00 + NoICE + sdld,  page 41.
Hexadecimal  [32-Bits]

Area                                    Addr        Size        Decimal Bytes (Attributes)
--------------------------------        ----        ----        ------- ----- ------------
_CODE                               00000200    00002471 =        9329. bytes (REL,CON)

      Value  Global                              Global Defined In Module
      -----  --------------------------------   ------------------------
     00000F7B  A$map$87                           map
     00000F7C  A$map$88                           map
     00000F7D  A$map$89                           map
     00000F7E  A$map$90                           map
     00000F7F  A$map$91                           map
     00000F80  A$map$95                           map
     00000F80  C$map.c$86$1$49                    map
     00000F83  A$map$96                           map
     00000F84  A$map$97                           map
     00000F87  A$map$98                           map
     00000F88  A$map$99                           map
     00000F89  A$map$100                          map
     00000F8A  A$map$101                          map
     00000F8D  A$map$102                          map
     00000F8E  A$map$106                          map
     00000F8E  C$map.c$89$1$49                    map
     00000F91  A$map$107                          map
     00000F93  A$map$108                          map
     00000F95  A$map$109                          map
     00000F97  A$map$110                          map
     00000F99  A$map$114                          map
     00000F99  C$map.c$90$1$49                    map
     00000F9A  A$map$115                          map
     00000F9B  A$map$116                          map
     00000F9D  A$map$117                          map
     00000F9F  A$map$118                          map
     00000FA1  A$map$119                          map
     00000FA3  A$map$120                          map
     00000FA5  A$map$121                          map
     00000FA7  A$map$125                          map
     00000FA7  C$map.c$93$1$49                    map
     00000FA8  A$map$126                          map
     00000FAB  A$map$127                          map
     00000FAC  A$map$128                          map
     00000FAD  A$map$129                          map
     00000FB0  A$map$130                          map
     00000FB1  A$map$131                          map
     00000FB2  A$map$132                          map
     00000FB5  A$map$133                          map
     00000FB8  A$map$134                          map
     00000FB9  A$map$135                          map
     00000FBC  A$map$136                          map
     00000FBE  A$map$137                          map
     00000FC0  A$map$138                          map
     00000FC2  A$map$139                          map
     00000FC4  A$map$140                          map
     00000FC6  A$map$141                          map
     00000FC7  A$map$142                          map
     00000FCA  A$map$143                          map
     00000FCD  A$map$144                          map
     00000FCE  A$map$145                          map
ASxxxx Linker V03.00 + NoICE + sdld,  page 42.
Hexadecimal  [32-Bits]

Area                                    Addr        Size        Decimal Bytes (Attributes)
--------------------------------        ----        ----        ------- ----- ------------
_CODE                               00000200    00002471 =        9329. bytes (REL,CON)

      Value  Global                              Global Defined In Module
      -----  --------------------------------   ------------------------
     00000FCF  A$map$146                          map
     00000FD2  A$map$147                          map
     00000FD3  A$map$148                          map
     00000FD4  A$map$149                          map
     00000FD5  A$map$153                          map
     00000FD5  C$map.c$96$1$49                    map
     00000FD9  A$map$154                          map
     00000FDB  A$map$155                          map
     00000FDD  A$map$156                          map
     00000FDF  A$map$157                          map
     00000FE1  A$map$158                          map
     00000FE3  A$map$159                          map
     00000FE5  A$map$160                          map
     00000FE7  A$map$161                          map
     00000FE9  A$map$162                          map
     00000FEB  A$map$163                          map
     00000FED  A$map$164                          map
     00000FEE  A$map$165                          map
     00000FEF  A$map$166                          map
     00000FF1  A$map$167                          map
     00000FF2  A$map$168                          map
     00000FF3  A$map$169                          map
     00000FF6  A$map$174                          map
     00000FF6  C$map.c$99$2$50                    map
     00000FF7  A$map$175                          map
     00000FFA  A$map$176                          map
     00000FFB  A$map$177                          map
     00000FFC  A$map$178                          map
     00000FFF  A$map$179                          map
     00001000  A$map$180                          map
     00001001  A$map$184                          map
     00001001  C$map.c$105$1$49                   map
     00001004  A$map$185                          map
     00001005  A$map$186                          map
     00001006  A$map$187                          map
     00001009  A$map$188                          map
     0000100A  A$map$189                          map
     0000100B  A$map$190                          map
     0000100C  A$map$191                          map
     0000100D  A$map$195                          map
     0000100D  C$map.c$106$2$50                   map
     00001010  A$map$196                          map
     00001011  A$map$197                          map
     00001012  A$map$198                          map
     00001014  A$map$202                          map
     00001014  C$map.c$107$2$50                   map
     00001015  A$map$203                          map
     00001016  A$map$204                          map
     00001017  A$map$205                          map
     00001018  A$map$206                          map
     00001019  A$map$207                          map
ASxxxx Linker V03.00 + NoICE + sdld,  page 43.
Hexadecimal  [32-Bits]

Area                                    Addr        Size        Decimal Bytes (Attributes)
--------------------------------        ----        ----        ------- ----- ------------
_CODE                               00000200    00002471 =        9329. bytes (REL,CON)

      Value  Global                              Global Defined In Module
      -----  --------------------------------   ------------------------
     0000101A  A$map$208                          map
     0000101B  A$map$209                          map
     0000101F  A$map$210                          map
     00001021  A$map$211                          map
     00001024  A$map$212                          map
     00001027  A$map$213                          map
     00001029  A$map$214                          map
     0000102B  A$map$215                          map
     0000102D  A$map$216                          map
     0000102F  A$map$217                          map
     00001031  A$map$218                          map
     00001033  A$map$219                          map
     00001034  A$map$220                          map
     00001037  A$map$221                          map
     00001038  A$map$222                          map
     0000103A  A$map$223                          map
     0000103B  A$map$224                          map
     0000103C  A$map$225                          map
     0000103D  A$map$226                          map
     0000103E  A$map$227                          map
     0000103F  A$map$228                          map
     00001042  A$map$229                          map
     00001045  A$map$230                          map
     00001046  A$map$231                          map
     00001047  A$map$232                          map
     00001049  A$map$233                          map
     0000104A  A$map$234                          map
     0000104B  A$map$235                          map
     0000104E  A$map$236                          map
     0000104F  A$map$237                          map
     00001050  A$map$241                          map
     00001050  C$map.c$116$2$50                   map
     00001054  A$map$242                          map
     00001057  A$map$243                          map
     0000105A  A$map$244                          map
     0000105C  A$map$249                          map
     0000105C  C$map.c$119$3$51                   map
     00001060  A$map$250                          map
     00001062  A$map$251                          map
     00001064  A$map$252                          map
     00001068  A$map$253                          map
     0000106A  A$map$254                          map
     0000106D  A$map$255                          map
     00001070  A$map$256                          map
     00001071  A$map$257                          map
     00001072  A$map$258                          map
     00001073  A$map$259                          map
     00001074  A$map$260                          map
     00001077  A$map$261                          map
     00001079  A$map$262                          map
     0000107A  A$map$263                          map
ASxxxx Linker V03.00 + NoICE + sdld,  page 44.
Hexadecimal  [32-Bits]

Area                                    Addr        Size        Decimal Bytes (Attributes)
--------------------------------        ----        ----        ------- ----- ------------
_CODE                               00000200    00002471 =        9329. bytes (REL,CON)

      Value  Global                              Global Defined In Module
      -----  --------------------------------   ------------------------
     0000107D  A$map$264                          map
     0000107F  A$map$268                          map
     0000107F  C$map.c$123$4$52                   map
     00001082  A$map$269                          map
     00001083  A$map$270                          map
     00001084  A$map$271                          map
     00001085  A$map$272                          map
     00001089  A$map$273                          map
     0000108B  A$map$274                          map
     0000108E  A$map$275                          map
     00001091  A$map$279                          map
     00001091  C$map.c$122$4$52                   map
     00001094  A$map$280                          map
     00001095  A$map$281                          map
     00001096  A$map$282                          map
     00001097  A$map$283                          map
     00001098  A$map$284                          map
     00001099  A$map$285                          map
     0000109D  A$map$286                          map
     0000109F  A$map$287                          map
     000010A2  A$map$288                          map
     000010A5  A$map$292                          map
     000010A5  C$map.c$121$4$52                   map
     000010A8  A$map$293                          map
     000010A9  A$map$294                          map
     000010AA  A$map$295                          map
     000010AB  A$map$296                          map
     000010AC  A$map$297                          map
     000010B0  A$map$298                          map
     000010B2  A$map$299                          map
     000010B5  A$map$300                          map
     000010B8  A$map$301                          map
     000010B9  A$map$302                          map
     000010BC  A$map$303                          map
     000010BF  A$map$304                          map
     000010C0  A$map$305                          map
     000010C1  A$map$306                          map
     000010C2  A$map$307                          map
     000010C5  A$map$308                          map
     000010C6  A$map$309                          map
     000010C7  A$map$310                          map
     000010C8  A$map$314                          map
     000010C8  C$map.c$124$4$52                   map
     000010CB  A$map$315                          map
     000010CC  A$map$316                          map
     000010CE  A$map$317                          map
     000010CF  A$map$318                          map
     000010D0  A$map$319                          map
     000010D1  A$map$320                          map
     000010D3  A$map$321                          map
     000010D4  A$map$322                          map
ASxxxx Linker V03.00 + NoICE + sdld,  page 45.
Hexadecimal  [32-Bits]

Area                                    Addr        Size        Decimal Bytes (Attributes)
--------------------------------        ----        ----        ------- ----- ------------
_CODE                               00000200    00002471 =        9329. bytes (REL,CON)

      Value  Global                              Global Defined In Module
      -----  --------------------------------   ------------------------
     000010D6  A$map$327                          map
     000010D6  C$map.c$130$1$49                   map
     000010D9  A$map$328                          map
     000010DC  A$map$329                          map
     000010DE  A$map$330                          map
     000010E0  A$map$335                          map
     000010E0  C$map.c$131$1$49                   map
     000010E0  XG$MoveMap$0$0                     map
     000010E1  A$mikgamesstage$64                 mikgamesstage
     000010E1  C$mikgamesstage.c$12$1$43          mikgamesstage
     000010E1  C$mikgamesstage.c$9$0$0            mikgamesstage
     000010E1  G$InitMikGamesStage$0$0            mikgamesstage
     000010E1  _InitMikGamesStage                 mikgamesstage
     000010E4  A$mikgamesstage$68                 mikgamesstage
     000010E4  C$mikgamesstage.c$15$1$43          mikgamesstage
     000010E7  A$mikgamesstage$72                 mikgamesstage
     000010E7  C$mikgamesstage.c$18$1$43          mikgamesstage
     000010E9  A$mikgamesstage$73                 mikgamesstage
     000010EA  A$mikgamesstage$74                 mikgamesstage
     000010EB  A$mikgamesstage$75                 mikgamesstage
     000010EE  A$mikgamesstage$76                 mikgamesstage
     000010EF  A$mikgamesstage$77                 mikgamesstage
     000010F2  A$mikgamesstage$78                 mikgamesstage
     000010F3  A$mikgamesstage$79                 mikgamesstage
     000010F4  A$mikgamesstage$83                 mikgamesstage
     000010F4  C$mikgamesstage.c$21$1$43          mikgamesstage
     000010F6  A$mikgamesstage$84                 mikgamesstage
     000010F7  A$mikgamesstage$85                 mikgamesstage
     000010F8  A$mikgamesstage$86                 mikgamesstage
     000010FB  A$mikgamesstage$87                 mikgamesstage
     000010FC  A$mikgamesstage$88                 mikgamesstage
     000010FF  A$mikgamesstage$89                 mikgamesstage
     00001100  A$mikgamesstage$90                 mikgamesstage
     00001103  A$mikgamesstage$91                 mikgamesstage
     00001104  A$mikgamesstage$92                 mikgamesstage
     00001107  A$mikgamesstage$93                 mikgamesstage
     0000110A  A$mikgamesstage$94                 mikgamesstage
     0000110B  A$mikgamesstage$95                 mikgamesstage
     0000110C  A$mikgamesstage$99                 mikgamesstage
     0000110C  C$mikgamesstage.c$24$1$43          mikgamesstage
     0000110E  A$mikgamesstage$100                mikgamesstage
     0000110F  A$mikgamesstage$101                mikgamesstage
     00001110  A$mikgamesstage$102                mikgamesstage
     00001113  A$mikgamesstage$103                mikgamesstage
     00001114  A$mikgamesstage$107                mikgamesstage
     00001114  C$mikgamesstage.c$27$1$43          mikgamesstage
     00001117  A$mikgamesstage$115                mikgamesstage
     00001117  C$mikgamesstage.c$30$1$43          mikgamesstage
     00001117  C$mikgamesstage.c$33$2$44          mikgamesstage
     0000111A  A$mikgamesstage$119                mikgamesstage
     0000111A  C$mikgamesstage.c$36$2$44          mikgamesstage
ASxxxx Linker V03.00 + NoICE + sdld,  page 46.
Hexadecimal  [32-Bits]

Area                                    Addr        Size        Decimal Bytes (Attributes)
--------------------------------        ----        ----        ------- ----- ------------
_CODE                               00000200    00002471 =        9329. bytes (REL,CON)

      Value  Global                              Global Defined In Module
      -----  --------------------------------   ------------------------
     0000111E  A$mikgamesstage$120                mikgamesstage
     00001121  A$mikgamesstage$121                mikgamesstage
     00001123  A$mikgamesstage$122                mikgamesstage
     00001126  A$mikgamesstage$123                mikgamesstage
     00001128  A$mikgamesstage$124                mikgamesstage
     0000112A  A$mikgamesstage$128                mikgamesstage
     0000112A  C$mikgamesstage.c$37$2$44          mikgamesstage
     0000112D  A$mikgamesstage$129                mikgamesstage
     0000112E  A$mikgamesstage$130                mikgamesstage
     0000112F  A$mikgamesstage$131                mikgamesstage
     00001131  A$mikgamesstage$132                mikgamesstage
     00001132  A$mikgamesstage$133                mikgamesstage
     00001133  A$mikgamesstage$134                mikgamesstage
     00001134  A$mikgamesstage$135                mikgamesstage
     00001137  A$mikgamesstage$136                mikgamesstage
     00001138  A$mikgamesstage$141                mikgamesstage
     00001138  C$mikgamesstage.c$40$2$44          mikgamesstage
     0000113B  A$mikgamesstage$142                mikgamesstage
     0000113C  A$mikgamesstage$143                mikgamesstage
     0000113D  A$mikgamesstage$144                mikgamesstage
     00001141  A$mikgamesstage$145                mikgamesstage
     00001144  A$mikgamesstage$146                mikgamesstage
     00001145  A$mikgamesstage$147                mikgamesstage
     00001146  A$mikgamesstage$148                mikgamesstage
     00001149  A$mikgamesstage$149                mikgamesstage
     0000114A  A$mikgamesstage$153                mikgamesstage
     0000114A  C$mikgamesstage.c$42$3$45          mikgamesstage
     0000114B  A$mikgamesstage$157                mikgamesstage
     0000114B  C$mikgamesstage.c$46$2$44          mikgamesstage
     0000114D  A$mikgamesstage$158                mikgamesstage
     00001151  A$mikgamesstage$159                mikgamesstage
     00001154  A$mikgamesstage$160                mikgamesstage
     00001156  A$mikgamesstage$161                mikgamesstage
     00001159  A$mikgamesstage$165                mikgamesstage
     00001159  C$mikgamesstage.c$48$3$46          mikgamesstage
     0000115A  A$mikgamesstage$169                mikgamesstage
     0000115A  C$mikgamesstage.c$52$2$44          mikgamesstage
     0000115D  A$mikgamesstage$174                mikgamesstage
     0000115D  C$mikgamesstage.c$54$1$43          mikgamesstage
     0000115D  XG$InitMikGamesStage$0$0           mikgamesstage
     0000115F  A$powerup$59                       powerup
     0000115F  C$powerup.c$3$0$0                  powerup
     0000115F  C$powerup.c$5$0$0                  powerup
     0000115F  G$powerup_foo$0$0                  powerup
     0000115F  XG$powerup_foo$0$0                 powerup
     0000115F  _powerup_foo                       powerup
     00001160  A$rectship$59                      rectship
     00001160  C$rectship.c$3$0$0                 rectship
     00001160  C$rectship.c$5$0$0                 rectship
     00001160  G$rectship_foo$0$0                 rectship
     00001160  XG$rectship_foo$0$0                rectship
ASxxxx Linker V03.00 + NoICE + sdld,  page 47.
Hexadecimal  [32-Bits]

Area                                    Addr        Size        Decimal Bytes (Attributes)
--------------------------------        ----        ----        ------- ----- ------------
_CODE                               00000200    00002471 =        9329. bytes (REL,CON)

      Value  Global                              Global Defined In Module
      -----  --------------------------------   ------------------------
     00001160  _rectship_foo                      rectship
     00001161  A$rsgthing$59                      rsgthing
     00001161  C$rsgthing.c$3$0$0                 rsgthing
     00001161  C$rsgthing.c$5$0$0                 rsgthing
     00001161  G$rsgthing_foo$0$0                 rsgthing
     00001161  XG$rsgthing_foo$0$0                rsgthing
     00001161  _rsgthing_foo                      rsgthing
     00001162  A$scripter$72                      scripter
     00001162  C$scripter.c$11$0$0                scripter
     00001162  C$scripter.c$13$0$0                scripter
     00001162  G$scripter_foo$0$0                 scripter
     00001162  XG$scripter_foo$0$0                scripter
     00001162  _scripter_foo                      scripter
     00001163  A$scripter$85                      scripter
     00001163  C$scripter.c$15$0$0                scripter
     00001163  C$scripter.c$17$1$58               scripter
     00001163  G$InitScripts$0$0                  scripter
     00001163  _InitScripts                       scripter
     00001166  A$scripter$86                      scripter
     00001168  A$scripter$91                      scripter
     00001168  C$scripter.c$18$1$58               scripter
     00001168  XG$InitScripts$0$0                 scripter
     00001169  A$scripter$101                     scripter
     00001169  C$scripter.c$20$1$58               scripter
     00001169  G$InitScript$0$0                   scripter
     00001169  _InitScript                        scripter
     0000116B  A$scripter$102                     scripter
     0000116F  A$scripter$103                     scripter
     00001171  A$scripter$107                     scripter
     00001171  C$scripter.c$24$1$60               scripter
     00001175  A$scripter$108                     scripter
     00001178  A$scripter$109                     scripter
     0000117A  A$scripter$110                     scripter
     0000117C  A$scripter$114                     scripter
     0000117C  C$scripter.c$27$2$61               scripter
     0000117F  A$scripter$115                     scripter
     00001182  A$scripter$116                     scripter
     00001185  A$scripter$117                     scripter
     00001187  A$scripter$118                     scripter
     00001188  A$scripter$119                     scripter
     00001189  A$scripter$120                     scripter
     0000118A  A$scripter$121                     scripter
     0000118B  A$scripter$122                     scripter
     0000118C  A$scripter$126                     scripter
     0000118C  C$scripter.c$30$2$61               scripter
     0000118D  A$scripter$127                     scripter
     0000118E  A$scripter$128                     scripter
     0000118F  A$scripter$129                     scripter
     00001190  A$scripter$130                     scripter
     00001191  A$scripter$131                     scripter
     00001192  A$scripter$135                     scripter
ASxxxx Linker V03.00 + NoICE + sdld,  page 48.
Hexadecimal  [32-Bits]

Area                                    Addr        Size        Decimal Bytes (Attributes)
--------------------------------        ----        ----        ------- ----- ------------
_CODE                               00000200    00002471 =        9329. bytes (REL,CON)

      Value  Global                              Global Defined In Module
      -----  --------------------------------   ------------------------
     00001192  C$scripter.c$31$2$61               scripter
     00001195  A$scripter$136                     scripter
     00001196  A$scripter$137                     scripter
     00001198  A$scripter$141                     scripter
     00001198  C$scripter.c$32$2$61               scripter
     00001199  A$scripter$142                     scripter
     0000119A  A$scripter$143                     scripter
     0000119B  A$scripter$144                     scripter
     0000119C  A$scripter$145                     scripter
     0000119F  A$scripter$146                     scripter
     000011A0  A$scripter$147                     scripter
     000011A1  A$scripter$148                     scripter
     000011A4  A$scripter$149                     scripter
     000011A5  A$scripter$153                     scripter
     000011A5  C$scripter.c$33$2$61               scripter
     000011A8  A$scripter$154                     scripter
     000011A9  A$scripter$155                     scripter
     000011AC  A$scripter$156                     scripter
     000011AD  A$scripter$157                     scripter
     000011AE  A$scripter$158                     scripter
     000011B1  A$scripter$159                     scripter
     000011B2  A$scripter$163                     scripter
     000011B2  C$scripter.c$34$2$61               scripter
     000011B5  A$scripter$164                     scripter
     000011B6  A$scripter$165                     scripter
     000011B8  A$scripter$167                     scripter
     000011BA  A$scripter$172                     scripter
     000011BA  C$scripter.c$36$1$60               scripter
     000011BA  XG$InitScript$0$0                  scripter
     000011BB  A$scripter$182                     scripter
     000011BB  C$scripter.c$39$1$60               scripter
     000011BB  G$RemoveScript$0$0                 scripter
     000011BB  _RemoveScript                      scripter
     000011BD  A$scripter$183                     scripter
     000011C1  A$scripter$184                     scripter
     000011C3  A$scripter$185                     scripter
     000011C4  A$scripter$189                     scripter
     000011C4  C$scripter.c$44$1$63               scripter
     000011C7  A$scripter$190                     scripter
     000011C8  A$scripter$191                     scripter
     000011CA  A$scripter$192                     scripter
     000011CB  A$scripter$193                     scripter
     000011CE  A$scripter$194                     scripter
     000011D1  A$scripter$195                     scripter
     000011D2  A$scripter$196                     scripter
     000011D3  A$scripter$197                     scripter
     000011D4  A$scripter$198                     scripter
     000011D5  A$scripter$199                     scripter
     000011D6  A$scripter$200                     scripter
     000011D7  A$scripter$201                     scripter
     000011D8  A$scripter$202                     scripter
ASxxxx Linker V03.00 + NoICE + sdld,  page 49.
Hexadecimal  [32-Bits]

Area                                    Addr        Size        Decimal Bytes (Attributes)
--------------------------------        ----        ----        ------- ----- ------------
_CODE                               00000200    00002471 =        9329. bytes (REL,CON)

      Value  Global                              Global Defined In Module
      -----  --------------------------------   ------------------------
     000011DB  A$scripter$203                     scripter
     000011DD  A$scripter$205                     scripter
     000011E0  A$scripter$209                     scripter
     000011E0  C$scripter.c$46$2$64               scripter
     000011E3  A$scripter$210                     scripter
     000011E4  A$scripter$211                     scripter
     000011E5  A$scripter$212                     scripter
     000011E6  A$scripter$213                     scripter
     000011E7  A$scripter$214                     scripter
     000011E8  A$scripter$215                     scripter
     000011E9  A$scripter$216                     scripter
     000011EA  A$scripter$217                     scripter
     000011EB  A$scripter$221                     scripter
     000011EB  C$scripter.c$47$2$64               scripter
     000011EE  A$scripter$222                     scripter
     000011F0  A$scripter$223                     scripter
     000011F1  A$scripter$224                     scripter
     000011F3  A$scripter$225                     scripter
     000011F4  A$scripter$226                     scripter
     000011F5  A$scripter$227                     scripter
     000011F6  A$scripter$228                     scripter
     000011F7  A$scripter$229                     scripter
     000011F8  A$scripter$233                     scripter
     000011F8  C$scripter.c$49$2$64               scripter
     000011F9  A$scripter$234                     scripter
     000011FC  A$scripter$235                     scripter
     000011FD  A$scripter$236                     scripter
     000011FE  A$scripter$237                     scripter
     00001201  A$scripter$238                     scripter
     00001202  A$scripter$239                     scripter
     00001203  A$scripter$240                     scripter
     00001204  A$scripter$241                     scripter
     00001207  A$scripter$242                     scripter
     00001208  A$scripter$243                     scripter
     00001209  A$scripter$244                     scripter
     0000120C  A$scripter$245                     scripter
     0000120D  A$scripter$249                     scripter
     0000120D  C$scripter.c$50$2$64               scripter
     0000120E  A$scripter$250                     scripter
     00001210  A$scripter$251                     scripter
     00001212  A$scripter$252                     scripter
     00001214  A$scripter$253                     scripter
     00001215  A$scripter$254                     scripter
     00001216  A$scripter$255                     scripter
     00001217  A$scripter$256                     scripter
     00001218  A$scripter$257                     scripter
     00001219  A$scripter$258                     scripter
     0000121A  A$scripter$259                     scripter
     0000121B  A$scripter$260                     scripter
     0000121E  A$scripter$261                     scripter
     00001221  A$scripter$265                     scripter
ASxxxx Linker V03.00 + NoICE + sdld,  page 50.
Hexadecimal  [32-Bits]

Area                                    Addr        Size        Decimal Bytes (Attributes)
--------------------------------        ----        ----        ------- ----- ------------
_CODE                               00000200    00002471 =        9329. bytes (REL,CON)

      Value  Global                              Global Defined In Module
      -----  --------------------------------   ------------------------
     00001221  C$scripter.c$51$2$64               scripter
     00001225  A$scripter$266                     scripter
     00001227  A$scripter$267                     scripter
     00001228  A$scripter$268                     scripter
     00001229  A$scripter$269                     scripter
     0000122A  A$scripter$270                     scripter
     0000122B  A$scripter$271                     scripter
     0000122C  A$scripter$272                     scripter
     0000122D  A$scripter$273                     scripter
     0000122E  A$scripter$274                     scripter
     0000122F  A$scripter$275                     scripter
     00001230  A$scripter$276                     scripter
     00001233  A$scripter$277                     scripter
     00001236  A$scripter$281                     scripter
     00001236  C$scripter.c$52$2$64               scripter
     0000123A  A$scripter$282                     scripter
     0000123C  A$scripter$283                     scripter
     0000123D  A$scripter$284                     scripter
     0000123E  A$scripter$285                     scripter
     0000123F  A$scripter$286                     scripter
     00001242  A$scripter$287                     scripter
     00001243  A$scripter$288                     scripter
     00001244  A$scripter$289                     scripter
     00001245  A$scripter$290                     scripter
     00001248  A$scripter$294                     scripter
     00001248  C$scripter.c$53$2$64               scripter
     0000124B  A$scripter$295                     scripter
     0000124C  A$scripter$296                     scripter
     0000124D  A$scripter$297                     scripter
     0000124E  A$scripter$298                     scripter
     0000124F  A$scripter$299                     scripter
     00001251  A$scripter$300                     scripter
     00001254  A$scripter$301                     scripter
     00001255  A$scripter$306                     scripter
     00001255  C$scripter.c$56$1$63               scripter
     00001258  A$scripter$307                     scripter
     00001259  A$scripter$308                     scripter
     0000125B  A$scripter$309                     scripter
     0000125D  A$scripter$314                     scripter
     0000125D  C$scripter.c$57$1$63               scripter
     0000125D  XG$RemoveScript$0$0                scripter
     0000125E  A$scripter$324                     scripter
     0000125E  C$scripter.c$59$1$63               scripter
     0000125E  G$UpdateScript$0$0                 scripter
     0000125E  _UpdateScript                      scripter
     00001260  A$scripter$325                     scripter
     00001264  A$scripter$326                     scripter
     00001266  A$scripter$327                     scripter
     00001269  A$scripter$328                     scripter
     0000126A  A$scripter$329                     scripter
     0000126B  A$scripter$333                     scripter
ASxxxx Linker V03.00 + NoICE + sdld,  page 51.
Hexadecimal  [32-Bits]

Area                                    Addr        Size        Decimal Bytes (Attributes)
--------------------------------        ----        ----        ------- ----- ------------
_CODE                               00000200    00002471 =        9329. bytes (REL,CON)

      Value  Global                              Global Defined In Module
      -----  --------------------------------   ------------------------
     0000126B  C$scripter.c$68$1$66               scripter
     0000126E  A$scripter$334                     scripter
     00001271  A$scripter$335                     scripter
     00001273  A$scripter$336                     scripter
     00001274  A$scripter$337                     scripter
     00001275  A$scripter$338                     scripter
     00001276  A$scripter$339                     scripter
     00001277  A$scripter$340                     scripter
     00001278  A$scripter$341                     scripter
     00001279  A$scripter$345                     scripter
     00001279  C$scripter.c$71$1$66               scripter
     0000127C  A$scripter$346                     scripter
     0000127D  A$scripter$347                     scripter
     00001280  A$scripter$348                     scripter
     00001283  A$scripter$349                     scripter
     00001284  A$scripter$350                     scripter
     00001285  A$scripter$351                     scripter
     00001288  A$scripter$352                     scripter
     0000128B  A$scripter$353                     scripter
     0000128C  A$scripter$357                     scripter
     0000128C  C$scripter.c$74$1$66               scripter
     0000128F  A$scripter$361                     scripter
     0000128F  C$scripter.c$75$1$66               scripter
     00001290  A$scripter$362                     scripter
     00001293  A$scripter$363                     scripter
     00001294  A$scripter$364                     scripter
     00001295  A$scripter$365                     scripter
     00001298  A$scripter$366                     scripter
     00001299  A$scripter$370                     scripter
     00001299  C$scripter.c$76$1$66               scripter
     0000129A  A$scripter$371                     scripter
     0000129B  A$scripter$372                     scripter
     0000129C  A$scripter$373                     scripter
     0000129D  A$scripter$374                     scripter
     0000129E  A$scripter$375                     scripter
     000012A1  A$scripter$376                     scripter
     000012A2  A$scripter$377                     scripter
     000012A3  A$scripter$378                     scripter
     000012A6  A$scripter$382                     scripter
     000012A6  C$scripter.c$79$3$68               scripter
     000012A9  A$scripter$383                     scripter
     000012AC  A$scripter$385                     scripter
     000012AF  A$scripter$386                     scripter
     000012B2  A$scripter$387                     scripter
     000012B3  A$scripter$388                     scripter
     000012B6  A$scripter$389                     scripter
     000012B9  A$scripter$390                     scripter
     000012BA  A$scripter$391                     scripter
     000012BD  A$scripter$392                     scripter
     000012BE  A$scripter$393                     scripter
     000012C1  A$scripter$397                     scripter
ASxxxx Linker V03.00 + NoICE + sdld,  page 52.
Hexadecimal  [32-Bits]

Area                                    Addr        Size        Decimal Bytes (Attributes)
--------------------------------        ----        ----        ------- ----- ------------
_CODE                               00000200    00002471 =        9329. bytes (REL,CON)

      Value  Global                              Global Defined In Module
      -----  --------------------------------   ------------------------
     000012C1  C$scripter.c$81$2$67               scripter
     000012C4  A$scripter$398                     scripter
     000012C7  A$scripter$399                     scripter
     000012C8  A$scripter$400                     scripter
     000012C9  A$scripter$401                     scripter
     000012CC  A$scripter$402                     scripter
     000012CF  A$scripter$403                     scripter
     000012D0  A$scripter$404                     scripter
     000012D1  A$scripter$405                     scripter
     000012D4  A$scripter$409                     scripter
     000012D4  C$scripter.c$82$2$67               scripter
     000012D7  A$scripter$410                     scripter
     000012DA  A$scripter$411                     scripter
     000012DB  A$scripter$412                     scripter
     000012DC  A$scripter$413                     scripter
     000012DD  A$scripter$414                     scripter
     000012E0  A$scripter$415                     scripter
     000012E3  A$scripter$416                     scripter
     000012E4  A$scripter$417                     scripter
     000012E5  A$scripter$418                     scripter
     000012E8  A$scripter$422                     scripter
     000012E8  C$scripter.c$83$2$67               scripter
     000012EB  A$scripter$423                     scripter
     000012ED  A$scripter$424                     scripter
     000012EE  A$scripter$425                     scripter
     000012F1  A$scripter$426                     scripter
     000012F3  A$scripter$427                     scripter
     000012F4  A$scripter$428                     scripter
     000012F7  A$scripter$429                     scripter
     000012FA  A$scripter$430                     scripter
     000012FB  A$scripter$431                     scripter
     000012FC  A$scripter$435                     scripter
     000012FC  C$scripter.c$85$2$67               scripter
     000012FF  A$scripter$436                     scripter
     00001302  A$scripter$437                     scripter
     00001303  A$scripter$438                     scripter
     00001304  A$scripter$439                     scripter
     00001307  A$scripter$440                     scripter
     00001308  A$scripter$441                     scripter
     00001309  A$scripter$442                     scripter
     0000130C  A$scripter$443                     scripter
     0000130D  A$scripter$444                     scripter
     0000130E  A$scripter$445                     scripter
     00001310  A$scripter$446                     scripter
     00001311  A$scripter$447                     scripter
     00001314  A$scripter$448                     scripter
     00001315  A$scripter$449                     scripter
     00001316  A$scripter$450                     scripter
     00001318  A$scripter$451                     scripter
     0000131B  A$scripter$452                     scripter
     0000131C  A$scripter$453                     scripter
ASxxxx Linker V03.00 + NoICE + sdld,  page 53.
Hexadecimal  [32-Bits]

Area                                    Addr        Size        Decimal Bytes (Attributes)
--------------------------------        ----        ----        ------- ----- ------------
_CODE                               00000200    00002471 =        9329. bytes (REL,CON)

      Value  Global                              Global Defined In Module
      -----  --------------------------------   ------------------------
     0000131D  A$scripter$454                     scripter
     0000131E  A$scripter$455                     scripter
     0000131F  A$scripter$456                     scripter
     00001320  A$scripter$458                     scripter
     00001323  A$scripter$459                     scripter
     00001326  A$scripter$460                     scripter
     00001329  A$scripter$461                     scripter
     0000132C  A$scripter$462                     scripter
     0000132F  A$scripter$463                     scripter
     00001332  A$scripter$464                     scripter
     00001335  A$scripter$465                     scripter
     00001338  A$scripter$466                     scripter
     0000133B  A$scripter$467                     scripter
     0000133E  A$scripter$468                     scripter
     00001341  A$scripter$476                     scripter
     00001341  C$scripter.c$87$3$68               scripter
     00001341  C$scripter.c$88$3$68               scripter
     00001342  A$scripter$477                     scripter
     00001345  A$scripter$478                     scripter
     00001346  A$scripter$482                     scripter
     00001346  C$scripter.c$89$3$68               scripter
     00001349  A$scripter$490                     scripter
     00001349  C$scripter.c$90$3$68               scripter
     00001349  C$scripter.c$91$3$68               scripter
     0000134C  A$scripter$491                     scripter
     0000134E  A$scripter$492                     scripter
     0000134F  A$scripter$493                     scripter
     00001352  A$scripter$494                     scripter
     00001353  A$scripter$495                     scripter
     00001354  A$scripter$496                     scripter
     00001355  A$scripter$497                     scripter
     00001356  A$scripter$498                     scripter
     00001357  A$scripter$499                     scripter
     0000135A  A$scripter$500                     scripter
     0000135B  A$scripter$501                     scripter
     0000135C  A$scripter$502                     scripter
     0000135F  A$scripter$503                     scripter
     00001360  A$scripter$504                     scripter
     00001361  A$scripter$505                     scripter
     00001362  A$scripter$509                     scripter
     00001362  C$scripter.c$92$3$68               scripter
     00001365  A$scripter$517                     scripter
     00001365  C$scripter.c$93$3$68               scripter
     00001365  C$scripter.c$94$3$68               scripter
     00001368  A$scripter$518                     scripter
     0000136C  A$scripter$519                     scripter
     0000136F  A$scripter$520                     scripter
     00001372  A$scripter$521                     scripter
     00001375  A$scripter$522                     scripter
     00001376  A$scripter$523                     scripter
     00001377  A$scripter$524                     scripter
ASxxxx Linker V03.00 + NoICE + sdld,  page 54.
Hexadecimal  [32-Bits]

Area                                    Addr        Size        Decimal Bytes (Attributes)
--------------------------------        ----        ----        ------- ----- ------------
_CODE                               00000200    00002471 =        9329. bytes (REL,CON)

      Value  Global                              Global Defined In Module
      -----  --------------------------------   ------------------------
     00001378  A$scripter$525                     scripter
     00001379  A$scripter$526                     scripter
     0000137C  A$scripter$527                     scripter
     0000137E  A$scripter$528                     scripter
     0000137F  A$scripter$529                     scripter
     00001380  A$scripter$530                     scripter
     00001381  A$scripter$531                     scripter
     00001382  A$scripter$532                     scripter
     00001383  A$scripter$533                     scripter
     00001384  A$scripter$534                     scripter
     00001387  A$scripter$535                     scripter
     0000138A  A$scripter$536                     scripter
     0000138B  A$scripter$537                     scripter
     0000138E  A$scripter$538                     scripter
     0000138F  A$scripter$539                     scripter
     00001390  A$scripter$540                     scripter
     00001391  A$scripter$541                     scripter
     00001394  A$scripter$542                     scripter
     00001395  A$scripter$543                     scripter
     00001396  A$scripter$544                     scripter
     00001397  A$scripter$545                     scripter
     00001398  A$scripter$549                     scripter
     00001398  C$scripter.c$95$3$68               scripter
     0000139B  A$scripter$557                     scripter
     0000139B  C$scripter.c$96$3$68               scripter
     0000139B  C$scripter.c$97$3$68               scripter
     0000139C  A$scripter$558                     scripter
     0000139F  A$scripter$559                     scripter
     000013A0  A$scripter$560                     scripter
     000013A3  A$scripter$561                     scripter
     000013A4  A$scripter$562                     scripter
     000013A5  A$scripter$563                     scripter
     000013A8  A$scripter$564                     scripter
     000013A9  A$scripter$565                     scripter
     000013AA  A$scripter$566                     scripter
     000013AB  A$scripter$570                     scripter
     000013AB  C$scripter.c$98$3$68               scripter
     000013AE  A$scripter$578                     scripter
     000013AE  C$scripter.c$100$3$68              scripter
     000013AE  C$scripter.c$99$3$68               scripter
     000013AF  A$scripter$579                     scripter
     000013B2  A$scripter$580                     scripter
     000013B5  A$scripter$581                     scripter
     000013B6  A$scripter$582                     scripter
     000013B9  A$scripter$583                     scripter
     000013BA  A$scripter$584                     scripter
     000013BB  A$scripter$588                     scripter
     000013BB  C$scripter.c$101$3$68              scripter
     000013BE  A$scripter$596                     scripter
     000013BE  C$scripter.c$102$3$68              scripter
     000013BE  C$scripter.c$103$3$68              scripter
ASxxxx Linker V03.00 + NoICE + sdld,  page 55.
Hexadecimal  [32-Bits]

Area                                    Addr        Size        Decimal Bytes (Attributes)
--------------------------------        ----        ----        ------- ----- ------------
_CODE                               00000200    00002471 =        9329. bytes (REL,CON)

      Value  Global                              Global Defined In Module
      -----  --------------------------------   ------------------------
     000013BF  A$scripter$597                     scripter
     000013C2  A$scripter$598                     scripter
     000013C3  A$scripter$602                     scripter
     000013C3  C$scripter.c$104$3$68              scripter
     000013C6  A$scripter$610                     scripter
     000013C6  C$scripter.c$105$3$68              scripter
     000013C6  C$scripter.c$106$3$68              scripter
     000013C7  A$scripter$611                     scripter
     000013CA  A$scripter$612                     scripter
     000013CB  A$scripter$616                     scripter
     000013CB  C$scripter.c$107$3$68              scripter
     000013CE  A$scripter$624                     scripter
     000013CE  C$scripter.c$108$3$68              scripter
     000013CE  C$scripter.c$110$3$68              scripter
     000013D1  A$scripter$625                     scripter
     000013D2  A$scripter$626                     scripter
     000013D3  A$scripter$627                     scripter
     000013D4  A$scripter$628                     scripter
     000013D5  A$scripter$629                     scripter
     000013D7  A$scripter$633                     scripter
     000013D7  C$scripter.c$112$4$69              scripter
     000013D8  A$scripter$637                     scripter
     000013D8  C$scripter.c$113$4$69              scripter
     000013D9  A$scripter$638                     scripter
     000013DA  A$scripter$639                     scripter
     000013DB  A$scripter$640                     scripter
     000013DC  A$scripter$641                     scripter
     000013DD  A$scripter$642                     scripter
     000013DE  A$scripter$643                     scripter
     000013E1  A$scripter$644                     scripter
     000013E3  A$scripter$645                     scripter
     000013E4  A$scripter$646                     scripter
     000013E5  A$scripter$647                     scripter
     000013E6  A$scripter$648                     scripter
     000013E7  A$scripter$649                     scripter
     000013E8  A$scripter$650                     scripter
     000013E9  A$scripter$651                     scripter
     000013EA  A$scripter$652                     scripter
     000013EB  A$scripter$653                     scripter
     000013EC  A$scripter$654                     scripter
     000013ED  A$scripter$655                     scripter
     000013EE  A$scripter$656                     scripter
     000013EF  A$scripter$657                     scripter
     000013F0  A$scripter$658                     scripter
     000013F1  A$scripter$659                     scripter
     000013F2  A$scripter$660                     scripter
     000013F3  A$scripter$661                     scripter
     000013F4  A$scripter$665                     scripter
     000013F4  C$scripter.c$114$4$69              scripter
     000013F7  A$scripter$666                     scripter
     000013F8  A$scripter$667                     scripter
ASxxxx Linker V03.00 + NoICE + sdld,  page 56.
Hexadecimal  [32-Bits]

Area                                    Addr        Size        Decimal Bytes (Attributes)
--------------------------------        ----        ----        ------- ----- ------------
_CODE                               00000200    00002471 =        9329. bytes (REL,CON)

      Value  Global                              Global Defined In Module
      -----  --------------------------------   ------------------------
     000013FB  A$scripter$668                     scripter
     000013FE  A$scripter$669                     scripter
     000013FF  A$scripter$673                     scripter
     000013FF  C$scripter.c$115$4$69              scripter
     00001401  A$scripter$678                     scripter
     00001401  C$scripter.c$119$4$70              scripter
     00001402  A$scripter$679                     scripter
     00001403  A$scripter$683                     scripter
     00001403  C$scripter.c$120$4$70              scripter
     00001405  A$scripter$684                     scripter
     00001407  A$scripter$688                     scripter
     00001407  C$scripter.c$122$5$71              scripter
     00001408  A$scripter$689                     scripter
     00001409  A$scripter$690                     scripter
     0000140A  A$scripter$691                     scripter
     0000140B  A$scripter$692                     scripter
     0000140C  A$scripter$693                     scripter
     0000140D  A$scripter$694                     scripter
     00001410  A$scripter$695                     scripter
     00001412  A$scripter$696                     scripter
     00001413  A$scripter$697                     scripter
     00001414  A$scripter$698                     scripter
     00001415  A$scripter$699                     scripter
     00001416  A$scripter$700                     scripter
     00001417  A$scripter$701                     scripter
     00001418  A$scripter$702                     scripter
     00001419  A$scripter$703                     scripter
     0000141A  A$scripter$704                     scripter
     0000141B  A$scripter$705                     scripter
     0000141C  A$scripter$706                     scripter
     0000141D  A$scripter$707                     scripter
     0000141E  A$scripter$708                     scripter
     0000141F  A$scripter$709                     scripter
     00001420  A$scripter$710                     scripter
     00001421  A$scripter$711                     scripter
     00001422  A$scripter$712                     scripter
     00001423  A$scripter$716                     scripter
     00001423  C$scripter.c$123$5$71              scripter
     00001426  A$scripter$717                     scripter
     00001427  A$scripter$718                     scripter
     0000142A  A$scripter$719                     scripter
     0000142D  A$scripter$720                     scripter
     0000142E  A$scripter$724                     scripter
     0000142E  C$scripter.c$124$5$71              scripter
     00001430  A$scripter$732                     scripter
     00001430  C$scripter.c$128$3$68              scripter
     00001430  C$scripter.c$129$3$68              scripter
     00001431  A$scripter$733                     scripter
     00001432  A$scripter$734                     scripter
     00001435  A$scripter$735                     scripter
     00001436  A$scripter$736                     scripter
ASxxxx Linker V03.00 + NoICE + sdld,  page 57.
Hexadecimal  [32-Bits]

Area                                    Addr        Size        Decimal Bytes (Attributes)
--------------------------------        ----        ----        ------- ----- ------------
_CODE                               00000200    00002471 =        9329. bytes (REL,CON)

      Value  Global                              Global Defined In Module
      -----  --------------------------------   ------------------------
     00001439  A$scripter$737                     scripter
     0000143A  A$scripter$738                     scripter
     0000143B  A$scripter$739                     scripter
     0000143E  A$scripter$740                     scripter
     0000143F  A$scripter$741                     scripter
     00001440  A$scripter$742                     scripter
     00001441  A$scripter$746                     scripter
     00001441  C$scripter.c$130$3$68              scripter
     00001443  A$scripter$754                     scripter
     00001443  C$scripter.c$131$3$68              scripter
     00001443  C$scripter.c$132$3$68              scripter
     00001446  A$scripter$755                     scripter
     00001447  A$scripter$756                     scripter
     00001448  A$scripter$757                     scripter
     0000144B  A$scripter$758                     scripter
     0000144C  A$scripter$762                     scripter
     0000144C  C$scripter.c$133$3$68              scripter
     0000144E  A$scripter$770                     scripter
     0000144E  C$scripter.c$135$2$67              scripter
     0000144E  C$scripter.c$136$2$67              scripter
     00001451  A$scripter$771                     scripter
     00001453  A$scripter$772                     scripter
     00001456  A$scripter$773                     scripter
     00001459  A$scripter$774                     scripter
     0000145B  A$scripter$775                     scripter
     0000145E  A$scripter$779                     scripter
     0000145E  C$scripter.c$137$2$67              scripter
     0000145F  A$scripter$780                     scripter
     00001460  A$scripter$781                     scripter
     00001461  A$scripter$782                     scripter
     00001462  A$scripter$783                     scripter
     00001463  A$scripter$784                     scripter
     00001464  A$scripter$785                     scripter
     00001465  A$scripter$786                     scripter
     00001466  A$scripter$787                     scripter
     00001467  A$scripter$788                     scripter
     00001468  A$scripter$789                     scripter
     00001469  A$scripter$790                     scripter
     0000146A  A$scripter$791                     scripter
     0000146B  A$scripter$792                     scripter
     0000146C  A$scripter$793                     scripter
     0000146D  A$scripter$794                     scripter
     00001470  A$scripter$796                     scripter
     00001472  A$scripter$797                     scripter
     00001474  A$scripter$802                     scripter
     00001474  C$scripter.c$139$1$66              scripter
     00001474  XG$UpdateScript$0$0                scripter
     00001475  A$scripter$815                     scripter
     00001475  C$scripter.c$142$1$66              scripter
     00001475  C$scripter.c$147$1$72              scripter
     00001475  G$UpdateScripts$0$0                scripter
ASxxxx Linker V03.00 + NoICE + sdld,  page 58.
Hexadecimal  [32-Bits]

Area                                    Addr        Size        Decimal Bytes (Attributes)
--------------------------------        ----        ----        ------- ----- ------------
_CODE                               00000200    00002471 =        9329. bytes (REL,CON)

      Value  Global                              Global Defined In Module
      -----  --------------------------------   ------------------------
     00001475  _UpdateScripts                     scripter
     00001477  A$scripter$816                     scripter
     00001478  A$scripter$817                     scripter
     00001479  A$scripter$818                     scripter
     0000147C  A$scripter$819                     scripter
     0000147D  A$scripter$823                     scripter
     0000147D  C$scripter.c$150$1$72              scripter
     00001481  A$scripter$824                     scripter
     00001484  A$scripter$825                     scripter
     00001485  A$scripter$826                     scripter
     00001486  A$scripter$830                     scripter
     00001489  A$scripter$831                     scripter
     0000148A  A$scripter$833                     scripter
     0000148C  A$scripter$834                     scripter
     0000148D  A$scripter$838                     scripter
     0000148D  C$scripter.c$153$3$74              scripter
     0000148E  A$scripter$839                     scripter
     0000148F  A$scripter$840                     scripter
     00001490  A$scripter$841                     scripter
     00001493  A$scripter$842                     scripter
     00001494  A$scripter$843                     scripter
     00001495  A$scripter$847                     scripter
     00001495  C$scripter.c$151$2$73              scripter
     00001496  A$scripter$852                     scripter
     00001496  C$scripter.c$155$1$72              scripter
     00001496  XG$UpdateScripts$0$0               scripter
     00001498  A$scroller$65                      scroller
     00001498  C$scroller.c$7$0$0                 scroller
     00001498  C$scroller.c$9$0$0                 scroller
     00001498  G$scroller_foo$0$0                 scroller
     00001498  XG$scroller_foo$0$0                scroller
     00001498  _scroller_foo                      scroller
     00001499  A$scroller$78                      scroller
     00001499  C$scroller.c$11$0$0                scroller
     00001499  C$scroller.c$13$1$20               scroller
     00001499  G$InitScroller$0$0                 scroller
     00001499  _InitScroller                      scroller
     0000149C  A$scroller$79                      scroller
     0000149E  A$scroller$83                      scroller
     0000149E  C$scroller.c$14$1$20               scroller
     000014A1  A$scroller$84                      scroller
     000014A3  A$scroller$88                      scroller
     000014A3  C$scroller.c$15$1$20               scroller
     000014A6  A$scroller$89                      scroller
     000014A8  A$scroller$93                      scroller
     000014A8  C$scroller.c$16$1$20               scroller
     000014AB  A$scroller$94                      scroller
     000014AD  A$scroller$98                      scroller
     000014AD  C$scroller.c$17$1$20               scroller
     000014B0  A$scroller$99                      scroller
     000014B2  A$scroller$103                     scroller
ASxxxx Linker V03.00 + NoICE + sdld,  page 59.
Hexadecimal  [32-Bits]

Area                                    Addr        Size        Decimal Bytes (Attributes)
--------------------------------        ----        ----        ------- ----- ------------
_CODE                               00000200    00002471 =        9329. bytes (REL,CON)

      Value  Global                              Global Defined In Module
      -----  --------------------------------   ------------------------
     000014B2  C$scroller.c$18$1$20               scroller
     000014B5  A$scroller$104                     scroller
     000014B8  A$scroller$109                     scroller
     000014B8  C$scroller.c$19$1$20               scroller
     000014B8  XG$InitScroller$0$0                scroller
     000014B9  A$scroller$122                     scroller
     000014B9  C$scroller.c$21$1$20               scroller
     000014B9  C$scroller.c$23$1$22               scroller
     000014B9  G$AddScrollers$0$0                 scroller
     000014B9  _AddScrollers                      scroller
     000014BC  A$scroller$123                     scroller
     000014BD  A$scroller$124                     scroller
     000014BE  A$scroller$125                     scroller
     000014C1  A$scroller$126                     scroller
     000014C4  A$scroller$127                     scroller
     000014C5  A$scroller$128                     scroller
     000014C6  A$scroller$129                     scroller
     000014C9  A$scroller$133                     scroller
     000014C9  C$scroller.c$24$1$22               scroller
     000014CC  A$scroller$134                     scroller
     000014CD  A$scroller$135                     scroller
     000014CE  A$scroller$136                     scroller
     000014D1  A$scroller$141                     scroller
     000014D1  C$scroller.c$25$1$22               scroller
     000014D1  XG$AddScrollers$0$0                scroller
     000014D2  A$scroller$151                     scroller
     000014D2  C$scroller.c$27$1$22               scroller
     000014D2  G$UpdateScroller$0$0               scroller
     000014D2  _UpdateScroller                    scroller
     000014D4  A$scroller$152                     scroller
     000014D8  A$scroller$153                     scroller
     000014DA  A$scroller$154                     scroller
     000014DB  A$scroller$158                     scroller
     000014DB  C$scroller.c$31$1$23               scroller
     000014DE  A$scroller$159                     scroller
     000014DF  A$scroller$160                     scroller
     000014E2  A$scroller$164                     scroller
     000014E2  C$scroller.c$34$2$24               scroller
     000014E4  A$scroller$165                     scroller
     000014E5  A$scroller$166                     scroller
     000014E6  A$scroller$167                     scroller
     000014E9  A$scroller$168                     scroller
     000014EA  A$scroller$172                     scroller
     000014EA  C$scroller.c$37$2$24               scroller
     000014EE  A$scroller$173                     scroller
     000014F0  A$scroller$174                     scroller
     000014F1  A$scroller$175                     scroller
     000014F2  A$scroller$176                     scroller
     000014F3  A$scroller$177                     scroller
     000014F4  A$scroller$178                     scroller
     000014F5  A$scroller$179                     scroller
ASxxxx Linker V03.00 + NoICE + sdld,  page 60.
Hexadecimal  [32-Bits]

Area                                    Addr        Size        Decimal Bytes (Attributes)
--------------------------------        ----        ----        ------- ----- ------------
_CODE                               00000200    00002471 =        9329. bytes (REL,CON)

      Value  Global                              Global Defined In Module
      -----  --------------------------------   ------------------------
     000014F6  A$scroller$180                     scroller
     000014F7  A$scroller$181                     scroller
     000014F8  A$scroller$182                     scroller
     000014FB  A$scroller$183                     scroller
     000014FC  A$scroller$184                     scroller
     000014FD  A$scroller$185                     scroller
     000014FE  A$scroller$189                     scroller
     000014FE  C$scroller.c$40$2$24               scroller
     00001501  A$scroller$190                     scroller
     00001502  A$scroller$191                     scroller
     00001504  A$scroller$195                     scroller
     00001504  C$scroller.c$42$3$25               scroller
     00001505  A$scroller$196                     scroller
     00001506  A$scroller$197                     scroller
     00001509  A$scroller$198                     scroller
     0000150A  A$scroller$199                     scroller
     0000150B  A$scroller$200                     scroller
     0000150C  A$scroller$201                     scroller
     0000150D  A$scroller$202                     scroller
     00001511  A$scroller$203                     scroller
     00001514  A$scroller$204                     scroller
     00001517  A$scroller$205                     scroller
     00001518  A$scroller$206                     scroller
     00001519  A$scroller$207                     scroller
     0000151A  A$scroller$208                     scroller
     0000151B  A$scroller$209                     scroller
     0000151C  A$scroller$210                     scroller
     0000151D  A$scroller$211                     scroller
     0000151E  A$scroller$212                     scroller
     00001521  A$scroller$213                     scroller
     00001523  A$scroller$215                     scroller
     00001526  A$scroller$216                     scroller
     00001528  A$scroller$217                     scroller
     0000152A  A$scroller$219                     scroller
     0000152B  A$scroller$220                     scroller
     0000152C  A$scroller$221                     scroller
     0000152D  A$scroller$222                     scroller
     0000152E  A$scroller$223                     scroller
     00001531  A$scroller$224                     scroller
     00001533  A$scroller$226                     scroller
     00001536  A$scroller$227                     scroller
     00001538  A$scroller$228                     scroller
     0000153A  A$scroller$230                     scroller
     0000153C  A$scroller$233                     scroller
     0000153F  A$scroller$234                     scroller
     00001540  A$scroller$235                     scroller
     00001541  A$scroller$236                     scroller
     00001542  A$scroller$240                     scroller
     00001542  C$scroller.c$43$3$25               scroller
     00001543  A$scroller$241                     scroller
     00001544  A$scroller$242                     scroller
ASxxxx Linker V03.00 + NoICE + sdld,  page 61.
Hexadecimal  [32-Bits]

Area                                    Addr        Size        Decimal Bytes (Attributes)
--------------------------------        ----        ----        ------- ----- ------------
_CODE                               00000200    00002471 =        9329. bytes (REL,CON)

      Value  Global                              Global Defined In Module
      -----  --------------------------------   ------------------------
     00001547  A$scroller$243                     scroller
     00001548  A$scroller$244                     scroller
     00001549  A$scroller$245                     scroller
     0000154A  A$scroller$246                     scroller
     0000154B  A$scroller$247                     scroller
     0000154F  A$scroller$248                     scroller
     00001552  A$scroller$249                     scroller
     00001555  A$scroller$250                     scroller
     00001556  A$scroller$251                     scroller
     00001557  A$scroller$252                     scroller
     00001558  A$scroller$253                     scroller
     00001559  A$scroller$254                     scroller
     0000155A  A$scroller$255                     scroller
     0000155B  A$scroller$256                     scroller
     0000155C  A$scroller$257                     scroller
     0000155F  A$scroller$258                     scroller
     00001561  A$scroller$260                     scroller
     00001564  A$scroller$261                     scroller
     00001566  A$scroller$262                     scroller
     00001568  A$scroller$264                     scroller
     00001569  A$scroller$265                     scroller
     0000156A  A$scroller$266                     scroller
     0000156B  A$scroller$267                     scroller
     0000156C  A$scroller$268                     scroller
     0000156F  A$scroller$269                     scroller
     00001571  A$scroller$271                     scroller
     00001574  A$scroller$272                     scroller
     00001576  A$scroller$273                     scroller
     00001578  A$scroller$275                     scroller
     0000157A  A$scroller$278                     scroller
     0000157D  A$scroller$279                     scroller
     0000157E  A$scroller$280                     scroller
     0000157F  A$scroller$281                     scroller
     00001580  A$scroller$286                     scroller
     00001580  C$scroller.c$47$2$24               scroller
     00001584  A$scroller$287                     scroller
     00001587  A$scroller$288                     scroller
     0000158A  A$scroller$289                     scroller
     0000158D  A$scroller$290                     scroller
     0000158E  A$scroller$291                     scroller
     0000158F  A$scroller$292                     scroller
     00001592  A$scroller$293                     scroller
     00001596  A$scroller$294                     scroller
     00001599  A$scroller$295                     scroller
     0000159C  A$scroller$296                     scroller
     0000159D  A$scroller$297                     scroller
     000015A0  A$scroller$298                     scroller
     000015A3  A$scroller$299                     scroller
     000015A4  A$scroller$300                     scroller
     000015A5  A$scroller$301                     scroller
     000015A6  A$scroller$302                     scroller
ASxxxx Linker V03.00 + NoICE + sdld,  page 62.
Hexadecimal  [32-Bits]

Area                                    Addr        Size        Decimal Bytes (Attributes)
--------------------------------        ----        ----        ------- ----- ------------
_CODE                               00000200    00002471 =        9329. bytes (REL,CON)

      Value  Global                              Global Defined In Module
      -----  --------------------------------   ------------------------
     000015A7  A$scroller$303                     scroller
     000015A8  A$scroller$304                     scroller
     000015A9  A$scroller$305                     scroller
     000015AA  A$scroller$306                     scroller
     000015AB  A$scroller$307                     scroller
     000015AC  A$scroller$308                     scroller
     000015AD  A$scroller$309                     scroller
     000015AE  A$scroller$310                     scroller
     000015B1  A$scroller$311                     scroller
     000015B3  A$scroller$313                     scroller
     000015B6  A$scroller$317                     scroller
     000015B6  C$scroller.c$49$3$26               scroller
     000015B9  A$scroller$318                     scroller
     000015BA  A$scroller$319                     scroller
     000015BB  A$scroller$320                     scroller
     000015BC  A$scroller$321                     scroller
     000015BD  A$scroller$322                     scroller
     000015C0  A$scroller$323                     scroller
     000015C1  A$scroller$324                     scroller
     000015C2  A$scroller$325                     scroller
     000015C3  A$scroller$326                     scroller
     000015C4  A$scroller$327                     scroller
     000015C5  A$scroller$328                     scroller
     000015C6  A$scroller$329                     scroller
     000015C7  A$scroller$333                     scroller
     000015C7  C$scroller.c$50$3$26               scroller
     000015CA  A$scroller$334                     scroller
     000015CB  A$scroller$335                     scroller
     000015CC  A$scroller$336                     scroller
     000015CD  A$scroller$337                     scroller
     000015CE  A$scroller$338                     scroller
     000015CF  A$scroller$339                     scroller
     000015D0  A$scroller$340                     scroller
     000015D1  A$scroller$344                     scroller
     000015D1  C$scroller.c$52$3$26               scroller
     000015D5  A$scroller$345                     scroller
     000015D8  A$scroller$346                     scroller
     000015DA  A$scroller$347                     scroller
     000015DD  A$scroller$352                     scroller
     000015DD  C$scroller.c$53$3$26               scroller
     000015DE  A$scroller$353                     scroller
     000015DF  A$scroller$354                     scroller
     000015E0  A$scroller$355                     scroller
     000015E1  A$scroller$356                     scroller
     000015E2  A$scroller$357                     scroller
     000015E3  A$scroller$358                     scroller
     000015E4  A$scroller$359                     scroller
     000015E7  A$scroller$360                     scroller
     000015E8  A$scroller$361                     scroller
     000015EA  A$scroller$362                     scroller
     000015ED  A$scroller$363                     scroller
ASxxxx Linker V03.00 + NoICE + sdld,  page 63.
Hexadecimal  [32-Bits]

Area                                    Addr        Size        Decimal Bytes (Attributes)
--------------------------------        ----        ----        ------- ----- ------------
_CODE                               00000200    00002471 =        9329. bytes (REL,CON)

      Value  Global                              Global Defined In Module
      -----  --------------------------------   ------------------------
     000015EE  A$scroller$364                     scroller
     000015F0  A$scroller$368                     scroller
     000015F0  C$scroller.c$55$4$27               scroller
     000015F3  A$scroller$369                     scroller
     000015F6  A$scroller$373                     scroller
     000015F6  C$scroller.c$56$4$27               scroller
     000015FA  A$scroller$374                     scroller
     000015FD  A$scroller$378                     scroller
     000015FD  C$scroller.c$57$4$27               scroller
     00001600  A$scroller$379                     scroller
     00001603  A$scroller$380                     scroller
     00001604  A$scroller$381                     scroller
     00001606  A$scroller$385                     scroller
     00001606  C$scroller.c$58$4$27               scroller
     00001609  A$scroller$386                     scroller
     0000160B  A$scroller$391                     scroller
     0000160B  C$scroller.c$62$2$24               scroller
     0000160C  A$scroller$392                     scroller
     0000160F  A$scroller$393                     scroller
     00001610  A$scroller$394                     scroller
     00001612  A$scroller$395                     scroller
     00001615  A$scroller$396                     scroller
     00001616  A$scroller$397                     scroller
     0000161A  A$scroller$398                     scroller
     0000161D  A$scroller$399                     scroller
     00001620  A$scroller$400                     scroller
     00001621  A$scroller$401                     scroller
     00001622  A$scroller$402                     scroller
     00001623  A$scroller$403                     scroller
     00001624  A$scroller$404                     scroller
     00001625  A$scroller$405                     scroller
     00001628  A$scroller$406                     scroller
     00001629  A$scroller$407                     scroller
     0000162A  A$scroller$409                     scroller
     0000162C  A$scroller$410                     scroller
     0000162E  A$scroller$415                     scroller
     0000162E  C$scroller.c$64$1$23               scroller
     0000162E  XG$UpdateScroller$0$0              scroller
     0000162F  A$scroller$428                     scroller
     0000162F  C$scroller.c$66$1$23               scroller
     0000162F  C$scroller.c$68$1$28               scroller
     0000162F  G$updatescrollact$0$0              scroller
     0000162F  _updatescrollact                   scroller
     00001632  A$scroller$429                     scroller
     00001633  A$scroller$433                     scroller
     00001633  C$scroller.c$69$1$28               scroller
     00001636  A$scroller$434                     scroller
     00001639  A$scroller$439                     scroller
     00001639  C$scroller.c$70$1$28               scroller
     00001639  XG$updatescrollact$0$0             scroller
     0000163A  A$selectorstage$59                 selectorstage
ASxxxx Linker V03.00 + NoICE + sdld,  page 64.
Hexadecimal  [32-Bits]

Area                                    Addr        Size        Decimal Bytes (Attributes)
--------------------------------        ----        ----        ------- ----- ------------
_CODE                               00000200    00002471 =        9329. bytes (REL,CON)

      Value  Global                              Global Defined In Module
      -----  --------------------------------   ------------------------
     0000163A  C$selectorstage.c$3$0$0            selectorstage
     0000163A  C$selectorstage.c$5$0$0            selectorstage
     0000163A  G$selectorstage_foo$0$0            selectorstage
     0000163A  XG$selectorstage_foo$0$0           selectorstage
     0000163A  _selectorstage_foo                 selectorstage
     0000163B  A$skullbone$59                     skullbone
     0000163B  C$skullbone.c$3$0$0                skullbone
     0000163B  C$skullbone.c$5$0$0                skullbone
     0000163B  G$skullbone_foo$0$0                skullbone
     0000163B  XG$skullbone_foo$0$0               skullbone
     0000163B  _skullbone_foo                     skullbone
     0000163C  A$spreadship$59                    spreadship
     0000163C  C$spreadship.c$3$0$0               spreadship
     0000163C  C$spreadship.c$5$0$0               spreadship
     0000163C  G$spreadship_foo$0$0               spreadship
     0000163C  XG$spreadship_foo$0$0              spreadship
     0000163C  _spreadship_foo                    spreadship
     0000163D  A$timeredlabel$69                  timeredlabel
     0000163D  C$timeredlabel.c$7$0$0             timeredlabel
     0000163D  C$timeredlabel.c$9$0$0             timeredlabel
     0000163D  G$timeredlabel_foo$0$0             timeredlabel
     0000163D  XG$timeredlabel_foo$0$0            timeredlabel
     0000163D  _timeredlabel_foo                  timeredlabel
     0000163E  A$timeredlabel$82                  timeredlabel
     0000163E  C$timeredlabel.c$11$0$0            timeredlabel
     0000163E  C$timeredlabel.c$16$1$68           timeredlabel
     0000163E  G$ClearTimeredLabelLine$0$0        timeredlabel
     0000163E  _ClearTimeredLabelLine             timeredlabel
     00001641  A$timeredlabel$83                  timeredlabel
     00001642  A$timeredlabel$84                  timeredlabel
     00001643  A$timeredlabel$85                  timeredlabel
     00001644  A$timeredlabel$86                  timeredlabel
     00001645  A$timeredlabel$87                  timeredlabel
     00001646  A$timeredlabel$88                  timeredlabel
     00001647  A$timeredlabel$89                  timeredlabel
     00001648  A$timeredlabel$90                  timeredlabel
     0000164B  A$timeredlabel$91                  timeredlabel
     0000164C  A$timeredlabel$95                  timeredlabel
     0000164E  A$timeredlabel$100                 timeredlabel
     0000164E  C$timeredlabel.c$18$2$69           timeredlabel
     0000164F  A$timeredlabel$101                 timeredlabel
     00001650  A$timeredlabel$102                 timeredlabel
     00001651  A$timeredlabel$103                 timeredlabel
     00001652  A$timeredlabel$104                 timeredlabel
     00001655  A$timeredlabel$105                 timeredlabel
     00001656  A$timeredlabel$106                 timeredlabel
     00001657  A$timeredlabel$110                 timeredlabel
     00001657  C$timeredlabel.c$17$2$69           timeredlabel
     00001658  A$timeredlabel$111                 timeredlabel
     00001659  A$timeredlabel$112                 timeredlabel
     0000165B  A$timeredlabel$113                 timeredlabel
ASxxxx Linker V03.00 + NoICE + sdld,  page 65.
Hexadecimal  [32-Bits]

Area                                    Addr        Size        Decimal Bytes (Attributes)
--------------------------------        ----        ----        ------- ----- ------------
_CODE                               00000200    00002471 =        9329. bytes (REL,CON)

      Value  Global                              Global Defined In Module
      -----  --------------------------------   ------------------------
     0000165D  A$timeredlabel$118                 timeredlabel
     0000165D  C$timeredlabel.c$19$2$69           timeredlabel
     0000165D  XG$ClearTimeredLabelLine$0$0       timeredlabel
     0000165E  A$timeredlabel$128                 timeredlabel
     0000165E  C$timeredlabel.c$22$2$69           timeredlabel
     0000165E  G$RemoveTimeredLabel$0$0           timeredlabel
     0000165E  _RemoveTimeredLabel                timeredlabel
     00001660  A$timeredlabel$129                 timeredlabel
     00001664  A$timeredlabel$130                 timeredlabel
     00001666  A$timeredlabel$134                 timeredlabel
     00001666  C$timeredlabel.c$27$1$71           timeredlabel
     00001669  A$timeredlabel$135                 timeredlabel
     0000166C  A$timeredlabel$136                 timeredlabel
     0000166D  A$timeredlabel$137                 timeredlabel
     0000166E  A$timeredlabel$138                 timeredlabel
     0000166F  A$timeredlabel$139                 timeredlabel
     00001670  A$timeredlabel$140                 timeredlabel
     00001671  A$timeredlabel$141                 timeredlabel
     00001672  A$timeredlabel$142                 timeredlabel
     00001675  A$timeredlabel$143                 timeredlabel
     00001676  A$timeredlabel$144                 timeredlabel
     00001677  A$timeredlabel$145                 timeredlabel
     00001678  A$timeredlabel$149                 timeredlabel
     00001678  C$timeredlabel.c$30$1$71           timeredlabel
     00001679  A$timeredlabel$150                 timeredlabel
     0000167A  A$timeredlabel$151                 timeredlabel
     0000167B  A$timeredlabel$152                 timeredlabel
     0000167C  A$timeredlabel$153                 timeredlabel
     0000167D  A$timeredlabel$154                 timeredlabel
     0000167E  A$timeredlabel$155                 timeredlabel
     00001681  A$timeredlabel$156                 timeredlabel
     00001682  A$timeredlabel$157                 timeredlabel
     00001683  A$timeredlabel$158                 timeredlabel
     00001684  A$timeredlabel$162                 timeredlabel
     00001684  C$timeredlabel.c$33$1$71           timeredlabel
     00001688  A$timeredlabel$163                 timeredlabel
     0000168B  A$timeredlabel$164                 timeredlabel
     0000168D  A$timeredlabel$165                 timeredlabel
     0000168E  A$timeredlabel$166                 timeredlabel
     0000168F  A$timeredlabel$167                 timeredlabel
     00001690  A$timeredlabel$168                 timeredlabel
     00001691  A$timeredlabel$169                 timeredlabel
     00001692  A$timeredlabel$170                 timeredlabel
     00001695  A$timeredlabel$171                 timeredlabel
     00001697  A$timeredlabel$173                 timeredlabel
     0000169A  A$timeredlabel$177                 timeredlabel
     0000169A  C$timeredlabel.c$36$2$72           timeredlabel
     0000169D  A$timeredlabel$178                 timeredlabel
     0000169E  A$timeredlabel$179                 timeredlabel
     0000169F  A$timeredlabel$180                 timeredlabel
     000016A0  A$timeredlabel$181                 timeredlabel
ASxxxx Linker V03.00 + NoICE + sdld,  page 66.
Hexadecimal  [32-Bits]

Area                                    Addr        Size        Decimal Bytes (Attributes)
--------------------------------        ----        ----        ------- ----- ------------
_CODE                               00000200    00002471 =        9329. bytes (REL,CON)

      Value  Global                              Global Defined In Module
      -----  --------------------------------   ------------------------
     000016A2  A$timeredlabel$182                 timeredlabel
     000016A3  A$timeredlabel$183                 timeredlabel
     000016A6  A$timeredlabel$184                 timeredlabel
     000016A7  A$timeredlabel$185                 timeredlabel
     000016A8  A$timeredlabel$189                 timeredlabel
     000016A8  C$timeredlabel.c$38$2$72           timeredlabel
     000016A9  A$timeredlabel$190                 timeredlabel
     000016AA  A$timeredlabel$194                 timeredlabel
     000016AA  C$timeredlabel.c$39$2$72           timeredlabel
     000016AB  A$timeredlabel$195                 timeredlabel
     000016AC  A$timeredlabel$196                 timeredlabel
     000016AD  A$timeredlabel$197                 timeredlabel
     000016AE  A$timeredlabel$198                 timeredlabel
     000016AF  A$timeredlabel$203                 timeredlabel
     000016AF  C$timeredlabel.c$42$1$71           timeredlabel
     000016B2  A$timeredlabel$204                 timeredlabel
     000016B3  A$timeredlabel$205                 timeredlabel
     000016B5  A$timeredlabel$210                 timeredlabel
     000016B5  C$timeredlabel.c$43$1$71           timeredlabel
     000016B5  XG$RemoveTimeredLabel$0$0          timeredlabel
     000016B6  A$timeredlabel$220                 timeredlabel
     000016B6  C$timeredlabel.c$46$1$71           timeredlabel
     000016B6  G$UpdateTimeredLabel$0$0           timeredlabel
     000016B6  _UpdateTimeredLabel                timeredlabel
     000016B8  A$timeredlabel$221                 timeredlabel
     000016BC  A$timeredlabel$222                 timeredlabel
     000016BE  A$timeredlabel$226                 timeredlabel
     000016BE  C$timeredlabel.c$50$1$74           timeredlabel
     000016C1  A$timeredlabel$227                 timeredlabel
     000016C4  A$timeredlabel$228                 timeredlabel
     000016C5  A$timeredlabel$229                 timeredlabel
     000016C6  A$timeredlabel$230                 timeredlabel
     000016C7  A$timeredlabel$231                 timeredlabel
     000016C8  A$timeredlabel$232                 timeredlabel
     000016CB  A$timeredlabel$233                 timeredlabel
     000016CC  A$timeredlabel$237                 timeredlabel
     000016CC  C$timeredlabel.c$52$1$74           timeredlabel
     000016CD  A$timeredlabel$238                 timeredlabel
     000016CE  A$timeredlabel$239                 timeredlabel
     000016CF  A$timeredlabel$240                 timeredlabel
     000016D0  A$timeredlabel$244                 timeredlabel
     000016D0  C$timeredlabel.c$53$1$74           timeredlabel
     000016D1  A$timeredlabel$245                 timeredlabel
     000016D2  A$timeredlabel$246                 timeredlabel
     000016D4  A$timeredlabel$250                 timeredlabel
     000016D4  C$timeredlabel.c$54$1$74           timeredlabel
     000016D7  A$timeredlabel$251                 timeredlabel
     000016D8  A$timeredlabel$252                 timeredlabel
     000016D9  A$timeredlabel$253                 timeredlabel
     000016DC  A$timeredlabel$254                 timeredlabel
     000016DD  A$timeredlabel$256                 timeredlabel
ASxxxx Linker V03.00 + NoICE + sdld,  page 67.
Hexadecimal  [32-Bits]

Area                                    Addr        Size        Decimal Bytes (Attributes)
--------------------------------        ----        ----        ------- ----- ------------
_CODE                               00000200    00002471 =        9329. bytes (REL,CON)

      Value  Global                              Global Defined In Module
      -----  --------------------------------   ------------------------
     000016DF  A$timeredlabel$261                 timeredlabel
     000016DF  C$timeredlabel.c$55$1$74           timeredlabel
     000016DF  XG$UpdateTimeredLabel$0$0          timeredlabel
     000016E0  A$timeredlabel$274                 timeredlabel
     000016E0  C$timeredlabel.c$58$1$74           timeredlabel
     000016E0  C$timeredlabel.c$61$1$75           timeredlabel
     000016E0  G$UpdateTimeredLabels$0$0          timeredlabel
     000016E0  _UpdateTimeredLabels               timeredlabel
     000016E4  A$timeredlabel$275                 timeredlabel
     000016E7  A$timeredlabel$276                 timeredlabel
     000016E8  A$timeredlabel$277                 timeredlabel
     000016E9  A$timeredlabel$281                 timeredlabel
     000016EC  A$timeredlabel$282                 timeredlabel
     000016ED  A$timeredlabel$284                 timeredlabel
     000016EF  A$timeredlabel$285                 timeredlabel
     000016F0  A$timeredlabel$289                 timeredlabel
     000016F0  C$timeredlabel.c$63$2$76           timeredlabel
     000016F1  A$timeredlabel$290                 timeredlabel
     000016F2  A$timeredlabel$291                 timeredlabel
     000016F3  A$timeredlabel$292                 timeredlabel
     000016F6  A$timeredlabel$293                 timeredlabel
     000016F7  A$timeredlabel$294                 timeredlabel
     000016F8  A$timeredlabel$298                 timeredlabel
     000016F8  C$timeredlabel.c$62$2$76           timeredlabel
     000016F9  A$timeredlabel$303                 timeredlabel
     000016F9  C$timeredlabel.c$64$1$75           timeredlabel
     000016F9  XG$UpdateTimeredLabels$0$0         timeredlabel
     000016FB  A$timeredlabel$313                 timeredlabel
     000016FB  C$timeredlabel.c$66$1$75           timeredlabel
     000016FB  G$InitTimeredLabel$0$0             timeredlabel
     000016FB  _InitTimeredLabel                  timeredlabel
     000016FD  A$timeredlabel$314                 timeredlabel
     00001701  A$timeredlabel$315                 timeredlabel
     00001703  A$timeredlabel$319                 timeredlabel
     00001703  C$timeredlabel.c$70$1$78           timeredlabel
     00001707  A$timeredlabel$320                 timeredlabel
     0000170A  A$timeredlabel$321                 timeredlabel
     0000170C  A$timeredlabel$322                 timeredlabel
     0000170E  A$timeredlabel$326                 timeredlabel
     0000170E  C$timeredlabel.c$73$2$79           timeredlabel
     00001711  A$timeredlabel$327                 timeredlabel
     00001714  A$timeredlabel$328                 timeredlabel
     00001716  A$timeredlabel$329                 timeredlabel
     00001717  A$timeredlabel$330                 timeredlabel
     00001718  A$timeredlabel$334                 timeredlabel
     00001718  C$timeredlabel.c$76$2$79           timeredlabel
     0000171B  A$timeredlabel$335                 timeredlabel
     0000171C  A$timeredlabel$339                 timeredlabel
     0000171C  C$timeredlabel.c$77$2$79           timeredlabel
     0000171D  A$timeredlabel$340                 timeredlabel
     00001720  A$timeredlabel$341                 timeredlabel
ASxxxx Linker V03.00 + NoICE + sdld,  page 68.
Hexadecimal  [32-Bits]

Area                                    Addr        Size        Decimal Bytes (Attributes)
--------------------------------        ----        ----        ------- ----- ------------
_CODE                               00000200    00002471 =        9329. bytes (REL,CON)

      Value  Global                              Global Defined In Module
      -----  --------------------------------   ------------------------
     00001721  A$timeredlabel$345                 timeredlabel
     00001721  C$timeredlabel.c$80$2$79           timeredlabel
     00001724  A$timeredlabel$349                 timeredlabel
     00001724  C$timeredlabel.c$83$2$79           timeredlabel
     00001727  A$timeredlabel$350                 timeredlabel
     00001728  A$timeredlabel$351                 timeredlabel
     00001729  A$timeredlabel$352                 timeredlabel
     0000172C  A$timeredlabel$353                 timeredlabel
     0000172D  A$timeredlabel$357                 timeredlabel
     0000172D  C$timeredlabel.c$86$2$79           timeredlabel
     00001730  A$timeredlabel$358                 timeredlabel
     00001733  A$timeredlabel$359                 timeredlabel
     00001734  A$timeredlabel$360                 timeredlabel
     00001737  A$timeredlabel$361                 timeredlabel
     00001738  A$timeredlabel$362                 timeredlabel
     0000173A  A$timeredlabel$363                 timeredlabel
     0000173C  A$timeredlabel$364                 timeredlabel
     0000173D  A$timeredlabel$365                 timeredlabel
     0000173E  A$timeredlabel$366                 timeredlabel
     00001741  A$timeredlabel$367                 timeredlabel
     00001742  A$timeredlabel$368                 timeredlabel
     00001743  A$timeredlabel$369                 timeredlabel
     00001744  A$timeredlabel$370                 timeredlabel
     00001745  A$timeredlabel$371                 timeredlabel
     00001748  A$timeredlabel$372                 timeredlabel
     0000174B  A$timeredlabel$373                 timeredlabel
     0000174C  A$timeredlabel$374                 timeredlabel
     0000174F  A$timeredlabel$375                 timeredlabel
     00001750  A$timeredlabel$376                 timeredlabel
     00001751  A$timeredlabel$378                 timeredlabel
     00001753  A$timeredlabel$383                 timeredlabel
     00001753  C$timeredlabel.c$88$1$78           timeredlabel
     00001753  XG$InitTimeredLabel$0$0            timeredlabel
     00001754  A$timeredlabel$396                 timeredlabel
     00001754  C$timeredlabel.c$91$1$78           timeredlabel
     00001754  C$timeredlabel.c$93$1$80           timeredlabel
     00001754  G$InitTimeredLabels$0$0            timeredlabel
     00001754  _InitTimeredLabels                 timeredlabel
     00001757  A$timeredlabel$397                 timeredlabel
     00001759  A$timeredlabel$402                 timeredlabel
     00001759  C$timeredlabel.c$94$1$80           timeredlabel
     00001759  XG$InitTimeredLabels$0$0           timeredlabel
     0000175A  A$turnship$59                      turnship
     0000175A  C$turnship.c$3$0$0                 turnship
     0000175A  C$turnship.c$5$0$0                 turnship
     0000175A  G$turnship_foo$0$0                 turnship
     0000175A  XG$turnship_foo$0$0                turnship
     0000175A  _turnship_foo                      turnship
     0000175B  A$warning$58                       warning
     0000175B  C$warning.c$10$0$0                 warning
     0000175B  C$warning.c$12$1$46                warning
ASxxxx Linker V03.00 + NoICE + sdld,  page 69.
Hexadecimal  [32-Bits]

Area                                    Addr        Size        Decimal Bytes (Attributes)
--------------------------------        ----        ----        ------- ----- ------------
_CODE                               00000200    00002471 =        9329. bytes (REL,CON)

      Value  Global                              Global Defined In Module
      -----  --------------------------------   ------------------------
     0000175B  G$InitWarning$0$0                  warning
     0000175B  _InitWarning                       warning
     0000175C  A$warning$59                       warning
     0000175D  A$warning$60                       warning
     0000175E  A$warning$61                       warning
     0000175F  A$warning$62                       warning
     00001760  A$warning$63                       warning
     00001761  A$warning$64                       warning
     00001762  A$warning$65                       warning
     00001763  A$warning$66                       warning
     00001764  A$warning$70                       warning
     00001764  C$warning.c$13$1$46                warning
     00001767  A$warning$71                       warning
     00001768  A$warning$72                       warning
     0000176B  A$warning$73                       warning
     0000176C  A$warning$74                       warning
     0000176F  A$warning$75                       warning
     00001770  A$warning$76                       warning
     00001771  A$warning$81                       warning
     00001771  C$warning.c$14$1$46                warning
     00001771  XG$InitWarning$0$0                 warning
     00001772  A$warning$91                       warning
     00001772  C$warning.c$16$1$46                warning
     00001772  G$UpdateWarning$0$0                warning
     00001772  _UpdateWarning                     warning
     00001774  A$warning$92                       warning
     00001778  A$warning$93                       warning
     0000177A  A$warning$97                       warning
     0000177A  C$warning.c$21$1$48                warning
     0000177D  A$warning$98                       warning
     00001780  A$warning$99                       warning
     00001781  A$warning$100                      warning
     00001782  A$warning$101                      warning
     00001783  A$warning$102                      warning
     00001784  A$warning$103                      warning
     00001785  A$warning$104                      warning
     00001786  A$warning$105                      warning
     00001788  A$warning$106                      warning
     0000178A  A$warning$110                      warning
     0000178A  C$warning.c$23$2$49                warning
     0000178B  A$warning$111                      warning
     0000178C  A$warning$112                      warning
     0000178E  A$warning$116                      warning
     0000178E  C$warning.c$25$3$50                warning
     00001791  A$warning$117                      warning
     00001793  A$warning$118                      warning
     00001795  A$warning$122                      warning
     00001795  C$warning.c$26$3$50                warning
     00001796  A$warning$123                      warning
     00001799  A$warning$124                      warning
     0000179A  A$warning$125                      warning
ASxxxx Linker V03.00 + NoICE + sdld,  page 70.
Hexadecimal  [32-Bits]

Area                                    Addr        Size        Decimal Bytes (Attributes)
--------------------------------        ----        ----        ------- ----- ------------
_CODE                               00000200    00002471 =        9329. bytes (REL,CON)

      Value  Global                              Global Defined In Module
      -----  --------------------------------   ------------------------
     0000179D  A$warning$126                      warning
     0000179E  A$warning$127                      warning
     000017A1  A$warning$128                      warning
     000017A2  A$warning$129                      warning
     000017A3  A$warning$130                      warning
     000017A4  A$warning$131                      warning
     000017A6  A$warning$136                      warning
     000017A6  C$warning.c$28$3$50                warning
     000017A7  A$warning$137                      warning
     000017AA  A$warning$138                      warning
     000017AB  A$warning$139                      warning
     000017AE  A$warning$140                      warning
     000017AF  A$warning$141                      warning
     000017B2  A$warning$142                      warning
     000017B3  A$warning$143                      warning
     000017B4  A$warning$144                      warning
     000017B5  A$warning$149                      warning
     000017B5  C$warning.c$30$2$49                warning
     000017B6  A$warning$150                      warning
     000017B8  A$warning$151                      warning
     000017BA  A$warning$155                      warning
     000017BA  C$warning.c$31$2$49                warning
     000017BD  A$warning$156                      warning
     000017BE  A$warning$157                      warning
     000017C1  A$warning$158                      warning
     000017C2  A$warning$159                      warning
     000017C5  A$warning$160                      warning
     000017C6  A$warning$161                      warning
     000017C7  A$warning$166                      warning
     000017C7  C$warning.c$32$2$49                warning
     000017C9  A$warning$167                      warning
     000017CB  A$warning$172                      warning
     000017CB  C$warning.c$35$1$48                warning
     000017CD  A$warning$173                      warning
     000017CF  A$warning$177                      warning
     000017CF  C$warning.c$37$2$51                warning
     000017D0  A$warning$178                      warning
     000017D1  A$warning$179                      warning
     000017D2  A$warning$180                      warning
     000017D3  A$warning$181                      warning
     000017D5  A$warning$182                      warning
     000017D6  A$warning$183                      warning
     000017D8  A$warning$187                      warning
     000017D8  C$warning.c$39$3$52                warning
     000017DB  A$warning$191                      warning
     000017DD  A$warning$196                      warning
     000017DD  C$warning.c$41$1$48                warning
     000017DE  A$warning$197                      warning
     000017E0  A$warning$198                      warning
     000017E1  A$warning$199                      warning
     000017E3  A$warning$204                      warning
ASxxxx Linker V03.00 + NoICE + sdld,  page 71.
Hexadecimal  [32-Bits]

Area                                    Addr        Size        Decimal Bytes (Attributes)
--------------------------------        ----        ----        ------- ----- ------------
_CODE                               00000200    00002471 =        9329. bytes (REL,CON)

      Value  Global                              Global Defined In Module
      -----  --------------------------------   ------------------------
     000017E3  C$warning.c$42$5$54                warning
     000017E4  A$warning$205                      warning
     000017E6  A$warning$206                      warning
     000017E7  A$warning$207                      warning
     000017E8  A$warning$208                      warning
     000017EA  A$warning$209                      warning
     000017EB  A$warning$210                      warning
     000017EC  A$warning$211                      warning
     000017ED  A$warning$212                      warning
     000017EE  A$warning$213                      warning
     000017F0  A$warning$214                      warning
     000017F1  A$warning$215                      warning
     000017F2  A$warning$216                      warning
     000017F5  A$warning$217                      warning
     000017F6  A$warning$218                      warning
     000017F7  A$warning$219                      warning
     000017F8  A$warning$220                      warning
     000017F9  A$warning$221                      warning
     000017FA  A$warning$225                      warning
     000017FA  C$warning.c$41$5$54                warning
     000017FB  A$warning$226                      warning
     000017FD  A$warning$227                      warning
     000017FE  A$warning$228                      warning
     00001800  A$warning$229                      warning
     00001802  A$warning$233                      warning
     00001802  C$warning.c$40$1$48                warning
     00001803  A$warning$234                      warning
     00001805  A$warning$235                      warning
     00001806  A$warning$236                      warning
     00001808  A$warning$237                      warning
     0000180A  A$warning$242                      warning
     0000180A  C$warning.c$46$1$48                warning
     0000180C  A$warning$244                      warning
     0000180E  A$warning$249                      warning
     0000180E  C$warning.c$47$1$48                warning
     0000180E  XG$UpdateWarning$0$0               warning
     0000180F  A$waveship$59                      waveship
     0000180F  C$waveship.c$3$0$0                 waveship
     0000180F  C$waveship.c$5$0$0                 waveship
     0000180F  G$waveship_foo$0$0                 waveship
     0000180F  XG$waveship_foo$0$0                waveship
     0000180F  _waveship_foo                      waveship
     00001810  A$intro1stage$64                   intro1stage
     00001810  C$intro1stage.c$11$0$0             intro1stage
     00001810  C$intro1stage.c$9$0$0              intro1stage
     00001810  G$intro1stage_foo$0$0              intro1stage
     00001810  XG$intro1stage_foo$0$0             intro1stage
     00001810  _intro1stage_foo                   intro1stage
     00001811  A$intro1stage$77                   intro1stage
     00001811  C$intro1stage.c$13$0$0             intro1stage
     00001811  C$intro1stage.c$16$1$21            intro1stage
ASxxxx Linker V03.00 + NoICE + sdld,  page 72.
Hexadecimal  [32-Bits]

Area                                    Addr        Size        Decimal Bytes (Attributes)
--------------------------------        ----        ----        ------- ----- ------------
_CODE                               00000200    00002471 =        9329. bytes (REL,CON)

      Value  Global                              Global Defined In Module
      -----  --------------------------------   ------------------------
     00001811  G$InitIntro1Stage$0$0              intro1stage
     00001811  _InitIntro1Stage                   intro1stage
     00001813  A$intro1stage$78                   intro1stage
     00001814  A$intro1stage$79                   intro1stage
     00001815  A$intro1stage$80                   intro1stage
     00001818  A$intro1stage$81                   intro1stage
     00001819  A$intro1stage$82                   intro1stage
     0000181C  A$intro1stage$83                   intro1stage
     0000181D  A$intro1stage$84                   intro1stage
     00001820  A$intro1stage$85                   intro1stage
     00001821  A$intro1stage$86                   intro1stage
     00001824  A$intro1stage$87                   intro1stage
     00001827  A$intro1stage$88                   intro1stage
     00001828  A$intro1stage$89                   intro1stage
     00001829  A$intro1stage$93                   intro1stage
     00001829  C$intro1stage.c$19$1$21            intro1stage
     0000182B  A$intro1stage$94                   intro1stage
     0000182C  A$intro1stage$95                   intro1stage
     0000182D  A$intro1stage$96                   intro1stage
     00001830  A$intro1stage$97                   intro1stage
     00001831  A$intro1stage$98                   intro1stage
     00001834  A$intro1stage$99                   intro1stage
     00001835  A$intro1stage$100                  intro1stage
     00001838  A$intro1stage$101                  intro1stage
     00001839  A$intro1stage$105                  intro1stage
     00001839  C$intro1stage.c$22$1$21            intro1stage
     0000183A  A$intro1stage$106                  intro1stage
     0000183D  A$intro1stage$107                  intro1stage
     0000183E  A$intro1stage$108                  intro1stage
     00001841  A$intro1stage$109                  intro1stage
     00001842  A$intro1stage$110                  intro1stage
     00001845  A$intro1stage$111                  intro1stage
     00001846  A$intro1stage$115                  intro1stage
     00001846  C$intro1stage.c$25$1$21            intro1stage
     00001849  A$intro1stage$116                  intro1stage
     0000184A  A$intro1stage$117                  intro1stage
     0000184D  A$intro1stage$118                  intro1stage
     0000184E  A$intro1stage$119                  intro1stage
     00001851  A$intro1stage$120                  intro1stage
     00001852  A$intro1stage$121                  intro1stage
     00001853  A$intro1stage$126                  intro1stage
     00001853  C$intro1stage.c$26$1$21            intro1stage
     00001853  XG$InitIntro1Stage$0$0             intro1stage
     00001854  A$intro2stage$61                   intro2stage
     00001854  C$intro2stage.c$10$0$0             intro2stage
     00001854  C$intro2stage.c$13$1$20            intro2stage
     00001854  G$DoIntro2Scroll$0$0               intro2stage
     00001854  _DoIntro2Scroll                    intro2stage
     00001857  A$intro2stage$62                   intro2stage
     00001858  A$intro2stage$63                   intro2stage
     00001859  A$intro2stage$67                   intro2stage
ASxxxx Linker V03.00 + NoICE + sdld,  page 73.
Hexadecimal  [32-Bits]

Area                                    Addr        Size        Decimal Bytes (Attributes)
--------------------------------        ----        ----        ------- ----- ------------
_CODE                               00000200    00002471 =        9329. bytes (REL,CON)

      Value  Global                              Global Defined In Module
      -----  --------------------------------   ------------------------
     00001859  C$intro2stage.c$15$2$21            intro2stage
     0000185C  A$intro2stage$68                   intro2stage
     0000185F  A$intro2stage$69                   intro2stage
     00001862  A$intro2stage$70                   intro2stage
     00001866  A$intro2stage$71                   intro2stage
     00001869  A$intro2stage$72                   intro2stage
     0000186D  A$intro2stage$73                   intro2stage
     00001871  A$intro2stage$74                   intro2stage
     00001875  A$intro2stage$75                   intro2stage
     00001879  A$intro2stage$76                   intro2stage
     0000187D  A$intro2stage$77                   intro2stage
     00001881  A$intro2stage$81                   intro2stage
     00001881  C$intro2stage.c$16$2$21            intro2stage
     00001883  A$intro2stage$82                   intro2stage
     00001886  A$intro2stage$83                   intro2stage
     00001888  A$intro2stage$84                   intro2stage
     0000188B  A$intro2stage$85                   intro2stage
     0000188E  A$intro2stage$86                   intro2stage
     00001890  A$intro2stage$88                   intro2stage
     00001893  A$intro2stage$89                   intro2stage
     00001896  A$intro2stage$90                   intro2stage
     00001899  A$intro2stage$95                   intro2stage
     00001899  C$intro2stage.c$17$2$21            intro2stage
     0000189C  A$intro2stage$96                   intro2stage
     0000189D  A$intro2stage$97                   intro2stage
     000018A1  A$intro2stage$98                   intro2stage
     000018A3  A$intro2stage$99                   intro2stage
     000018A4  A$intro2stage$100                  intro2stage
     000018A5  A$intro2stage$101                  intro2stage
     000018A6  A$intro2stage$102                  intro2stage
     000018A7  A$intro2stage$103                  intro2stage
     000018A8  A$intro2stage$104                  intro2stage
     000018A9  A$intro2stage$105                  intro2stage
     000018AA  A$intro2stage$106                  intro2stage
     000018AB  A$intro2stage$107                  intro2stage
     000018AC  A$intro2stage$108                  intro2stage
     000018AD  A$intro2stage$112                  intro2stage
     000018AD  C$intro2stage.c$18$2$21            intro2stage
     000018AE  A$intro2stage$113                  intro2stage
     000018B1  A$intro2stage$114                  intro2stage
     000018B2  A$intro2stage$115                  intro2stage
     000018B4  A$intro2stage$116                  intro2stage
     000018B7  A$intro2stage$117                  intro2stage
     000018B8  A$intro2stage$118                  intro2stage
     000018BA  A$intro2stage$119                  intro2stage
     000018BC  A$intro2stage$120                  intro2stage
     000018BE  A$intro2stage$121                  intro2stage
     000018C0  A$intro2stage$122                  intro2stage
     000018C3  A$intro2stage$123                  intro2stage
     000018C4  A$intro2stage$124                  intro2stage
     000018C5  A$intro2stage$125                  intro2stage
ASxxxx Linker V03.00 + NoICE + sdld,  page 74.
Hexadecimal  [32-Bits]

Area                                    Addr        Size        Decimal Bytes (Attributes)
--------------------------------        ----        ----        ------- ----- ------------
_CODE                               00000200    00002471 =        9329. bytes (REL,CON)

      Value  Global                              Global Defined In Module
      -----  --------------------------------   ------------------------
     000018C8  A$intro2stage$126                  intro2stage
     000018C9  A$intro2stage$127                  intro2stage
     000018CA  A$intro2stage$132                  intro2stage
     000018CA  C$intro2stage.c$20$1$20            intro2stage
     000018CA  XG$DoIntro2Scroll$0$0              intro2stage
     000018CB  A$intro2stage$145                  intro2stage
     000018CB  C$intro2stage.c$22$1$20            intro2stage
     000018CB  C$intro2stage.c$25$1$22            intro2stage
     000018CB  G$InitIntro2Stage$0$0              intro2stage
     000018CB  _InitIntro2Stage                   intro2stage
     000018CD  A$intro2stage$146                  intro2stage
     000018CE  A$intro2stage$147                  intro2stage
     000018CF  A$intro2stage$148                  intro2stage
     000018D2  A$intro2stage$149                  intro2stage
     000018D3  A$intro2stage$150                  intro2stage
     000018D6  A$intro2stage$151                  intro2stage
     000018D7  A$intro2stage$152                  intro2stage
     000018DA  A$intro2stage$153                  intro2stage
     000018DB  A$intro2stage$154                  intro2stage
     000018DE  A$intro2stage$155                  intro2stage
     000018E1  A$intro2stage$156                  intro2stage
     000018E2  A$intro2stage$157                  intro2stage
     000018E3  A$intro2stage$161                  intro2stage
     000018E3  C$intro2stage.c$28$1$22            intro2stage
     000018E5  A$intro2stage$162                  intro2stage
     000018E6  A$intro2stage$163                  intro2stage
     000018E7  A$intro2stage$164                  intro2stage
     000018EA  A$intro2stage$165                  intro2stage
     000018EB  A$intro2stage$166                  intro2stage
     000018EE  A$intro2stage$167                  intro2stage
     000018EF  A$intro2stage$168                  intro2stage
     000018F2  A$intro2stage$169                  intro2stage
     000018F3  A$intro2stage$173                  intro2stage
     000018F3  C$intro2stage.c$31$1$22            intro2stage
     000018F4  A$intro2stage$174                  intro2stage
     000018F7  A$intro2stage$175                  intro2stage
     000018F8  A$intro2stage$176                  intro2stage
     000018FB  A$intro2stage$177                  intro2stage
     000018FC  A$intro2stage$178                  intro2stage
     000018FF  A$intro2stage$179                  intro2stage
     00001900  A$intro2stage$183                  intro2stage
     00001900  C$intro2stage.c$34$1$22            intro2stage
     00001903  A$intro2stage$184                  intro2stage
     00001904  A$intro2stage$185                  intro2stage
     00001907  A$intro2stage$186                  intro2stage
     00001908  A$intro2stage$187                  intro2stage
     0000190B  A$intro2stage$188                  intro2stage
     0000190C  A$intro2stage$189                  intro2stage
     0000190D  A$intro2stage$194                  intro2stage
     0000190D  C$intro2stage.c$35$1$22            intro2stage
     0000190D  XG$InitIntro2Stage$0$0             intro2stage
ASxxxx Linker V03.00 + NoICE + sdld,  page 75.
Hexadecimal  [32-Bits]

Area                                    Addr        Size        Decimal Bytes (Attributes)
--------------------------------        ----        ----        ------- ----- ------------
_CODE                               00000200    00002471 =        9329. bytes (REL,CON)

      Value  Global                              Global Defined In Module
      -----  --------------------------------   ------------------------
     0000190E  A$intro3object$59                  intro3object
     0000190E  C$intro3object.c$3$0$0             intro3object
     0000190E  C$intro3object.c$5$0$0             intro3object
     0000190E  G$intro3object_foo$0$0             intro3object
     0000190E  XG$intro3object_foo$0$0            intro3object
     0000190E  _intro3object_foo                  intro3object
     0000190F  A$intro3stage$60                   intro3stage
     0000190F  C$intro3stage.c$11$0$0             intro3stage
     0000190F  C$intro3stage.c$14$1$20            intro3stage
     0000190F  G$InitIntro3Stage$0$0              intro3stage
     0000190F  _InitIntro3Stage                   intro3stage
     00001911  A$intro3stage$61                   intro3stage
     00001912  A$intro3stage$62                   intro3stage
     00001913  A$intro3stage$63                   intro3stage
     00001916  A$intro3stage$64                   intro3stage
     00001917  A$intro3stage$65                   intro3stage
     0000191A  A$intro3stage$66                   intro3stage
     0000191B  A$intro3stage$67                   intro3stage
     0000191E  A$intro3stage$68                   intro3stage
     0000191F  A$intro3stage$69                   intro3stage
     00001920  A$intro3stage$70                   intro3stage
     00001921  A$intro3stage$74                   intro3stage
     00001921  C$intro3stage.c$17$1$20            intro3stage
     00001923  A$intro3stage$75                   intro3stage
     00001924  A$intro3stage$76                   intro3stage
     00001925  A$intro3stage$77                   intro3stage
     00001928  A$intro3stage$78                   intro3stage
     00001929  A$intro3stage$79                   intro3stage
     0000192C  A$intro3stage$80                   intro3stage
     0000192D  A$intro3stage$81                   intro3stage
     0000192E  A$intro3stage$85                   intro3stage
     0000192E  C$intro3stage.c$20$1$20            intro3stage
     00001930  A$intro3stage$86                   intro3stage
     00001931  A$intro3stage$87                   intro3stage
     00001932  A$intro3stage$88                   intro3stage
     00001935  A$intro3stage$89                   intro3stage
     00001936  A$intro3stage$90                   intro3stage
     00001939  A$intro3stage$94                   intro3stage
     00001939  C$intro3stage.c$23$1$20            intro3stage
     0000193A  A$intro3stage$95                   intro3stage
     0000193D  A$intro3stage$96                   intro3stage
     0000193E  A$intro3stage$97                   intro3stage
     00001941  A$intro3stage$98                   intro3stage
     00001942  A$intro3stage$99                   intro3stage
     00001945  A$intro3stage$100                  intro3stage
     00001946  A$intro3stage$104                  intro3stage
     00001946  C$intro3stage.c$26$1$20            intro3stage
     00001949  A$intro3stage$105                  intro3stage
     0000194A  A$intro3stage$106                  intro3stage
     0000194D  A$intro3stage$107                  intro3stage
     0000194E  A$intro3stage$108                  intro3stage
ASxxxx Linker V03.00 + NoICE + sdld,  page 76.
Hexadecimal  [32-Bits]

Area                                    Addr        Size        Decimal Bytes (Attributes)
--------------------------------        ----        ----        ------- ----- ------------
_CODE                               00000200    00002471 =        9329. bytes (REL,CON)

      Value  Global                              Global Defined In Module
      -----  --------------------------------   ------------------------
     00001951  A$intro3stage$109                  intro3stage
     00001952  A$intro3stage$110                  intro3stage
     00001953  A$intro3stage$115                  intro3stage
     00001953  C$intro3stage.c$27$1$20            intro3stage
     00001953  XG$InitIntro3Stage$0$0             intro3stage
     00001954  A$intro4stage$59                   intro4stage
     00001954  C$intro4stage.c$3$0$0              intro4stage
     00001954  C$intro4stage.c$5$0$0              intro4stage
     00001954  G$intro4stage_foo$0$0              intro4stage
     00001954  XG$intro4stage_foo$0$0             intro4stage
     00001954  _intro4stage_foo                   intro4stage
     00001955  A$introovni$59                     introovni
     00001955  C$introovni.c$3$0$0                introovni
     00001955  C$introovni.c$5$0$0                introovni
     00001955  G$introovni_foo$0$0                introovni
     00001955  XG$introovni_foo$0$0               introovni
     00001955  _introovni_foo                     introovni
     00001956  A$introsideplayer$59               introsideplayer
     00001956  C$introsideplayer.c$3$0$0          introsideplayer
     00001956  C$introsideplayer.c$5$0$0          introsideplayer
     00001956  G$introsideplayer_foo$0$0          introsideplayer
     00001956  XG$introsideplayer_foo$0$0         introsideplayer
     00001956  _introsideplayer_foo               introsideplayer
     00001957  A$introstage$82                    introstage
     00001957  C$introstage.c$15$0$0              introstage
     00001957  C$introstage.c$17$0$0              introstage
     00001957  G$introstage_foo$0$0               introstage
     00001957  XG$introstage_foo$0$0              introstage
     00001957  _introstage_foo                    introstage
     00001958  A$introstage$95                    introstage
     00001958  C$introstage.c$19$0$0              introstage
     00001958  C$introstage.c$21$1$75             introstage
     00001958  G$InitIntroScroll$0$0              introstage
     00001958  _InitIntroScroll                   introstage
     0000195B  A$introstage$96                    introstage
     0000195E  A$introstage$100                   introstage
     0000195E  C$introstage.c$22$1$75             introstage
     00001960  A$introstage$101                   introstage
     00001963  A$introstage$106                   introstage
     00001963  C$introstage.c$23$1$75             introstage
     00001963  XG$InitIntroScroll$0$0             introstage
     00001964  A$introstage$119                   introstage
     00001964  C$introstage.c$25$1$75             introstage
     00001964  C$introstage.c$28$1$76             introstage
     00001964  G$setIntroStageGraphics$0$0        introstage
     00001964  _setIntroStageGraphics             introstage
     00001966  A$introstage$120                   introstage
     00001967  A$introstage$121                   introstage
     00001968  A$introstage$122                   introstage
     0000196B  A$introstage$123                   introstage
     0000196C  A$introstage$124                   introstage
ASxxxx Linker V03.00 + NoICE + sdld,  page 77.
Hexadecimal  [32-Bits]

Area                                    Addr        Size        Decimal Bytes (Attributes)
--------------------------------        ----        ----        ------- ----- ------------
_CODE                               00000200    00002471 =        9329. bytes (REL,CON)

      Value  Global                              Global Defined In Module
      -----  --------------------------------   ------------------------
     0000196F  A$introstage$125                   introstage
     00001970  A$introstage$126                   introstage
     00001971  A$introstage$130                   introstage
     00001971  C$introstage.c$31$1$76             introstage
     00001974  A$introstage$134                   introstage
     00001974  C$introstage.c$34$1$76             introstage
     00001977  A$introstage$138                   introstage
     00001977  C$introstage.c$37$1$76             introstage
     0000197A  A$introstage$142                   introstage
     0000197A  C$introstage.c$40$1$76             introstage
     0000197D  A$introstage$146                   introstage
     0000197D  C$introstage.c$43$1$76             introstage
     0000197F  A$introstage$147                   introstage
     00001980  A$introstage$148                   introstage
     00001981  A$introstage$149                   introstage
     00001984  A$introstage$150                   introstage
     00001985  A$introstage$155                   introstage
     00001985  C$introstage.c$44$1$76             introstage
     00001985  XG$setIntroStageGraphics$0$0       introstage
     00001986  A$introstage$165                   introstage
     00001986  C$introstage.c$46$1$76             introstage
     00001986  G$InitIntroStage$0$0               introstage
     00001986  _InitIntroStage                    introstage
     00001987  A$introstage$169                   introstage
     00001987  C$introstage.c$49$1$78             introstage
     0000198A  A$introstage$173                   introstage
     0000198A  C$introstage.c$52$1$78             introstage
     0000198D  A$introstage$177                   introstage
     0000198D  C$introstage.c$55$1$78             introstage
     00001990  A$introstage$181                   introstage
     00001990  C$introstage.c$58$1$78             introstage
     00001994  A$introstage$182                   introstage
     00001996  A$introstage$183                   introstage
     00001999  A$introstage$184                   introstage
     0000199A  A$introstage$185                   introstage
     0000199C  A$introstage$186                   introstage
     0000199F  A$introstage$187                   introstage
     000019A1  A$introstage$188                   introstage
     000019A3  A$introstage$189                   introstage
     000019A5  A$introstage$197                   introstage
     000019A5  C$introstage.c$60$2$79             introstage
     000019A5  C$introstage.c$61$2$79             introstage
     000019A8  A$introstage$201                   introstage
     000019A8  C$introstage.c$62$2$79             introstage
     000019AA  A$introstage$209                   introstage
     000019AA  C$introstage.c$65$2$79             introstage
     000019AA  C$introstage.c$66$2$79             introstage
     000019AD  A$introstage$217                   introstage
     000019AD  C$introstage.c$69$1$78             introstage
     000019AD  C$introstage.c$72$1$78             introstage
     000019B0  A$introstage$221                   introstage
ASxxxx Linker V03.00 + NoICE + sdld,  page 78.
Hexadecimal  [32-Bits]

Area                                    Addr        Size        Decimal Bytes (Attributes)
--------------------------------        ----        ----        ------- ----- ------------
_CODE                               00000200    00002471 =        9329. bytes (REL,CON)

      Value  Global                              Global Defined In Module
      -----  --------------------------------   ------------------------
     000019B0  C$introstage.c$75$1$78             introstage
     000019B3  A$introstage$225                   introstage
     000019B3  C$introstage.c$77$2$80             introstage
     000019B6  A$introstage$226                   introstage
     000019B7  A$introstage$227                   introstage
     000019B8  A$introstage$228                   introstage
     000019BA  A$introstage$229                   introstage
     000019BC  A$introstage$230                   introstage
     000019BE  A$introstage$231                   introstage
     000019C0  A$introstage$233                   introstage
     000019C1  A$introstage$235                   introstage
     000019C2  A$introstage$236                   introstage
     000019C3  A$introstage$237                   introstage
     000019C4  A$introstage$242                   introstage
     000019C4  C$introstage.c$80$2$80             introstage
     000019C7  A$introstage$246                   introstage
     000019C7  C$introstage.c$83$2$80             introstage
     000019CA  A$introstage$250                   introstage
     000019CA  C$introstage.c$86$2$80             introstage
     000019CD  A$introstage$251                   introstage
     000019CF  A$introstage$252                   introstage
     000019D1  A$introstage$256                   introstage
     000019D1  C$introstage.c$88$3$81             introstage
     000019D4  A$introstage$261                   introstage
     000019D4  C$introstage.c$92$2$80             introstage
     000019D7  A$introstage$262                   introstage
     000019D8  A$introstage$263                   introstage
     000019DA  A$introstage$267                   introstage
     000019DA  C$introstage.c$94$3$82             introstage
     000019DD  A$introstage$271                   introstage
     000019DD  C$introstage.c$95$3$82             introstage
     000019E0  A$introstage$276                   introstage
     000019E0  C$introstage.c$99$2$80             introstage
     000019E3  A$introstage$277                   introstage
     000019E4  A$introstage$278                   introstage
     000019E5  A$introstage$279                   introstage
     000019E6  A$introstage$280                   introstage
     000019E8  A$introstage$284                   introstage
     000019E8  C$introstage.c$101$3$83            introstage
     000019EB  A$introstage$289                   introstage
     000019EB  C$introstage.c$105$2$80            introstage
     000019EE  A$introstage$290                   introstage
     000019EF  A$introstage$291                   introstage
     000019F0  A$introstage$292                   introstage
     000019F4  A$introstage$293                   introstage
     000019F7  A$introstage$294                   introstage
     000019F8  A$introstage$295                   introstage
     000019F9  A$introstage$296                   introstage
     000019FC  A$introstage$297                   introstage
     000019FD  A$introstage$298                   introstage
     000019FF  A$introstage$299                   introstage
ASxxxx Linker V03.00 + NoICE + sdld,  page 79.
Hexadecimal  [32-Bits]

Area                                    Addr        Size        Decimal Bytes (Attributes)
--------------------------------        ----        ----        ------- ----- ------------
_CODE                               00000200    00002471 =        9329. bytes (REL,CON)

      Value  Global                              Global Defined In Module
      -----  --------------------------------   ------------------------
     00001A02  A$introstage$300                   introstage
     00001A03  A$introstage$301                   introstage
     00001A04  A$introstage$305                   introstage
     00001A04  C$introstage.c$107$3$84            introstage
     00001A06  A$introstage$309                   introstage
     00001A06  C$introstage.c$111$2$80            introstage
     00001A09  A$introstage$310                   introstage
     00001A0B  A$introstage$312                   introstage
     00001A0C  A$introstage$317                   introstage
     00001A0C  C$introstage.c$113$1$78            introstage
     00001A0C  XG$InitIntroStage$0$0              introstage
     00001A0D  A$introstar$59                     introstar
     00001A0D  C$introstar.c$3$0$0                introstar
     00001A0D  C$introstar.c$5$0$0                introstar
     00001A0D  G$introstar_foo$0$0                introstar
     00001A0D  XG$introstar_foo$0$0               introstar
     00001A0D  _introstar_foo                     introstar
     00001A0E  A$monsterblob$59                   monsterblob
     00001A0E  C$monsterblob.c$3$0$0              monsterblob
     00001A0E  C$monsterblob.c$5$0$0              monsterblob
     00001A0E  G$monsterblob_foo$0$0              monsterblob
     00001A0E  XG$monsterblob_foo$0$0             monsterblob
     00001A0E  _monsterblob_foo                   monsterblob
     00001A0F  A$monsterhead$59                   monsterhead
     00001A0F  C$monsterhead.c$3$0$0              monsterhead
     00001A0F  C$monsterhead.c$5$0$0              monsterhead
     00001A0F  G$monsterhead_foo$0$0              monsterhead
     00001A0F  XG$monsterhead_foo$0$0             monsterhead
     00001A0F  _monsterhead_foo                   monsterhead
     00001A10  A$monstermissil$59                 monstermissil
     00001A10  C$monstermissil.c$3$0$0            monstermissil
     00001A10  C$monstermissil.c$5$0$0            monstermissil
     00001A10  G$monstermissil_foo$0$0            monstermissil
     00001A10  XG$monstermissil_foo$0$0           monstermissil
     00001A10  _monstermissil_foo                 monstermissil
     00001A11  A$player$59                        player
     00001A11  C$player.c$3$0$0                   player
     00001A11  C$player.c$5$0$0                   player
     00001A11  G$player_foo$0$0                   player
     00001A11  XG$player_foo$0$0                  player
     00001A11  _player_foo                        player
     00001A12  A$playershoot$59                   playershoot
     00001A12  C$playershoot.c$3$0$0              playershoot
     00001A12  C$playershoot.c$5$0$0              playershoot
     00001A12  G$playershoot_foo$0$0              playershoot
     00001A12  XG$playershoot_foo$0$0             playershoot
     00001A12  _playershoot_foo                   playershoot
     00001A13  A$playstage$59                     playstage
     00001A13  C$playstage.c$3$0$0                playstage
     00001A13  C$playstage.c$5$0$0                playstage
     00001A13  G$playstage_foo$0$0                playstage
ASxxxx Linker V03.00 + NoICE + sdld,  page 80.
Hexadecimal  [32-Bits]

Area                                    Addr        Size        Decimal Bytes (Attributes)
--------------------------------        ----        ----        ------- ----- ------------
_CODE                               00000200    00002471 =        9329. bytes (REL,CON)

      Value  Global                              Global Defined In Module
      -----  --------------------------------   ------------------------
     00001A13  XG$playstage_foo$0$0               playstage
     00001A13  _playstage_foo                     playstage
     00001A14  A$spaceasteroid$59                 spaceasteroid
     00001A14  C$spaceasteroid.c$3$0$0            spaceasteroid
     00001A14  C$spaceasteroid.c$5$0$0            spaceasteroid
     00001A14  G$spaceasteroid_foo$0$0            spaceasteroid
     00001A14  XG$spaceasteroid_foo$0$0           spaceasteroid
     00001A14  _spaceasteroid_foo                 spaceasteroid
     00001A15  A$spaceshooter$59                  spaceshooter
     00001A15  C$spaceshooter.c$3$0$0             spaceshooter
     00001A15  C$spaceshooter.c$5$0$0             spaceshooter
     00001A15  G$spaceshooter_foo$0$0             spaceshooter
     00001A15  XG$spaceshooter_foo$0$0            spaceshooter
     00001A15  _spaceshooter_foo                  spaceshooter
     00001A16  A$spacestation$59                  spacestation
     00001A16  C$spacestation.c$3$0$0             spacestation
     00001A16  C$spacestation.c$5$0$0             spacestation
     00001A16  G$spacestation_foo$0$0             spacestation
     00001A16  XG$spacestation_foo$0$0            spacestation
     00001A16  _spacestation_foo                  spacestation
     00001A17  A$stage1$59                        stage1
     00001A17  C$stage1.c$3$0$0                   stage1
     00001A17  C$stage1.c$5$0$0                   stage1
     00001A17  G$stage1_foo$0$0                   stage1
     00001A17  XG$stage1_foo$0$0                  stage1
     00001A17  _stage1_foo                        stage1
     00001A18  A$stage1endboss$59                 stage1endboss
     00001A18  C$stage1endboss.c$3$0$0            stage1endboss
     00001A18  C$stage1endboss.c$5$0$0            stage1endboss
     00001A18  G$stage1endboss_foo$0$0            stage1endboss
     00001A18  XG$stage1endboss_foo$0$0           stage1endboss
     00001A18  _stage1endboss_foo                 stage1endboss
     00001A19  A$stage1middleboss$59              stage1middleboss
     00001A19  C$stage1middleboss.c$3$0$0         stage1middleboss
     00001A19  C$stage1middleboss.c$5$0$0         stage1middleboss
     00001A19  G$stage1middleboss_foo$0$0         stage1middleboss
     00001A19  XG$stage1middleboss_foo$0$0        stage1middleboss
     00001A19  _stage1middleboss_foo              stage1middleboss
     00001A1A  A$stage1middlebossb$59             stage1middlebossb
     00001A1A  C$stage1middlebossb.c$3$0$0        stage1middlebossb
     00001A1A  C$stage1middlebossb.c$5$0$0        stage1middlebossb
     00001A1A  G$stage1middlebossb_foo$0$0        stage1middlebossb
     00001A1A  XG$stage1middlebossb_foo$0$0       stage1middlebossb
     00001A1A  _stage1middlebossb_foo             stage1middlebossb
     00001A1B  A$stage1middlebossc$59             stage1middlebossc
     00001A1B  C$stage1middlebossc.c$3$0$0        stage1middlebossc
     00001A1B  C$stage1middlebossc.c$5$0$0        stage1middlebossc
     00001A1B  G$stage1middlebossc_foo$0$0        stage1middlebossc
     00001A1B  XG$stage1middlebossc_foo$0$0       stage1middlebossc
     00001A1B  _stage1middlebossc_foo             stage1middlebossc
     00001A1C  A$stage2$59                        stage2
ASxxxx Linker V03.00 + NoICE + sdld,  page 81.
Hexadecimal  [32-Bits]

Area                                    Addr        Size        Decimal Bytes (Attributes)
--------------------------------        ----        ----        ------- ----- ------------
_CODE                               00000200    00002471 =        9329. bytes (REL,CON)

      Value  Global                              Global Defined In Module
      -----  --------------------------------   ------------------------
     00001A1C  C$stage2.c$3$0$0                   stage2
     00001A1C  C$stage2.c$5$0$0                   stage2
     00001A1C  G$stage2_foo$0$0                   stage2
     00001A1C  XG$stage2_foo$0$0                  stage2
     00001A1C  _stage2_foo                        stage2
     00001A1D  A$stage2endboss$59                 stage2endboss
     00001A1D  C$stage2endboss.c$3$0$0            stage2endboss
     00001A1D  C$stage2endboss.c$5$0$0            stage2endboss
     00001A1D  G$stage2endboss_foo$0$0            stage2endboss
     00001A1D  XG$stage2endboss_foo$0$0           stage2endboss
     00001A1D  _stage2endboss_foo                 stage2endboss
     00001A1E  A$stage2object$59                  stage2object
     00001A1E  C$stage2object.c$3$0$0             stage2object
     00001A1E  C$stage2object.c$5$0$0             stage2object
     00001A1E  G$stage2object_foo$0$0             stage2object
     00001A1E  XG$stage2object_foo$0$0            stage2object
     00001A1E  _stage2object_foo                  stage2object
     00001A1F  A$stage3$59                        stage3
     00001A1F  C$stage3.c$3$0$0                   stage3
     00001A1F  C$stage3.c$5$0$0                   stage3
     00001A1F  G$stage3_foo$0$0                   stage3
     00001A1F  XG$stage3_foo$0$0                  stage3
     00001A1F  _stage3_foo                        stage3
     00001A20  A$stage3endboss$59                 stage3endboss
     00001A20  C$stage3endboss.c$3$0$0            stage3endboss
     00001A20  C$stage3endboss.c$5$0$0            stage3endboss
     00001A20  G$stage3endboss_foo$0$0            stage3endboss
     00001A20  XG$stage3endboss_foo$0$0           stage3endboss
     00001A20  _stage3endboss_foo                 stage3endboss
     00001A21  A$stage3laser$59                   stage3laser
     00001A21  C$stage3laser.c$3$0$0              stage3laser
     00001A21  C$stage3laser.c$5$0$0              stage3laser
     00001A21  G$stage3laser_foo$0$0              stage3laser
     00001A21  XG$stage3laser_foo$0$0             stage3laser
     00001A21  _stage3laser_foo                   stage3laser
     00001A22  A$stage3star$59                    stage3star
     00001A22  C$stage3star.c$3$0$0               stage3star
     00001A22  C$stage3star.c$5$0$0               stage3star
     00001A22  G$stage3star_foo$0$0               stage3star
     00001A22  XG$stage3star_foo$0$0              stage3star
     00001A22  _stage3star_foo                    stage3star
     00001A23  A$stage4$59                        stage4
     00001A23  C$stage4.c$3$0$0                   stage4
     00001A23  C$stage4.c$5$0$0                   stage4
     00001A23  G$stage4_foo$0$0                   stage4
     00001A23  XG$stage4_foo$0$0                  stage4
     00001A23  _stage4_foo                        stage4
     00001A24  A$stage4endboss$59                 stage4endboss
     00001A24  C$stage4endboss.c$3$0$0            stage4endboss
     00001A24  C$stage4endboss.c$5$0$0            stage4endboss
     00001A24  G$stage4endboss_foo$0$0            stage4endboss
ASxxxx Linker V03.00 + NoICE + sdld,  page 82.
Hexadecimal  [32-Bits]

Area                                    Addr        Size        Decimal Bytes (Attributes)
--------------------------------        ----        ----        ------- ----- ------------
_CODE                               00000200    00002471 =        9329. bytes (REL,CON)

      Value  Global                              Global Defined In Module
      -----  --------------------------------   ------------------------
     00001A24  XG$stage4endboss_foo$0$0           stage4endboss
     00001A24  _stage4endboss_foo                 stage4endboss
     00001A25  A$stage4endbossb$59                stage4endbossb
     00001A25  C$stage4endbossb.c$3$0$0           stage4endbossb
     00001A25  C$stage4endbossb.c$5$0$0           stage4endbossb
     00001A25  G$stage4endbossb_foo$0$0           stage4endbossb
     00001A25  XG$stage4endbossb_foo$0$0          stage4endbossb
     00001A25  _stage4endbossb_foo                stage4endbossb
     00001A26  A$stage4middleboss$59              stage4middleboss
     00001A26  C$stage4middleboss.c$3$0$0         stage4middleboss
     00001A26  C$stage4middleboss.c$5$0$0         stage4middleboss
     00001A26  G$stage4middleboss_foo$0$0         stage4middleboss
     00001A26  XG$stage4middleboss_foo$0$0        stage4middleboss
     00001A26  _stage4middleboss_foo              stage4middleboss
     00001A27  A$stage4object$59                  stage4object
     00001A27  C$stage4object.c$3$0$0             stage4object
     00001A27  C$stage4object.c$5$0$0             stage4object
     00001A27  G$stage4object_foo$0$0             stage4object
     00001A27  XG$stage4object_foo$0$0            stage4object
     00001A27  _stage4object_foo                  stage4object
     00001A28  A$stage5$59                        stage5
     00001A28  C$stage5.c$3$0$0                   stage5
     00001A28  C$stage5.c$5$0$0                   stage5
     00001A28  G$stage5_foo$0$0                   stage5
     00001A28  XG$stage5_foo$0$0                  stage5
     00001A28  _stage5_foo                        stage5
     00001A29  A$stage5endboss$59                 stage5endboss
     00001A29  C$stage5endboss.c$3$0$0            stage5endboss
     00001A29  C$stage5endboss.c$5$0$0            stage5endboss
     00001A29  G$stage5endboss_foo$0$0            stage5endboss
     00001A29  XG$stage5endboss_foo$0$0           stage5endboss
     00001A29  _stage5endboss_foo                 stage5endboss
     00001A2A  A$stage5missile$59                 stage5missile
     00001A2A  C$stage5missile.c$3$0$0            stage5missile
     00001A2A  C$stage5missile.c$5$0$0            stage5missile
     00001A2A  G$stage5missile_foo$0$0            stage5missile
     00001A2A  XG$stage5missile_foo$0$0           stage5missile
     00001A2A  _stage5missile_foo                 stage5missile
     00001A2B  A$stage6$59                        stage6
     00001A2B  C$stage6.c$3$0$0                   stage6
     00001A2B  C$stage6.c$5$0$0                   stage6
     00001A2B  G$stage6_foo$0$0                   stage6
     00001A2B  XG$stage6_foo$0$0                  stage6
     00001A2B  _stage6_foo                        stage6
     00001A2C  A$stage6endboss$59                 stage6endboss
     00001A2C  C$stage6endboss.c$3$0$0            stage6endboss
     00001A2C  C$stage6endboss.c$5$0$0            stage6endboss
     00001A2C  G$stage6endboss_foo$0$0            stage6endboss
     00001A2C  XG$stage6endboss_foo$0$0           stage6endboss
     00001A2C  _stage6endboss_foo                 stage6endboss
     00001A2D  A$stage6endbossb$59                stage6endbossb
ASxxxx Linker V03.00 + NoICE + sdld,  page 83.
Hexadecimal  [32-Bits]

Area                                    Addr        Size        Decimal Bytes (Attributes)
--------------------------------        ----        ----        ------- ----- ------------
_CODE                               00000200    00002471 =        9329. bytes (REL,CON)

      Value  Global                              Global Defined In Module
      -----  --------------------------------   ------------------------
     00001A2D  C$stage6endbossb.c$3$0$0           stage6endbossb
     00001A2D  C$stage6endbossb.c$5$0$0           stage6endbossb
     00001A2D  G$stage6endbossb_foo$0$0           stage6endbossb
     00001A2D  XG$stage6endbossb_foo$0$0          stage6endbossb
     00001A2D  _stage6endbossb_foo                stage6endbossb
     00001A2E  A$stage6object$59                  stage6object
     00001A2E  C$stage6object.c$3$0$0             stage6object
     00001A2E  C$stage6object.c$5$0$0             stage6object
     00001A2E  G$stage6object_foo$0$0             stage6object
     00001A2E  XG$stage6object_foo$0$0            stage6object
     00001A2E  _stage6object_foo                  stage6object
     00001A2F  A$stage7$59                        stage7
     00001A2F  C$stage7.c$3$0$0                   stage7
     00001A2F  C$stage7.c$5$0$0                   stage7
     00001A2F  G$stage7_foo$0$0                   stage7
     00001A2F  XG$stage7_foo$0$0                  stage7
     00001A2F  _stage7_foo                        stage7
     00001A30  A$stage7endboss$59                 stage7endboss
     00001A30  C$stage7endboss.c$3$0$0            stage7endboss
     00001A30  C$stage7endboss.c$5$0$0            stage7endboss
     00001A30  G$stage7endboss_foo$0$0            stage7endboss
     00001A30  XG$stage7endboss_foo$0$0           stage7endboss
     00001A30  _stage7endboss_foo                 stage7endboss
     00001A31  A$stage7middleboss$59              stage7middleboss
     00001A31  C$stage7middleboss.c$3$0$0         stage7middleboss
     00001A31  C$stage7middleboss.c$5$0$0         stage7middleboss
     00001A31  G$stage7middleboss_foo$0$0         stage7middleboss
     00001A31  XG$stage7middleboss_foo$0$0        stage7middleboss
     00001A31  _stage7middleboss_foo              stage7middleboss
     00001A32  A$stage7object$59                  stage7object
     00001A32  C$stage7object.c$3$0$0             stage7object
     00001A32  C$stage7object.c$5$0$0             stage7object
     00001A32  G$stage7object_foo$0$0             stage7object
     00001A32  XG$stage7object_foo$0$0            stage7object
     00001A32  _stage7object_foo                  stage7object
     00001A33  A$stage8$59                        stage8
     00001A33  C$stage8.c$3$0$0                   stage8
     00001A33  C$stage8.c$5$0$0                   stage8
     00001A33  G$stage8_foo$0$0                   stage8
     00001A33  XG$stage8_foo$0$0                  stage8
     00001A33  _stage8_foo                        stage8
     00001A34  A$stage8bossa$59                   stage8bossa
     00001A34  C$stage8bossa.c$3$0$0              stage8bossa
     00001A34  C$stage8bossa.c$5$0$0              stage8bossa
     00001A34  G$stage8bossa_foo$0$0              stage8bossa
     00001A34  XG$stage8bossa_foo$0$0             stage8bossa
     00001A34  _stage8bossa_foo                   stage8bossa
     00001A35  A$stage8bossb$59                   stage8bossb
     00001A35  C$stage8bossb.c$3$0$0              stage8bossb
     00001A35  C$stage8bossb.c$5$0$0              stage8bossb
     00001A35  G$stage8bossb_foo$0$0              stage8bossb
ASxxxx Linker V03.00 + NoICE + sdld,  page 84.
Hexadecimal  [32-Bits]

Area                                    Addr        Size        Decimal Bytes (Attributes)
--------------------------------        ----        ----        ------- ----- ------------
_CODE                               00000200    00002471 =        9329. bytes (REL,CON)

      Value  Global                              Global Defined In Module
      -----  --------------------------------   ------------------------
     00001A35  XG$stage8bossb_foo$0$0             stage8bossb
     00001A35  _stage8bossb_foo                   stage8bossb
     00001A36  A$stage8bossc$59                   stage8bossc
     00001A36  C$stage8bossc.c$3$0$0              stage8bossc
     00001A36  C$stage8bossc.c$5$0$0              stage8bossc
     00001A36  G$stage8bossc_foo$0$0              stage8bossc
     00001A36  XG$stage8bossc_foo$0$0             stage8bossc
     00001A36  _stage8bossc_foo                   stage8bossc
     00001A37  A$stage8lateral$59                 stage8lateral
     00001A37  C$stage8lateral.c$3$0$0            stage8lateral
     00001A37  C$stage8lateral.c$5$0$0            stage8lateral
     00001A37  G$stage8lateral_foo$0$0            stage8lateral
     00001A37  XG$stage8lateral_foo$0$0           stage8lateral
     00001A37  _stage8lateral_foo                 stage8lateral
     00001A38  A$vulcanbird$59                    vulcanbird
     00001A38  C$vulcanbird.c$3$0$0               vulcanbird
     00001A38  C$vulcanbird.c$5$0$0               vulcanbird
     00001A38  G$vulcanbird_foo$0$0               vulcanbird
     00001A38  XG$vulcanbird_foo$0$0              vulcanbird
     00001A38  _vulcanbird_foo                    vulcanbird
     00001A39  A$vulcanlaser$59                   vulcanlaser
     00001A39  C$vulcanlaser.c$3$0$0              vulcanlaser
     00001A39  C$vulcanlaser.c$5$0$0              vulcanlaser
     00001A39  G$vulcanlaser_foo$0$0              vulcanlaser
     00001A39  XG$vulcanlaser_foo$0$0             vulcanlaser
     00001A39  _vulcanlaser_foo                   vulcanlaser
     00001A3A  A$vulcanlava$59                    vulcanlava
     00001A3A  C$vulcanlava.c$3$0$0               vulcanlava
     00001A3A  C$vulcanlava.c$5$0$0               vulcanlava
     00001A3A  G$vulcanlava_foo$0$0               vulcanlava
     00001A3A  XG$vulcanlava_foo$0$0              vulcanlava
     00001A3A  _vulcanlava_foo                    vulcanlava
     00001A3B  A$vulcanstation$59                 vulcanstation
     00001A3B  C$vulcanstation.c$3$0$0            vulcanstation
     00001A3B  C$vulcanstation.c$5$0$0            vulcanstation
     00001A3B  G$vulcanstation_foo$0$0            vulcanstation
     00001A3B  XG$vulcanstation_foo$0$0           vulcanstation
     00001A3B  _vulcanstation_foo                 vulcanstation
     00001A3C  A$vulcantank$59                    vulcantank
     00001A3C  C$vulcantank.c$3$0$0               vulcantank
     00001A3C  C$vulcantank.c$5$0$0               vulcantank
     00001A3C  G$vulcantank_foo$0$0               vulcantank
     00001A3C  XG$vulcantank_foo$0$0              vulcantank
     00001A3C  _vulcantank_foo                    vulcantank
     00001A3D  A$vulcanvulcan$59                  vulcanvulcan
     00001A3D  C$vulcanvulcan.c$3$0$0             vulcanvulcan
     00001A3D  C$vulcanvulcan.c$5$0$0             vulcanvulcan
     00001A3D  G$vulcanvulcan_foo$0$0             vulcanvulcan
     00001A3D  XG$vulcanvulcan_foo$0$0            vulcanvulcan
     00001A3D  _vulcanvulcan_foo                  vulcanvulcan
     00001A3E  A$ww2plane$59                      ww2plane
ASxxxx Linker V03.00 + NoICE + sdld,  page 85.
Hexadecimal  [32-Bits]

Area                                    Addr        Size        Decimal Bytes (Attributes)
--------------------------------        ----        ----        ------- ----- ------------
_CODE                               00000200    00002471 =        9329. bytes (REL,CON)

      Value  Global                              Global Defined In Module
      -----  --------------------------------   ------------------------
     00001A3E  C$ww2plane.c$3$0$0                 ww2plane
     00001A3E  C$ww2plane.c$5$0$0                 ww2plane
     00001A3E  G$ww2plane_foo$0$0                 ww2plane
     00001A3E  XG$ww2plane_foo$0$0                ww2plane
     00001A3E  _ww2plane_foo                      ww2plane
     00001A3F  A$ww2planeb$59                     ww2planeb
     00001A3F  C$ww2planeb.c$3$0$0                ww2planeb
     00001A3F  C$ww2planeb.c$5$0$0                ww2planeb
     00001A3F  G$ww2planeb_foo$0$0                ww2planeb
     00001A3F  XG$ww2planeb_foo$0$0               ww2planeb
     00001A3F  _ww2planeb_foo                     ww2planeb
     00001A40  A$ww2ship$59                       ww2ship
     00001A40  C$ww2ship.c$3$0$0                  ww2ship
     00001A40  C$ww2ship.c$5$0$0                  ww2ship
     00001A40  G$ww2ship_foo$0$0                  ww2ship
     00001A40  XG$ww2ship_foo$0$0                 ww2ship
     00001A40  _ww2ship_foo                       ww2ship
     00001A41  A$ww2zeppelin$59                   ww2zeppelin
     00001A41  C$ww2zeppelin.c$3$0$0              ww2zeppelin
     00001A41  C$ww2zeppelin.c$5$0$0              ww2zeppelin
     00001A41  G$ww2zeppelin_foo$0$0              ww2zeppelin
     00001A41  XG$ww2zeppelin_foo$0$0             ww2zeppelin
     00001A41  _ww2zeppelin_foo                   ww2zeppelin
     00001A42  A$funcs$131                        funcs
     00001A42  C$funcs.c$50$0$0                   funcs
     00001A42  C$funcs.c$52$1$59                  funcs
     00001A42  G$myRand$0$0                       funcs
     00001A42  _myRand                            funcs
     00001A45  A$funcs$132                        funcs
     00001A46  A$funcs$133                        funcs
     00001A49  A$funcs$134                        funcs
     00001A4A  A$funcs$135                        funcs
     00001A4D  A$funcs$136                        funcs
     00001A4E  A$funcs$137                        funcs
     00001A51  A$funcs$138                        funcs
     00001A52  A$funcs$139                        funcs
     00001A55  A$funcs$140                        funcs
     00001A56  A$funcs$141                        funcs
     00001A57  A$funcs$142                        funcs
     00001A58  A$funcs$143                        funcs
     00001A59  A$funcs$144                        funcs
     00001A5A  A$funcs$145                        funcs
     00001A5B  A$funcs$146                        funcs
     00001A5E  A$funcs$147                        funcs
     00001A60  A$funcs$148                        funcs
     00001A61  A$funcs$149                        funcs
     00001A62  A$funcs$150                        funcs
     00001A64  A$funcs$151                        funcs
     00001A65  A$funcs$152                        funcs
     00001A66  A$funcs$153                        funcs
     00001A67  A$funcs$154                        funcs
ASxxxx Linker V03.00 + NoICE + sdld,  page 86.
Hexadecimal  [32-Bits]

Area                                    Addr        Size        Decimal Bytes (Attributes)
--------------------------------        ----        ----        ------- ----- ------------
_CODE                               00000200    00002471 =        9329. bytes (REL,CON)

      Value  Global                              Global Defined In Module
      -----  --------------------------------   ------------------------
     00001A69  A$funcs$155                        funcs
     00001A6A  A$funcs$156                        funcs
     00001A6B  A$funcs$157                        funcs
     00001A6C  A$funcs$158                        funcs
     00001A6E  A$funcs$159                        funcs
     00001A6F  A$funcs$160                        funcs
     00001A70  A$funcs$164                        funcs
     00001A70  C$funcs.c$53$1$59                  funcs
     00001A74  A$funcs$165                        funcs
     00001A77  A$funcs$170                        funcs
     00001A77  C$funcs.c$54$1$59                  funcs
     00001A77  XG$myRand$0$0                      funcs
     00001A78  A$funcs$183                        funcs
     00001A78  C$funcs.c$57$1$59                  funcs
     00001A78  C$funcs.c$59$1$61                  funcs
     00001A78  G$changeBank$0$0                   funcs
     00001A78  _changeBank                        funcs
     00001A7B  A$funcs$184                        funcs
     00001A7C  A$funcs$185                        funcs
     00001A7D  A$funcs$186                        funcs
     00001A81  A$funcs$187                        funcs
     00001A84  A$funcs$188                        funcs
     00001A85  A$funcs$192                        funcs
     00001A85  C$funcs.c$61$2$62                  funcs
     00001A88  A$funcs$193                        funcs
     00001A89  A$funcs$194                        funcs
     00001A8A  A$funcs$195                        funcs
     00001A8B  A$funcs$196                        funcs
     00001A8C  A$funcs$197                        funcs
     00001A8F  A$funcs$198                        funcs
     00001A90  A$funcs$202                        funcs
     00001A90  C$funcs.c$62$2$62                  funcs
     00001A93  A$funcs$203                        funcs
     00001A94  A$funcs$204                        funcs
     00001A95  A$funcs$205                        funcs
     00001A98  A$funcs$210                        funcs
     00001A98  C$funcs.c$64$1$61                  funcs
     00001A98  XG$changeBank$0$0                  funcs
     00001A99  A$funcs$220                        funcs
     00001A99  C$funcs.c$68$1$61                  funcs
     00001A99  G$DrawSpriteArray$0$0              funcs
     00001A99  _DrawSpriteArray                   funcs
     00001A9B  A$funcs$221                        funcs
     00001A9F  A$funcs$222                        funcs
     00001AA1  A$funcs$223                        funcs
     00001AA2  A$funcs$227                        funcs
     00001AA4  A$funcs$229                        funcs
     00001AA5  A$funcs$230                        funcs
     00001AA8  A$funcs$231                        funcs
     00001AAA  A$funcs$235                        funcs
     00001AAD  A$funcs$236                        funcs
ASxxxx Linker V03.00 + NoICE + sdld,  page 87.
Hexadecimal  [32-Bits]

Area                                    Addr        Size        Decimal Bytes (Attributes)
--------------------------------        ----        ----        ------- ----- ------------
_CODE                               00000200    00002471 =        9329. bytes (REL,CON)

      Value  Global                              Global Defined In Module
      -----  --------------------------------   ------------------------
     00001AAE  A$funcs$237                        funcs
     00001AB1  A$funcs$238                        funcs
     00001AB4  A$funcs$239                        funcs
     00001AB7  A$funcs$240                        funcs
     00001AB9  A$funcs$242                        funcs
     00001ABA  A$funcs$243                        funcs
     00001ABD  A$funcs$244                        funcs
     00001ABF  A$funcs$248                        funcs
     00001ABF  C$funcs.c$73$3$66                  funcs
     00001AC0  A$funcs$249                        funcs
     00001AC1  A$funcs$250                        funcs
     00001AC2  A$funcs$251                        funcs
     00001AC5  A$funcs$252                        funcs
     00001AC6  A$funcs$253                        funcs
     00001AC9  A$funcs$254                        funcs
     00001ACA  A$funcs$255                        funcs
     00001ACB  A$funcs$256                        funcs
     00001ACC  A$funcs$257                        funcs
     00001ACF  A$funcs$258                        funcs
     00001AD2  A$funcs$259                        funcs
     00001AD3  A$funcs$260                        funcs
     00001AD6  A$funcs$261                        funcs
     00001AD7  A$funcs$262                        funcs
     00001AD8  A$funcs$263                        funcs
     00001AD9  A$funcs$264                        funcs
     00001ADA  A$funcs$268                        funcs
     00001ADA  C$funcs.c$72$3$66                  funcs
     00001ADB  A$funcs$269                        funcs
     00001ADD  A$funcs$270                        funcs
     00001ADE  A$funcs$271                        funcs
     00001AE0  A$funcs$273                        funcs
     00001AE3  A$funcs$274                        funcs
     00001AE6  A$funcs$278                        funcs
     00001AE6  C$funcs.c$71$2$65                  funcs
     00001AE7  A$funcs$279                        funcs
     00001AE9  A$funcs$280                        funcs
     00001AEA  A$funcs$281                        funcs
     00001AEC  A$funcs$283                        funcs
     00001AEE  A$funcs$284                        funcs
     00001AF0  A$funcs$289                        funcs
     00001AF0  C$funcs.c$74$2$65                  funcs
     00001AF0  XG$DrawSpriteArray$0$0             funcs
     00001AF1  A$funcs$299                        funcs
     00001AF1  C$funcs.c$77$2$65                  funcs
     00001AF1  G$DrawQuadSprite$0$0               funcs
     00001AF1  _DrawQuadSprite                    funcs
     00001AF3  A$funcs$300                        funcs
     00001AF7  A$funcs$301                        funcs
     00001AF9  A$funcs$305                        funcs
     00001AF9  C$funcs.c$79$1$68                  funcs
     00001AFC  A$funcs$306                        funcs
ASxxxx Linker V03.00 + NoICE + sdld,  page 88.
Hexadecimal  [32-Bits]

Area                                    Addr        Size        Decimal Bytes (Attributes)
--------------------------------        ----        ----        ------- ----- ------------
_CODE                               00000200    00002471 =        9329. bytes (REL,CON)

      Value  Global                              Global Defined In Module
      -----  --------------------------------   ------------------------
     00001AFF  A$funcs$307                        funcs
     00001B00  A$funcs$308                        funcs
     00001B03  A$funcs$309                        funcs
     00001B06  A$funcs$310                        funcs
     00001B07  A$funcs$311                        funcs
     00001B0A  A$funcs$312                        funcs
     00001B0B  A$funcs$313                        funcs
     00001B0C  A$funcs$317                        funcs
     00001B0C  C$funcs.c$80$1$68                  funcs
     00001B0F  A$funcs$318                        funcs
     00001B12  A$funcs$319                        funcs
     00001B13  A$funcs$320                        funcs
     00001B16  A$funcs$321                        funcs
     00001B18  A$funcs$322                        funcs
     00001B19  A$funcs$323                        funcs
     00001B1A  A$funcs$324                        funcs
     00001B1B  A$funcs$325                        funcs
     00001B1E  A$funcs$326                        funcs
     00001B1F  A$funcs$327                        funcs
     00001B20  A$funcs$328                        funcs
     00001B21  A$funcs$329                        funcs
     00001B22  A$funcs$330                        funcs
     00001B25  A$funcs$331                        funcs
     00001B26  A$funcs$332                        funcs
     00001B27  A$funcs$333                        funcs
     00001B28  A$funcs$337                        funcs
     00001B28  C$funcs.c$81$1$68                  funcs
     00001B2B  A$funcs$338                        funcs
     00001B2E  A$funcs$339                        funcs
     00001B2F  A$funcs$340                        funcs
     00001B30  A$funcs$341                        funcs
     00001B33  A$funcs$342                        funcs
     00001B35  A$funcs$343                        funcs
     00001B36  A$funcs$344                        funcs
     00001B37  A$funcs$345                        funcs
     00001B38  A$funcs$346                        funcs
     00001B39  A$funcs$347                        funcs
     00001B3A  A$funcs$348                        funcs
     00001B3B  A$funcs$349                        funcs
     00001B3E  A$funcs$350                        funcs
     00001B3F  A$funcs$351                        funcs
     00001B40  A$funcs$352                        funcs
     00001B43  A$funcs$353                        funcs
     00001B44  A$funcs$354                        funcs
     00001B45  A$funcs$355                        funcs
     00001B46  A$funcs$356                        funcs
     00001B47  A$funcs$360                        funcs
     00001B47  C$funcs.c$82$1$68                  funcs
     00001B4A  A$funcs$361                        funcs
     00001B4D  A$funcs$362                        funcs
     00001B4E  A$funcs$363                        funcs
ASxxxx Linker V03.00 + NoICE + sdld,  page 89.
Hexadecimal  [32-Bits]

Area                                    Addr        Size        Decimal Bytes (Attributes)
--------------------------------        ----        ----        ------- ----- ------------
_CODE                               00000200    00002471 =        9329. bytes (REL,CON)

      Value  Global                              Global Defined In Module
      -----  --------------------------------   ------------------------
     00001B4F  A$funcs$364                        funcs
     00001B50  A$funcs$365                        funcs
     00001B51  A$funcs$366                        funcs
     00001B52  A$funcs$367                        funcs
     00001B53  A$funcs$368                        funcs
     00001B56  A$funcs$369                        funcs
     00001B57  A$funcs$370                        funcs
     00001B58  A$funcs$371                        funcs
     00001B5A  A$funcs$376                        funcs
     00001B5A  C$funcs.c$83$1$68                  funcs
     00001B5A  XG$DrawQuadSprite$0$0              funcs
     00001B5B  A$funcs$389                        funcs
     00001B5B  C$funcs.c$86$1$68                  funcs
     00001B5B  C$funcs.c$89$1$70                  funcs
     00001B5B  G$LoadSprite$0$0                   funcs
     00001B5B  _LoadSprite                        funcs
     00001B5E  A$funcs$390                        funcs
     00001B5F  A$funcs$391                        funcs
     00001B60  A$funcs$392                        funcs
     00001B61  A$funcs$393                        funcs
     00001B62  A$funcs$394                        funcs
     00001B65  A$funcs$395                        funcs
     00001B66  A$funcs$399                        funcs
     00001B66  C$funcs.c$92$1$70                  funcs
     00001B67  A$funcs$400                        funcs
     00001B68  A$funcs$401                        funcs
     00001B69  A$funcs$402                        funcs
     00001B6A  A$funcs$403                        funcs
     00001B6D  A$funcs$404                        funcs
     00001B6E  A$funcs$405                        funcs
     00001B6F  A$funcs$406                        funcs
     00001B70  A$funcs$407                        funcs
     00001B71  A$funcs$408                        funcs
     00001B72  A$funcs$409                        funcs
     00001B73  A$funcs$410                        funcs
     00001B74  A$funcs$411                        funcs
     00001B77  A$funcs$412                        funcs
     00001B78  A$funcs$416                        funcs
     00001B78  C$funcs.c$95$1$70                  funcs
     00001B7A  A$funcs$417                        funcs
     00001B7B  A$funcs$418                        funcs
     00001B7C  A$funcs$419                        funcs
     00001B7F  A$funcs$420                        funcs
     00001B80  A$funcs$425                        funcs
     00001B80  C$funcs.c$96$1$70                  funcs
     00001B80  XG$LoadSprite$0$0                  funcs
     00001B81  A$funcs$438                        funcs
     00001B81  C$funcs.c$102$1$72                 funcs
     00001B81  C$funcs.c$99$1$70                  funcs
     00001B81  G$LoadTiles$0$0                    funcs
     00001B81  _LoadTiles                         funcs
ASxxxx Linker V03.00 + NoICE + sdld,  page 90.
Hexadecimal  [32-Bits]

Area                                    Addr        Size        Decimal Bytes (Attributes)
--------------------------------        ----        ----        ------- ----- ------------
_CODE                               00000200    00002471 =        9329. bytes (REL,CON)

      Value  Global                              Global Defined In Module
      -----  --------------------------------   ------------------------
     00001B84  A$funcs$439                        funcs
     00001B85  A$funcs$440                        funcs
     00001B86  A$funcs$441                        funcs
     00001B87  A$funcs$442                        funcs
     00001B88  A$funcs$443                        funcs
     00001B8B  A$funcs$444                        funcs
     00001B8C  A$funcs$448                        funcs
     00001B8C  C$funcs.c$105$1$72                 funcs
     00001B8D  A$funcs$449                        funcs
     00001B8E  A$funcs$450                        funcs
     00001B8F  A$funcs$451                        funcs
     00001B90  A$funcs$452                        funcs
     00001B93  A$funcs$453                        funcs
     00001B94  A$funcs$454                        funcs
     00001B95  A$funcs$455                        funcs
     00001B98  A$funcs$456                        funcs
     00001B99  A$funcs$457                        funcs
     00001B9A  A$funcs$462                        funcs
     00001B9A  C$funcs.c$106$1$72                 funcs
     00001B9A  XG$LoadTiles$0$0                   funcs
     00001B9B  A$funcs$475                        funcs
     00001B9B  C$funcs.c$109$1$72                 funcs
     00001B9B  C$funcs.c$112$1$74                 funcs
     00001B9B  G$LoadGraphics$0$0                 funcs
     00001B9B  _LoadGraphics                      funcs
     00001B9E  A$funcs$476                        funcs
     00001B9F  A$funcs$477                        funcs
     00001BA0  A$funcs$478                        funcs
     00001BA1  A$funcs$479                        funcs
     00001BA2  A$funcs$480                        funcs
     00001BA5  A$funcs$481                        funcs
     00001BA6  A$funcs$482                        funcs
     00001BA7  A$funcs$483                        funcs
     00001BA8  A$funcs$484                        funcs
     00001BA9  A$funcs$485                        funcs
     00001BAA  A$funcs$486                        funcs
     00001BAD  A$funcs$487                        funcs
     00001BAE  A$funcs$488                        funcs
     00001BAF  A$funcs$492                        funcs
     00001BAF  C$funcs.c$115$1$74                 funcs
     00001BB2  A$funcs$493                        funcs
     00001BB3  A$funcs$494                        funcs
     00001BB4  A$funcs$495                        funcs
     00001BB5  A$funcs$496                        funcs
     00001BB6  A$funcs$497                        funcs
     00001BB7  A$funcs$498                        funcs
     00001BBA  A$funcs$499                        funcs
     00001BBB  A$funcs$500                        funcs
     00001BBC  A$funcs$501                        funcs
     00001BBD  A$funcs$502                        funcs
     00001BBE  A$funcs$503                        funcs
ASxxxx Linker V03.00 + NoICE + sdld,  page 91.
Hexadecimal  [32-Bits]

Area                                    Addr        Size        Decimal Bytes (Attributes)
--------------------------------        ----        ----        ------- ----- ------------
_CODE                               00000200    00002471 =        9329. bytes (REL,CON)

      Value  Global                              Global Defined In Module
      -----  --------------------------------   ------------------------
     00001BBF  A$funcs$504                        funcs
     00001BC2  A$funcs$505                        funcs
     00001BC3  A$funcs$506                        funcs
     00001BC6  A$funcs$507                        funcs
     00001BC9  A$funcs$508                        funcs
     00001BCA  A$funcs$509                        funcs
     00001BCB  A$funcs$514                        funcs
     00001BCB  C$funcs.c$116$1$74                 funcs
     00001BCB  XG$LoadGraphics$0$0                funcs
     00001BCC  A$funcs$527                        funcs
     00001BCC  C$funcs.c$119$1$74                 funcs
     00001BCC  C$funcs.c$122$1$76                 funcs
     00001BCC  G$LoadBGPalette$0$0                funcs
     00001BCC  _LoadBGPalette                     funcs
     00001BCF  A$funcs$528                        funcs
     00001BD0  A$funcs$529                        funcs
     00001BD1  A$funcs$530                        funcs
     00001BD2  A$funcs$531                        funcs
     00001BD3  A$funcs$532                        funcs
     00001BD6  A$funcs$533                        funcs
     00001BD7  A$funcs$537                        funcs
     00001BD7  C$funcs.c$125$1$76                 funcs
     00001BD8  A$funcs$538                        funcs
     00001BD9  A$funcs$539                        funcs
     00001BDA  A$funcs$540                        funcs
     00001BDB  A$funcs$541                        funcs
     00001BDC  A$funcs$542                        funcs
     00001BDF  A$funcs$543                        funcs
     00001BE0  A$funcs$548                        funcs
     00001BE0  C$funcs.c$126$1$76                 funcs
     00001BE0  XG$LoadBGPalette$0$0               funcs
     00001BE1  A$funcs$561                        funcs
     00001BE1  C$funcs.c$129$1$76                 funcs
     00001BE1  C$funcs.c$132$1$77                 funcs
     00001BE1  G$LoadSpritePalette$0$0            funcs
     00001BE1  _LoadSpritePalette                 funcs
     00001BE3  A$funcs$562                        funcs
     00001BE4  A$funcs$563                        funcs
     00001BE5  A$funcs$564                        funcs
     00001BE8  A$funcs$565                        funcs
     00001BE9  A$funcs$569                        funcs
     00001BE9  C$funcs.c$135$1$77                 funcs
     00001BEC  A$funcs$570                        funcs
     00001BED  A$funcs$571                        funcs
     00001BF0  A$funcs$572                        funcs
     00001BF1  A$funcs$577                        funcs
     00001BF1  C$funcs.c$136$1$77                 funcs
     00001BF1  XG$LoadSpritePalette$0$0           funcs
     00001BF2  A$funcs$590                        funcs
     00001BF2  C$funcs.c$138$1$77                 funcs
     00001BF2  C$funcs.c$140$1$79                 funcs
ASxxxx Linker V03.00 + NoICE + sdld,  page 92.
Hexadecimal  [32-Bits]

Area                                    Addr        Size        Decimal Bytes (Attributes)
--------------------------------        ----        ----        ------- ----- ------------
_CODE                               00000200    00002471 =        9329. bytes (REL,CON)

      Value  Global                              Global Defined In Module
      -----  --------------------------------   ------------------------
     00001BF2  G$InterruptHandler$0$0             funcs
     00001BF2  _InterruptHandler                  funcs
     00001BF5  A$funcs$591                        funcs
     00001BF6  A$funcs$596                        funcs
     00001BF6  C$funcs.c$141$1$79                 funcs
     00001BF6  XG$InterruptHandler$0$0            funcs
     00001BF7  A$funcs$609                        funcs
     00001BF7  C$funcs.c$144$1$79                 funcs
     00001BF7  C$funcs.c$147$1$80                 funcs
     00001BF7  G$InitConsole$0$0                  funcs
     00001BF7  _InitConsole                       funcs
     00001BFA  A$funcs$613                        funcs
     00001BFA  C$funcs.c$150$1$80                 funcs
     00001BFD  A$funcs$617                        funcs
     00001BFD  C$funcs.c$153$1$80                 funcs
     00001C00  A$funcs$618                        funcs
     00001C01  A$funcs$619                        funcs
     00001C04  A$funcs$623                        funcs
     00001C04  C$funcs.c$154$1$80                 funcs
     00001C06  A$funcs$624                        funcs
     00001C07  A$funcs$625                        funcs
     00001C08  A$funcs$626                        funcs
     00001C0B  A$funcs$627                        funcs
     00001C0C  A$funcs$631                        funcs
     00001C0C  C$funcs.c$155$1$80                 funcs
     00001C0F  A$funcs$635                        funcs
     00001C0F  C$funcs.c$158$1$80                 funcs
     00001C12  A$funcs$636                        funcs
     00001C13  A$funcs$637                        funcs
     00001C16  A$funcs$638                        funcs
     00001C17  A$funcs$643                        funcs
     00001C17  C$funcs.c$159$1$80                 funcs
     00001C17  XG$InitConsole$0$0                 funcs
     00001C18  A$funcs$656                        funcs
     00001C18  C$funcs.c$162$1$80                 funcs
     00001C18  C$funcs.c$166$1$81                 funcs
     00001C18  G$fillBackground$0$0               funcs
     00001C18  _fillBackground                    funcs
     00001C1B  A$funcs$657                        funcs
     00001C1C  A$funcs$658                        funcs
     00001C1F  A$funcs$659                        funcs
     00001C20  A$funcs$663                        funcs
     00001C23  A$funcs$668                        funcs
     00001C23  C$funcs.c$168$2$82                 funcs
     00001C24  A$funcs$669                        funcs
     00001C25  A$funcs$670                        funcs
     00001C26  A$funcs$671                        funcs
     00001C27  A$funcs$672                        funcs
     00001C2A  A$funcs$673                        funcs
     00001C2B  A$funcs$674                        funcs
     00001C2C  A$funcs$678                        funcs
ASxxxx Linker V03.00 + NoICE + sdld,  page 93.
Hexadecimal  [32-Bits]

Area                                    Addr        Size        Decimal Bytes (Attributes)
--------------------------------        ----        ----        ------- ----- ------------
_CODE                               00000200    00002471 =        9329. bytes (REL,CON)

      Value  Global                              Global Defined In Module
      -----  --------------------------------   ------------------------
     00001C2C  C$funcs.c$167$2$82                 funcs
     00001C2D  A$funcs$679                        funcs
     00001C2E  A$funcs$680                        funcs
     00001C30  A$funcs$681                        funcs
     00001C31  A$funcs$682                        funcs
     00001C33  A$funcs$683                        funcs
     00001C35  A$funcs$688                        funcs
     00001C35  C$funcs.c$169$2$82                 funcs
     00001C35  XG$fillBackground$0$0              funcs
     00001C36  A$funcs$701                        funcs
     00001C36  C$funcs.c$172$2$82                 funcs
     00001C36  C$funcs.c$175$1$83                 funcs
     00001C36  G$ClearScreen$0$0                  funcs
     00001C36  _ClearScreen                       funcs
     00001C39  A$funcs$705                        funcs
     00001C39  C$funcs.c$176$1$83                 funcs
     00001C3C  A$funcs$709                        funcs
     00001C3C  C$funcs.c$177$1$83                 funcs
     00001C3F  A$funcs$713                        funcs
     00001C3F  C$funcs.c$180$1$83                 funcs
     00001C42  A$funcs$717                        funcs
     00001C42  C$funcs.c$183$1$83                 funcs
     00001C43  A$funcs$718                        funcs
     00001C44  A$funcs$719                        funcs
     00001C45  A$funcs$720                        funcs
     00001C48  A$funcs$721                        funcs
     00001C49  A$funcs$726                        funcs
     00001C49  C$funcs.c$184$1$83                 funcs
     00001C49  XG$ClearScreen$0$0                 funcs
     00001C4A  A$funcs$739                        funcs
     00001C4A  C$funcs.c$187$1$83                 funcs
     00001C4A  C$funcs.c$189$1$85                 funcs
     00001C4A  G$UpdateScroll$0$0                 funcs
     00001C4A  _UpdateScroll                      funcs
     00001C4D  A$funcs$740                        funcs
     00001C4E  A$funcs$741                        funcs
     00001C4F  A$funcs$742                        funcs
     00001C50  A$funcs$743                        funcs
     00001C51  A$funcs$744                        funcs
     00001C54  A$funcs$745                        funcs
     00001C55  A$funcs$749                        funcs
     00001C55  C$funcs.c$190$1$85                 funcs
     00001C58  A$funcs$750                        funcs
     00001C59  A$funcs$751                        funcs
     00001C5A  A$funcs$752                        funcs
     00001C5B  A$funcs$753                        funcs
     00001C5C  A$funcs$754                        funcs
     00001C5F  A$funcs$755                        funcs
     00001C60  A$funcs$760                        funcs
     00001C60  C$funcs.c$191$1$85                 funcs
     00001C60  XG$UpdateScroll$0$0                funcs
ASxxxx Linker V03.00 + NoICE + sdld,  page 94.
Hexadecimal  [32-Bits]

Area                                    Addr        Size        Decimal Bytes (Attributes)
--------------------------------        ----        ----        ------- ----- ------------
_CODE                               00000200    00002471 =        9329. bytes (REL,CON)

      Value  Global                              Global Defined In Module
      -----  --------------------------------   ------------------------
     00001C61  A$funcs$770                        funcs
     00001C61  C$funcs.c$194$1$85                 funcs
     00001C61  G$WriteText$0$0                    funcs
     00001C61  _WriteText                         funcs
     00001C63  A$funcs$771                        funcs
     00001C67  A$funcs$772                        funcs
     00001C69  A$funcs$776                        funcs
     00001C69  C$funcs.c$199$1$87                 funcs
     00001C6C  A$funcs$777                        funcs
     00001C6F  A$funcs$778                        funcs
     00001C70  A$funcs$779                        funcs
     00001C73  A$funcs$780                        funcs
     00001C74  A$funcs$784                        funcs
     00001C74  C$funcs.c$201$1$87                 funcs
     00001C77  A$funcs$786                        funcs
     00001C7A  A$funcs$787                        funcs
     00001C7D  A$funcs$788                        funcs
     00001C7E  A$funcs$789                        funcs
     00001C7F  A$funcs$790                        funcs
     00001C80  A$funcs$791                        funcs
     00001C81  A$funcs$792                        funcs
     00001C83  A$funcs$796                        funcs
     00001C83  C$funcs.c$202$1$87                 funcs
     00001C84  A$funcs$797                        funcs
     00001C86  A$funcs$798                        funcs
     00001C88  A$funcs$799                        funcs
     00001C8A  A$funcs$800                        funcs
     00001C8C  A$funcs$804                        funcs
     00001C8C  C$funcs.c$203$1$87                 funcs
     00001C8D  A$funcs$805                        funcs
     00001C8E  A$funcs$806                        funcs
     00001C8F  A$funcs$807                        funcs
     00001C92  A$funcs$808                        funcs
     00001C95  A$funcs$809                        funcs
     00001C96  A$funcs$810                        funcs
     00001C97  A$funcs$811                        funcs
     00001C99  A$funcs$812                        funcs
     00001C9A  A$funcs$813                        funcs
     00001C9B  A$funcs$814                        funcs
     00001C9C  A$funcs$815                        funcs
     00001C9D  A$funcs$816                        funcs
     00001CA0  A$funcs$817                        funcs
     00001CA1  A$funcs$818                        funcs
     00001CA2  A$funcs$819                        funcs
     00001CA4  A$funcs$821                        funcs
     00001CA6  A$funcs$826                        funcs
     00001CA6  C$funcs.c$204$1$87                 funcs
     00001CA6  XG$WriteText$0$0                   funcs
     00001CA7  A$funcs$836                        funcs
     00001CA7  C$funcs.c$207$1$87                 funcs
     00001CA7  G$WriteNumber$0$0                  funcs
ASxxxx Linker V03.00 + NoICE + sdld,  page 95.
Hexadecimal  [32-Bits]

Area                                    Addr        Size        Decimal Bytes (Attributes)
--------------------------------        ----        ----        ------- ----- ------------
_CODE                               00000200    00002471 =        9329. bytes (REL,CON)

      Value  Global                              Global Defined In Module
      -----  --------------------------------   ------------------------
     00001CA7  _WriteNumber                       funcs
     00001CA9  A$funcs$837                        funcs
     00001CAD  A$funcs$838                        funcs
     00001CAF  A$funcs$842                        funcs
     00001CAF  C$funcs.c$210$1$89                 funcs
     00001CB2  A$funcs$843                        funcs
     00001CB5  A$funcs$844                        funcs
     00001CB6  A$funcs$848                        funcs
     00001CB6  C$funcs.c$213$1$89                 funcs
     00001CB9  A$funcs$849                        funcs
     00001CBA  A$funcs$850                        funcs
     00001CBD  A$funcs$851                        funcs
     00001CC0  A$funcs$853                        funcs
     00001CC1  A$funcs$854                        funcs
     00001CC2  A$funcs$855                        funcs
     00001CC3  A$funcs$856                        funcs
     00001CC4  A$funcs$857                        funcs
     00001CC5  A$funcs$858                        funcs
     00001CC7  A$funcs$862                        funcs
     00001CC7  C$funcs.c$215$2$90                 funcs
     00001CC8  A$funcs$863                        funcs
     00001CC9  A$funcs$864                        funcs
     00001CCC  A$funcs$865                        funcs
     00001CCD  A$funcs$866                        funcs
     00001CCE  A$funcs$867                        funcs
     00001CD1  A$funcs$868                        funcs
     00001CD2  A$funcs$869                        funcs
     00001CD3  A$funcs$870                        funcs
     00001CD4  A$funcs$871                        funcs
     00001CD5  A$funcs$872                        funcs
     00001CD8  A$funcs$873                        funcs
     00001CDB  A$funcs$874                        funcs
     00001CDC  A$funcs$875                        funcs
     00001CDF  A$funcs$876                        funcs
     00001CE2  A$funcs$877                        funcs
     00001CE3  A$funcs$878                        funcs
     00001CE6  A$funcs$879                        funcs
     00001CE7  A$funcs$880                        funcs
     00001CE8  A$funcs$881                        funcs
     00001CE9  A$funcs$882                        funcs
     00001CEA  A$funcs$883                        funcs
     00001CEB  A$funcs$884                        funcs
     00001CED  A$funcs$885                        funcs
     00001CEE  A$funcs$886                        funcs
     00001CEF  A$funcs$887                        funcs
     00001CF0  A$funcs$888                        funcs
     00001CF1  A$funcs$889                        funcs
     00001CF4  A$funcs$890                        funcs
     00001CF5  A$funcs$891                        funcs
     00001CF8  A$funcs$892                        funcs
     00001CF9  A$funcs$893                        funcs
ASxxxx Linker V03.00 + NoICE + sdld,  page 96.
Hexadecimal  [32-Bits]

Area                                    Addr        Size        Decimal Bytes (Attributes)
--------------------------------        ----        ----        ------- ----- ------------
_CODE                               00000200    00002471 =        9329. bytes (REL,CON)

      Value  Global                              Global Defined In Module
      -----  --------------------------------   ------------------------
     00001CFC  A$funcs$894                        funcs
     00001CFF  A$funcs$895                        funcs
     00001D00  A$funcs$896                        funcs
     00001D03  A$funcs$897                        funcs
     00001D04  A$funcs$898                        funcs
     00001D05  A$funcs$899                        funcs
     00001D06  A$funcs$900                        funcs
     00001D07  A$funcs$901                        funcs
     00001D0A  A$funcs$902                        funcs
     00001D0D  A$funcs$903                        funcs
     00001D0F  A$funcs$905                        funcs
     00001D11  A$funcs$910                        funcs
     00001D11  C$funcs.c$219$1$89                 funcs
     00001D11  XG$WriteNumber$0$0                 funcs
     00001D12  A$funcs$923                        funcs
     00001D12  C$funcs.c$222$1$89                 funcs
     00001D12  C$funcs.c$224$1$91                 funcs
     00001D12  G$ClearTiles$0$0                   funcs
     00001D12  _ClearTiles                        funcs
     00001D15  A$funcs$924                        funcs
     00001D16  A$funcs$925                        funcs
     00001D17  A$funcs$926                        funcs
     00001D18  A$funcs$927                        funcs
     00001D19  A$funcs$928                        funcs
     00001D1B  A$funcs$929                        funcs
     00001D1C  A$funcs$930                        funcs
     00001D1F  A$funcs$931                        funcs
     00001D20  A$funcs$932                        funcs
     00001D21  A$funcs$933                        funcs
     00001D22  A$funcs$938                        funcs
     00001D22  C$funcs.c$225$1$91                 funcs
     00001D22  XG$ClearTiles$0$0                  funcs
     00001D23  A$funcs$951                        funcs
     00001D23  C$funcs.c$228$1$91                 funcs
     00001D23  C$funcs.c$231$1$92                 funcs
     00001D23  G$LoadFont$0$0                     funcs
     00001D23  _LoadFont                          funcs
     00001D25  A$funcs$952                        funcs
     00001D26  A$funcs$953                        funcs
     00001D27  A$funcs$954                        funcs
     00001D2A  A$funcs$955                        funcs
     00001D2B  A$funcs$959                        funcs
     00001D2B  C$funcs.c$234$1$92                 funcs
     00001D2E  A$funcs$960                        funcs
     00001D2F  A$funcs$961                        funcs
     00001D32  A$funcs$962                        funcs
     00001D33  A$funcs$963                        funcs
     00001D36  A$funcs$964                        funcs
     00001D37  A$funcs$965                        funcs
     00001D38  A$funcs$970                        funcs
     00001D38  C$funcs.c$235$1$92                 funcs
ASxxxx Linker V03.00 + NoICE + sdld,  page 97.
Hexadecimal  [32-Bits]

Area                                    Addr        Size        Decimal Bytes (Attributes)
--------------------------------        ----        ----        ------- ----- ------------
_CODE                               00000200    00002471 =        9329. bytes (REL,CON)

      Value  Global                              Global Defined In Module
      -----  --------------------------------   ------------------------
     00001D38  XG$LoadFont$0$0                    funcs
     00001D39  A$funcs$983                        funcs
     00001D39  C$funcs.c$238$1$92                 funcs
     00001D39  C$funcs.c$241$1$93                 funcs
     00001D39  G$InitStage$0$0                    funcs
     00001D39  _InitStage                         funcs
     00001D3C  A$funcs$987                        funcs
     00001D3C  C$funcs.c$242$1$93                 funcs
     00001D3F  A$funcs$991                        funcs
     00001D3F  C$funcs.c$245$1$93                 funcs
     00001D42  A$funcs$995                        funcs
     00001D42  C$funcs.c$248$1$93                 funcs
     00001D45  A$funcs$996                        funcs
     00001D48  A$funcs$1000                       funcs
     00001D48  C$funcs.c$251$1$93                 funcs
     00001D4B  A$funcs$1004                       funcs
     00001D4B  C$funcs.c$254$1$93                 funcs
     00001D4E  A$funcs$1008                       funcs
     00001D4E  C$funcs.c$257$1$93                 funcs
     00001D51  A$funcs$1012                       funcs
     00001D51  C$funcs.c$260$1$93                 funcs
     00001D54  A$funcs$1013                       funcs
     00001D55  A$funcs$1014                       funcs
     00001D57  A$funcs$1015                       funcs
     00001D58  A$funcs$1016                       funcs
     00001D5B  A$funcs$1017                       funcs
     00001D5C  A$funcs$1018                       funcs
     00001D5D  A$funcs$1022                       funcs
     00001D5D  C$funcs.c$263$1$93                 funcs
     00001D60  A$funcs$1026                       funcs
     00001D60  C$funcs.c$266$1$93                 funcs
     00001D63  A$funcs$1030                       funcs
     00001D63  C$funcs.c$269$1$93                 funcs
     00001D66  A$funcs$1031                       funcs
     00001D68  A$funcs$1035                       funcs
     00001D68  C$funcs.c$272$1$93                 funcs
     00001D6B  A$funcs$1036                       funcs
     00001D6D  A$funcs$1041                       funcs
     00001D6D  C$funcs.c$273$1$93                 funcs
     00001D6D  XG$InitStage$0$0                   funcs
     00001D6E  A$funcs$1054                       funcs
     00001D6E  C$funcs.c$275$1$93                 funcs
     00001D6E  C$funcs.c$277$1$94                 funcs
     00001D6E  G$checkgamepause$0$0               funcs
     00001D6E  _checkgamepause                    funcs
     00001D71  A$funcs$1055                       funcs
     00001D72  A$funcs$1056                       funcs
     00001D73  A$funcs$1057                       funcs
     00001D74  A$funcs$1061                       funcs
     00001D74  C$funcs.c$279$2$95                 funcs
     00001D77  A$funcs$1065                       funcs
ASxxxx Linker V03.00 + NoICE + sdld,  page 98.
Hexadecimal  [32-Bits]

Area                                    Addr        Size        Decimal Bytes (Attributes)
--------------------------------        ----        ----        ------- ----- ------------
_CODE                               00000200    00002471 =        9329. bytes (REL,CON)

      Value  Global                              Global Defined In Module
      -----  --------------------------------   ------------------------
     00001D77  C$funcs.c$280$2$95                 funcs
     00001D7A  A$funcs$1066                       funcs
     00001D7C  A$funcs$1067                       funcs
     00001D7D  A$funcs$1068                       funcs
     00001D7E  A$funcs$1072                       funcs
     00001D7E  C$funcs.c$281$2$95                 funcs
     00001D81  A$funcs$1073                       funcs
     00001D82  A$funcs$1074                       funcs
     00001D84  A$funcs$1078                       funcs
     00001D84  C$funcs.c$282$2$95                 funcs
     00001D87  A$funcs$1079                       funcs
     00001D88  A$funcs$1080                       funcs
     00001D8B  A$funcs$1081                       funcs
     00001D8C  A$funcs$1082                       funcs
     00001D8F  A$funcs$1083                       funcs
     00001D90  A$funcs$1084                       funcs
     00001D91  A$funcs$1085                       funcs
     00001D92  A$funcs$1090                       funcs
     00001D92  C$funcs.c$284$2$95                 funcs
     00001D95  A$funcs$1091                       funcs
     00001D96  A$funcs$1092                       funcs
     00001D97  A$funcs$1093                       funcs
     00001D9A  A$funcs$1094                       funcs
     00001D9B  A$funcs$1095                       funcs
     00001D9C  A$funcs$1096                       funcs
     00001D9F  A$funcs$1097                       funcs
     00001DA0  A$funcs$1098                       funcs
     00001DA3  A$funcs$1099                       funcs
     00001DA4  A$funcs$1100                       funcs
     00001DA5  A$funcs$1105                       funcs
     00001DA5  C$funcs.c$286$1$94                 funcs
     00001DA5  XG$checkgamepause$0$0              funcs
     00001DA6  A$funcs$1118                       funcs
     00001DA6  C$funcs.c$289$1$94                 funcs
     00001DA6  C$funcs.c$292$1$96                 funcs
     00001DA6  G$UpdatePlayStage$0$0              funcs
     00001DA6  _UpdatePlayStage                   funcs
     00001DA8  A$funcs$1119                       funcs
     00001DA9  A$funcs$1120                       funcs
     00001DAA  A$funcs$1121                       funcs
     00001DAD  A$funcs$1122                       funcs
     00001DAE  A$funcs$1126                       funcs
     00001DAE  C$funcs.c$295$1$96                 funcs
     00001DB1  A$funcs$1127                       funcs
     00001DB5  A$funcs$1128                       funcs
     00001DB8  A$funcs$1129                       funcs
     00001DBA  A$funcs$1130                       funcs
     00001DBB  A$funcs$1131                       funcs
     00001DBC  A$funcs$1132                       funcs
     00001DBD  A$funcs$1133                       funcs
     00001DBE  A$funcs$1134                       funcs
ASxxxx Linker V03.00 + NoICE + sdld,  page 99.
Hexadecimal  [32-Bits]

Area                                    Addr        Size        Decimal Bytes (Attributes)
--------------------------------        ----        ----        ------- ----- ------------
_CODE                               00000200    00002471 =        9329. bytes (REL,CON)

      Value  Global                              Global Defined In Module
      -----  --------------------------------   ------------------------
     00001DBF  A$funcs$1135                       funcs
     00001DC0  A$funcs$1140                       funcs
     00001DC0  C$funcs.c$296$1$96                 funcs
     00001DC0  XG$UpdatePlayStage$0$0             funcs
     00001DC3  A$funcs$1153                       funcs
     00001DC3  C$funcs.c$300$1$96                 funcs
     00001DC3  C$funcs.c$303$1$97                 funcs
     00001DC3  G$UpdateStage$0$0                  funcs
     00001DC3  _UpdateStage                       funcs
     00001DC7  A$funcs$1154                       funcs
     00001DCA  A$funcs$1155                       funcs
     00001DCC  A$funcs$1156                       funcs
     00001DCF  A$funcs$1161                       funcs
     00001DCF  C$funcs.c$306$1$97                 funcs
     00001DD2  A$funcs$1162                       funcs
     00001DD4  A$funcs$1163                       funcs
     00001DD5  A$funcs$1164                       funcs
     00001DD8  A$funcs$1165                       funcs
     00001DD9  A$funcs$1169                       funcs
     00001DD9  C$funcs.c$307$1$97                 funcs
     00001DDC  A$funcs$1170                       funcs
     00001DDE  A$funcs$1171                       funcs
     00001DDF  A$funcs$1172                       funcs
     00001DE2  A$funcs$1173                       funcs
     00001DE3  A$funcs$1177                       funcs
     00001DE3  C$funcs.c$310$1$97                 funcs
     00001DE6  A$funcs$1178                       funcs
     00001DE8  A$funcs$1179                       funcs
     00001DEA  A$funcs$1180                       funcs
     00001DEB  A$funcs$1181                       funcs
     00001DED  A$funcs$1182                       funcs
     00001DEE  A$funcs$1183                       funcs
     00001DF1  A$funcs$1184                       funcs
     00001DF2  A$funcs$1188                       funcs
     00001DF2  C$funcs.c$311$1$97                 funcs
     00001DF5  A$funcs$1189                       funcs
     00001DF7  A$funcs$1190                       funcs
     00001DF9  A$funcs$1191                       funcs
     00001DFB  A$funcs$1192                       funcs
     00001DFD  A$funcs$1193                       funcs
     00001DFF  A$funcs$1194                       funcs
     00001E01  A$funcs$1195                       funcs
     00001E02  A$funcs$1196                       funcs
     00001E04  A$funcs$1197                       funcs
     00001E05  A$funcs$1198                       funcs
     00001E06  A$funcs$1199                       funcs
     00001E0A  A$funcs$1200                       funcs
     00001E0D  A$funcs$1204                       funcs
     00001E0D  C$funcs.c$312$1$97                 funcs
     00001E10  A$funcs$1205                       funcs
     00001E12  A$funcs$1206                       funcs
ASxxxx Linker V03.00 + NoICE + sdld,  page 100.
Hexadecimal  [32-Bits]

Area                                    Addr        Size        Decimal Bytes (Attributes)
--------------------------------        ----        ----        ------- ----- ------------
_CODE                               00000200    00002471 =        9329. bytes (REL,CON)

      Value  Global                              Global Defined In Module
      -----  --------------------------------   ------------------------
     00001E14  A$funcs$1207                       funcs
     00001E18  A$funcs$1212                       funcs
     00001E18  C$funcs.c$316$1$97                 funcs
     00001E1B  A$funcs$1213                       funcs
     00001E1C  A$funcs$1214                       funcs
     00001E1E  A$funcs$1218                       funcs
     00001E1E  C$funcs.c$319$2$98                 funcs
     00001E21  A$funcs$1222                       funcs
     00001E21  C$funcs.c$322$2$98                 funcs
     00001E24  A$funcs$1223                       funcs
     00001E26  A$funcs$1227                       funcs
     00001E26  C$funcs.c$325$2$98                 funcs
     00001E29  A$funcs$1231                       funcs
     00001E29  C$funcs.c$328$2$98                 funcs
     00001E2C  A$funcs$1235                       funcs
     00001E2C  C$funcs.c$331$2$98                 funcs
     00001E2F  A$funcs$1239                       funcs
     00001E2F  C$funcs.c$334$2$98                 funcs
     00001E32  A$funcs$1240                       funcs
     00001E33  A$funcs$1241                       funcs
     00001E35  A$funcs$1245                       funcs
     00001E35  C$funcs.c$335$2$98                 funcs
     00001E38  A$funcs$1246                       funcs
     00001E3A  A$funcs$1251                       funcs
     00001E3A  C$funcs.c$340$2$99                 funcs
     00001E3D  A$funcs$1252                       funcs
     00001E3E  A$funcs$1253                       funcs
     00001E40  A$funcs$1257                       funcs
     00001E40  C$funcs.c$341$2$99                 funcs
     00001E43  A$funcs$1262                       funcs
     00001E43  C$funcs.c$345$1$97                 funcs
     00001E46  A$funcs$1263                       funcs
     00001E49  A$funcs$1268                       funcs
     00001E49  C$funcs.c$346$1$97                 funcs
     00001E49  XG$UpdateStage$0$0                 funcs
     00001E4A  A$funcs$1281                       funcs
     00001E4A  C$funcs.c$348$1$97                 funcs
     00001E4A  C$funcs.c$350$1$101                funcs
     00001E4A  G$PlaySound$0$0                    funcs
     00001E4A  _PlaySound                         funcs
     00001E4D  A$funcs$1282                       funcs
     00001E4E  A$funcs$1283                       funcs
     00001E4F  A$funcs$1284                       funcs
     00001E50  A$funcs$1285                       funcs
     00001E52  A$funcs$1286                       funcs
     00001E55  A$funcs$1287                       funcs
     00001E56  A$funcs$1288                       funcs
     00001E57  A$funcs$1289                       funcs
     00001E58  A$funcs$1294                       funcs
     00001E58  C$funcs.c$352$2$102                funcs
     00001E5A  A$funcs$1295                       funcs
ASxxxx Linker V03.00 + NoICE + sdld,  page 101.
Hexadecimal  [32-Bits]

Area                                    Addr        Size        Decimal Bytes (Attributes)
--------------------------------        ----        ----        ------- ----- ------------
_CODE                               00000200    00002471 =        9329. bytes (REL,CON)

      Value  Global                              Global Defined In Module
      -----  --------------------------------   ------------------------
     00001E5B  A$funcs$1296                       funcs
     00001E5C  A$funcs$1297                       funcs
     00001E5F  A$funcs$1298                       funcs
     00001E60  A$funcs$1302                       funcs
     00001E60  C$funcs.c$353$2$102                funcs
     00001E63  A$funcs$1303                       funcs
     00001E64  A$funcs$1304                       funcs
     00001E65  A$funcs$1305                       funcs
     00001E66  A$funcs$1306                       funcs
     00001E67  A$funcs$1307                       funcs
     00001E68  A$funcs$1308                       funcs
     00001E69  A$funcs$1309                       funcs
     00001E6A  A$funcs$1310                       funcs
     00001E6B  A$funcs$1311                       funcs
     00001E6E  A$funcs$1312                       funcs
     00001E6F  A$funcs$1313                       funcs
     00001E70  A$funcs$1317                       funcs
     00001E70  C$funcs.c$354$2$102                funcs
     00001E72  A$funcs$1318                       funcs
     00001E73  A$funcs$1319                       funcs
     00001E74  A$funcs$1320                       funcs
     00001E77  A$funcs$1321                       funcs
     00001E78  A$funcs$1326                       funcs
     00001E78  C$funcs.c$356$1$101                funcs
     00001E78  XG$PlaySound$0$0                   funcs
     00001E79  A$funcs$1336                       funcs
     00001E79  C$funcs.c$359$1$101                funcs
     00001E79  G$PlayMusic$0$0                    funcs
     00001E79  _PlayMusic                         funcs
     00001E7B  A$funcs$1337                       funcs
     00001E7F  A$funcs$1338                       funcs
     00001E81  A$funcs$1342                       funcs
     00001E81  C$funcs.c$362$1$104                funcs
     00001E84  A$funcs$1343                       funcs
     00001E87  A$funcs$1347                       funcs
     00001E87  C$funcs.c$365$1$104                funcs
     00001E8A  A$funcs$1348                       funcs
     00001E8B  A$funcs$1349                       funcs
     00001E8C  A$funcs$1350                       funcs
     00001E8F  A$funcs$1351                       funcs
     00001E90  A$funcs$1355                       funcs
     00001E93  A$funcs$1356                       funcs
     00001E96  A$funcs$1360                       funcs
     00001E96  C$funcs.c$368$1$104                funcs
     00001E99  A$funcs$1361                       funcs
     00001E9A  A$funcs$1362                       funcs
     00001E9C  A$funcs$1366                       funcs
     00001E9C  C$funcs.c$369$1$104                funcs
     00001E9D  A$funcs$1367                       funcs
     00001EA0  A$funcs$1368                       funcs
     00001EA1  A$funcs$1369                       funcs
ASxxxx Linker V03.00 + NoICE + sdld,  page 102.
Hexadecimal  [32-Bits]

Area                                    Addr        Size        Decimal Bytes (Attributes)
--------------------------------        ----        ----        ------- ----- ------------
_CODE                               00000200    00002471 =        9329. bytes (REL,CON)

      Value  Global                              Global Defined In Module
      -----  --------------------------------   ------------------------
     00001EA3  A$funcs$1374                       funcs
     00001EA3  C$funcs.c$371$1$104                funcs
     00001EA4  A$funcs$1375                       funcs
     00001EA7  A$funcs$1376                       funcs
     00001EA8  A$funcs$1381                       funcs
     00001EA8  C$funcs.c$373$1$104                funcs
     00001EAB  A$funcs$1382                       funcs
     00001EAD  A$funcs$1383                       funcs
     00001EAF  A$funcs$1384                       funcs
     00001EB2  A$funcs$1385                       funcs
     00001EB4  A$funcs$1386                       funcs
     00001EB6  A$funcs$1388                       funcs
     00001EB9  A$funcs$1389                       funcs
     00001EBB  A$funcs$1390                       funcs
     00001EBD  A$funcs$1394                       funcs
     00001EBD  C$funcs.c$375$2$105                funcs
     00001EC0  A$funcs$1395                       funcs
     00001EC3  A$funcs$1396                       funcs
     00001EC6  A$funcs$1400                       funcs
     00001EC6  C$funcs.c$376$2$105                funcs
     00001EC9  A$funcs$1401                       funcs
     00001ECC  A$funcs$1405                       funcs
     00001ECC  C$funcs.c$377$2$105                funcs
     00001ECF  A$funcs$1406                       funcs
     00001ED2  A$funcs$1411                       funcs
     00001ED2  C$funcs.c$382$1$104                funcs
     00001ED4  A$funcs$1412                       funcs
     00001ED5  A$funcs$1413                       funcs
     00001ED6  A$funcs$1414                       funcs
     00001ED9  A$funcs$1415                       funcs
     00001EDA  A$funcs$1416                       funcs
     00001EDC  A$funcs$1421                       funcs
     00001EDC  C$funcs.c$383$1$104                funcs
     00001EDC  XG$PlayMusic$0$0                   funcs
     00001EDD  A$funcs$1434                       funcs
     00001EDD  C$funcs.c$387$1$104                funcs
     00001EDD  C$funcs.c$390$1$106                funcs
     00001EDD  G$UpdatePSG$0$0                    funcs
     00001EDD  _UpdatePSG                         funcs
     00001EE0  A$funcs$1435                       funcs
     00001EE1  A$funcs$1436                       funcs
     00001EE3  A$funcs$1440                       funcs
     00001EE3  C$funcs.c$392$2$107                funcs
     00001EE6  A$funcs$1441                       funcs
     00001EE7  A$funcs$1442                       funcs
     00001EE8  A$funcs$1443                       funcs
     00001EEB  A$funcs$1444                       funcs
     00001EEC  A$funcs$1448                       funcs
     00001EEC  C$funcs.c$393$2$107                funcs
     00001EEF  A$funcs$1453                       funcs
     00001EEF  C$funcs.c$397$1$106                funcs
ASxxxx Linker V03.00 + NoICE + sdld,  page 103.
Hexadecimal  [32-Bits]

Area                                    Addr        Size        Decimal Bytes (Attributes)
--------------------------------        ----        ----        ------- ----- ------------
_CODE                               00000200    00002471 =        9329. bytes (REL,CON)

      Value  Global                              Global Defined In Module
      -----  --------------------------------   ------------------------
     00001EF2  A$funcs$1454                       funcs
     00001EF3  A$funcs$1455                       funcs
     00001EF4  A$funcs$1456                       funcs
     00001EF5  A$funcs$1460                       funcs
     00001EF5  C$funcs.c$399$2$108                funcs
     00001EF7  A$funcs$1461                       funcs
     00001EF8  A$funcs$1462                       funcs
     00001EF9  A$funcs$1463                       funcs
     00001EFC  A$funcs$1464                       funcs
     00001EFD  A$funcs$1472                       funcs
     00001EFD  C$funcs.c$400$2$108                funcs
     00001EFD  C$funcs.c$402$1$106                funcs
     00001EFD  XG$UpdatePSG$0$0                   funcs
     00001F00  __divuint                          
     00001F08  __divuchar                         
     00001F0F  __divu8                            
     00001F12  __divu16                           
     00001F41  _UNSAFE_SMS_copySpritestoSAT       SMSlib_UNSAFE
     00001F59  _UNSAFE_SMS_VRAMmemcpy32           SMSlib_UNSAFE
     00001F76  _UNSAFE_SMS_VRAMmemcpy64           SMSlib_UNSAFE
     00001F93  _UNSAFE_SMS_VRAMmemcpy128          SMSlib_UNSAFE
     00001FB0  _SMS_init                          SMSlib
     00002004  _VDPReg_init                       SMSlib
     0000200F  _SMS_VDPType                       SMSlib
     00002017  _SMS_VDPturnOnFeature              SMSlib
     0000202E  _SMS_VDPturnOffFeature             SMSlib
     00002047  _SMS_setBGScrollX                  SMSlib
     00002051  _SMS_setBGScrollY                  SMSlib
     0000205B  _SMS_setBackdropColor              SMSlib
     00002065  _SMS_useFirstHalfTilesforSprites   SMSlib
     00002079  _SMS_setSpriteMode                 SMSlib
     000020BE  _SMS_setBGPaletteColor             SMSlib
     000020D2  _SMS_setSpritePaletteColor         SMSlib
     000020E6  _SMS_loadBGPalette                 SMSlib
     000020FA  _SMS_loadSpritePalette             SMSlib
     0000210E  _SMS_setColor                      SMSlib
     00002112  _SMS_waitForVBlank                 SMSlib
     0000211F  _SMS_getKeysStatus                 SMSlib
     00002123  _SMS_getKeysPressed                SMSlib
     00002140  _SMS_getKeysHeld                   SMSlib
     00002157  _SMS_getKeysReleased               SMSlib
     00002174  _SMS_queryPauseRequested           SMSlib
     0000217C  _SMS_resetPauseRequest             SMSlib
     00002182  _SMS_setLineInterruptHandler       SMSlib
     00002193  _SMS_setLineCounter                SMSlib
     000021A2  _SMS_getVCount                     SMSlib
     000021A6  _SMS_getHCount                     SMSlib
     000021AA  _SMS_isr                           SMSlib
     000021E0  _SMS_nmi_isr                       SMSlib
     000021F3  _SMS_VRAMmemset                    SMSlib_VRAMmemset
     00002218  _SMS_VRAMmemsetW                   SMSlib_VRAMmemset
ASxxxx Linker V03.00 + NoICE + sdld,  page 104.
Hexadecimal  [32-Bits]

Area                                    Addr        Size        Decimal Bytes (Attributes)
--------------------------------        ----        ----        ------- ----- ------------
_CODE                               00000200    00002471 =        9329. bytes (REL,CON)

      Value  Global                              Global Defined In Module
      -----  --------------------------------   ------------------------
     00002248  _SMS_initSprites                   SMSlib_sprite
     0000224E  _SMS_addSprite                     SMSlib_sprite
     00002281  _SMS_finalizeSprites               SMSlib_sprite
     00002293  _SMS_copySpritestoSAT              SMSlib_sprite
     000022BC  __moduchar                         
     000022C8  __moduint                          
     000022D3  _SMS_VRAMmemcpy                    SMSlib_VRAMmemcpy
     00002302  _SMS_VRAMmemcpy_brief              SMSlib_VRAMmemcpy
     00002324  _SMS_loadSTMcompressedTileMapAre   SMSlib_STMcomp
     00002505  ___sdcc_call_hl                    
     00002506  _SMS_loadPSGaidencompressedTiles   SMSlib_PSGaiden
     000025E7  _strlen                            
     000025F6  __modschar                         
     00002603  __modsint                          
     0000260F  __divsint                          
     00002618  __divschar                         
     0000261F  __div8                             
     00002623  __div_signexte                     
     00002627  __div16                            
     0000264D  __get_remainder                    
     00002657  __mulint                           
     0000265D  __mul16                            
ASxxxx Linker V03.00 + NoICE + sdld,  page 105.
Hexadecimal  [32-Bits]

Area                                    Addr        Size        Decimal Bytes (Attributes)
--------------------------------        ----        ----        ------- ----- ------------
_HEADER0                            00000000    00000006 =           6. bytes (ABS,CON)

      Value  Global                              Global Defined In Module
      -----  --------------------------------   ------------------------
     00000006  _SMS_crt0_RST08                    crt0

ASxxxx Linker V03.00 + NoICE + sdld,  page 106.
Hexadecimal  [32-Bits]

Area                                    Addr        Size        Decimal Bytes (Attributes)
--------------------------------        ----        ----        ------- ----- ------------
_HEADER1                            00000000    00000009 =           9. bytes (ABS,CON)

      Value  Global                              Global Defined In Module
      -----  --------------------------------   ------------------------
     00000011  _SMS_crt0_RST18                    crt0

ASxxxx Linker V03.00 + NoICE + sdld,  page 107.
Hexadecimal  [32-Bits]

Area                                    Addr        Size        Decimal Bytes (Attributes)
--------------------------------        ----        ----        ------- ----- ------------
_HEADER2                            00000000    0000000A =          10. bytes (ABS,CON)

      Value  Global                              Global Defined In Module
      -----  --------------------------------   ------------------------
ASxxxx Linker V03.00 + NoICE + sdld,  page 108.
Hexadecimal  [32-Bits]

Area                                    Addr        Size        Decimal Bytes (Attributes)
--------------------------------        ----        ----        ------- ----- ------------
_HEADER3                            00000000    00000003 =           3. bytes (ABS,CON)

      Value  Global                              Global Defined In Module
      -----  --------------------------------   ------------------------
ASxxxx Linker V03.00 + NoICE + sdld,  page 109.
Hexadecimal  [32-Bits]

Area                                    Addr        Size        Decimal Bytes (Attributes)
--------------------------------        ----        ----        ------- ----- ------------
_HEADER4                            00000000    00000003 =           3. bytes (ABS,CON)

      Value  Global                              Global Defined In Module
      -----  --------------------------------   ------------------------
ASxxxx Linker V03.00 + NoICE + sdld,  page 110.
Hexadecimal  [32-Bits]

Area                                    Addr        Size        Decimal Bytes (Attributes)
--------------------------------        ----        ----        ------- ----- ------------
_HEADER5                            00000000    0000012A =         298. bytes (ABS,CON)

      Value  Global                              Global Defined In Module
      -----  --------------------------------   ------------------------
     00000099  _OUTI128                           crt0
     00000119  _OUTI64                            crt0
     00000159  _OUTI32                            crt0
     00000199  _outi_block                        crt0

ASxxxx Linker V03.00 + NoICE + sdld,  page 111.
Hexadecimal  [32-Bits]

Area                                    Addr        Size        Decimal Bytes (Attributes)
--------------------------------        ----        ----        ------- ----- ------------
_HOME                               00002671    0000017C =         380. bytes (REL,CON)

      Value  Global                              Global Defined In Module
      -----  --------------------------------   ------------------------
     00002671  __mullong                          _mullong

ASxxxx Linker V03.00 + NoICE + sdld,  page 112.
Hexadecimal  [32-Bits]

Area                                    Addr        Size        Decimal Bytes (Attributes)
--------------------------------        ----        ----        ------- ----- ------------
_INITIALIZER                        000027ED    00000250 =         592. bytes (REL,CON)

      Value  Global                              Global Defined In Module
      -----  --------------------------------   ------------------------
     000027ED  Ffixedbank$__xinit_jukebox_songs   fixedbank
     00002817  Ffixedbank$__xinit_jukebox_names   fixedbank
     00002841  Ffixedbank$__xinit_selectornames   fixedbank
     0000284B  Ffixedbank$__xinit_intro1labels$   fixedbank
     00002857  Ffixedbank$__xinit_intro3labels$   fixedbank
     0000286D  Ffixedbank$__xinit_finishlabels$   fixedbank
     00002895  Ffixedbank$__xinit_stageinitdata   fixedbank
     00002915  Ffixedbank$__xinit_ww2plane_patt   fixedbank
     00002921  Ffixedbank$__xinit_spawners$0$0    fixedbank
     0000294D  Ffixedbank$__xinit_imagepointers   fixedbank
     000029F9  Ffixedbank$__xinit_monsterheadsh   fixedbank
     00002A09  Ffixedbank$__xinit_monsterheadsh   fixedbank
     00002A19  Ffixedbank$__xinit_difficultlabe   fixedbank
     00002A1D  Fbarrom$__xinit_barromx$0$0        barrom
     00002A29  Fbarrom$__xinit_barromy$0$0        barrom
     00002A35  Ffuncs$__xinit_state$0$0           funcs

ASxxxx Linker V03.00 + NoICE + sdld,  page 113.
Hexadecimal  [32-Bits]

Area                                    Addr        Size        Decimal Bytes (Attributes)
--------------------------------        ----        ----        ------- ----- ------------
_GSINIT                             00002A3D    0000000F =          15. bytes (REL,CON)

      Value  Global                              Global Defined In Module
      -----  --------------------------------   ------------------------
     00002A3D  gsinit                             crt0

ASxxxx Linker V03.00 + NoICE + sdld,  page 114.
Hexadecimal  [32-Bits]

Area                                    Addr        Size        Decimal Bytes (Attributes)
--------------------------------        ----        ----        ------- ----- ------------
_GSFINAL                            00002A4C    00000001 =           1. bytes (REL,CON)

      Value  Global                              Global Defined In Module
      -----  --------------------------------   ------------------------
ASxxxx Linker V03.00 + NoICE + sdld,  page 115.
Hexadecimal  [32-Bits]

Area                                    Addr        Size        Decimal Bytes (Attributes)
--------------------------------        ----        ----        ------- ----- ------------
_DATA                               0000C000    00000252 =         594. bytes (REL,CON)

      Value  Global                              Global Defined In Module
      -----  --------------------------------   ------------------------
     0000C000  _PSGMusicStatus                    PSGlib
     0000C001  _PSGMusicStart                     PSGlib
     0000C003  _PSGMusicPointer                   PSGlib
     0000C005  _PSGMusicLoopPoint                 PSGlib
     0000C007  _PSGMusicSkipFrames                PSGlib
     0000C008  _PSGLoopFlag                       PSGlib
     0000C009  _PSGMusicLastLatch                 PSGlib
     0000C00A  _PSGMusicVolumeAttenuation         PSGlib
     0000C00B  _PSGMusicSubstringLen              PSGlib
     0000C00C  _PSGMusicSubstringRetAddr          PSGlib
     0000C00E  _PSGChan0Volume                    PSGlib
     0000C00F  _PSGChan1Volume                    PSGlib
     0000C010  _PSGChan2Volume                    PSGlib
     0000C011  _PSGChan3Volume                    PSGlib
     0000C012  _PSGChan2LowTone                   PSGlib
     0000C013  _PSGChan2HighTone                  PSGlib
     0000C014  _PSGChan3LowTone                   PSGlib
     0000C015  _PSGChannel2SFX                    PSGlib
     0000C016  _PSGChannel3SFX                    PSGlib
     0000C017  _PSGSFXChan2Volume                 PSGlib
     0000C018  _PSGSFXChan3Volume                 PSGlib
     0000C019  _PSGSFXStatus                      PSGlib
     0000C01A  _PSGSFXStart                       PSGlib
     0000C01C  _PSGSFXPointer                     PSGlib
     0000C01E  _PSGSFXLoopPoint                   PSGlib
     0000C020  _PSGSFXSkipFrames                  PSGlib
     0000C021  _PSGSFXLoopFlag                    PSGlib
     0000C022  _PSGSFXSubstringLen                PSGlib
     0000C023  _PSGSFXSubstringRetAddr            PSGlib
     0000C025  G$barromtime$0$0                   barrom
     0000C025  _barromtime                        barrom
     0000C026  G$lastplayedmusic$0$0              funcs
     0000C026  _lastplayedmusic                   funcs
     0000C028  G$lastplayedmusicbank$0$0          funcs
     0000C028  _lastplayedmusicbank               funcs
     0000C029  G$lastplayedmusiclooped$0$0        funcs
     0000C029  _lastplayedmusiclooped             funcs
     0000C02A  G$keystatus$0$0                    vars
     0000C02A  _keystatus                         vars
     0000C02C  G$stageframe$0$0                   vars
     0000C02C  _stageframe                        vars
     0000C02E  G$stageframe2mod$0$0               vars
     0000C02E  _stageframe2mod                    vars
     0000C02F  G$stageframe4mod$0$0               vars
     0000C02F  _stageframe4mod                    vars
     0000C030  G$sprite82anim$0$0                 vars
     0000C030  _sprite82anim                      vars
     0000C031  G$sprite164anim$0$0                vars
     0000C031  _sprite164anim                     vars
     0000C032  G$basestage$0$0                    vars
ASxxxx Linker V03.00 + NoICE + sdld,  page 116.
Hexadecimal  [32-Bits]

Area                                    Addr        Size        Decimal Bytes (Attributes)
--------------------------------        ----        ----        ------- ----- ------------
_DATA                               0000C000    00000252 =         594. bytes (REL,CON)

      Value  Global                              Global Defined In Module
      -----  --------------------------------   ------------------------
     0000C032  _basestage                         vars
     0000C033  G$playstage$0$0                    vars
     0000C033  _playstage                         vars
     0000C034  G$updateplaystage$0$0              vars
     0000C034  _updateplaystage                   vars
     0000C035  G$stagenum$0$0                     vars
     0000C035  _stagenum                          vars
     0000C036  G$laststagenum$0$0                 vars
     0000C036  _laststagenum                      vars
     0000C037  G$numplayers$0$0                   vars
     0000C037  _numplayers                        vars
     0000C038  G$exitplaystage$0$0                vars
     0000C038  _exitplaystage                     vars
     0000C039  G$gamelevel$0$0                    vars
     0000C039  _gamelevel                         vars
     0000C03A  G$gamestock$0$0                    vars
     0000C03A  _gamestock                         vars
     0000C03B  G$gamepause$0$0                    vars
     0000C03B  _gamepause                         vars
     0000C03C  G$playerx$0$0                      vars
     0000C03C  _playerx                           vars
     0000C03D  G$playery$0$0                      vars
     0000C03D  _playery                           vars
     0000C03E  G$playertype$0$0                   vars
     0000C03E  _playertype                        vars
     0000C03F  G$playercounter$0$0                vars
     0000C03F  _playercounter                     vars
     0000C040  G$playershootcounter$0$0           vars
     0000C040  _playershootcounter                vars
     0000C041  G$playerside$0$0                   vars
     0000C041  _playerside                        vars
     0000C042  G$playerspeed$0$0                  vars
     0000C042  _playerspeed                       vars
     0000C043  G$playershootlevel$0$0             vars
     0000C043  _playershootlevel                  vars
     0000C044  G$playershootmax$0$0               vars
     0000C044  _playershootmax                    vars
     0000C045  G$numplayershoots$0$0              vars
     0000C045  _numplayershoots                   vars
     0000C046  G$playershoots$0$0                 vars
     0000C046  _playershoots                      vars
     0000C055  G$shootcount$0$0                   vars
     0000C055  _shootcount                        vars
     0000C056  G$numenemyshoots$0$0               vars
     0000C056  _numenemyshoots                    vars
     0000C057  G$enemyshoots$0$0                  vars
     0000C057  _enemyshoots                       vars
     0000C089  G$playstageshootspeed$0$0          vars
     0000C089  _playstageshootspeed               vars
     0000C08A  G$numexplosions$0$0                vars
     0000C08A  _numexplosions                     vars
ASxxxx Linker V03.00 + NoICE + sdld,  page 117.
Hexadecimal  [32-Bits]

Area                                    Addr        Size        Decimal Bytes (Attributes)
--------------------------------        ----        ----        ------- ----- ------------
_DATA                               0000C000    00000252 =         594. bytes (REL,CON)

      Value  Global                              Global Defined In Module
      -----  --------------------------------   ------------------------
     0000C08B  G$explosions$0$0                   vars
     0000C08B  _explosions                        vars
     0000C0B3  G$numenemies$0$0                   vars
     0000C0B3  _numenemies                        vars
     0000C0B4  G$enemies$0$0                      vars
     0000C0B4  _enemies                           vars
     0000C10E  G$maplines$0$0                     vars
     0000C10E  _maplines                          vars
     0000C110  G$maplineslength$0$0               vars
     0000C110  _maplineslength                    vars
     0000C112  G$maptiles$0$0                     vars
     0000C112  _maptiles                          vars
     0000C114  G$mappositionx$0$0                 vars
     0000C114  _mappositionx                      vars
     0000C116  G$mappositiony$0$0                 vars
     0000C116  _mappositiony                      vars
     0000C118  G$oldmappositiony$0$0              vars
     0000C118  _oldmappositiony                   vars
     0000C11A  G$lastbank$0$0                     vars
     0000C11A  _lastbank                          vars
     0000C11B  G$mapstatics$0$0                   vars
     0000C11B  _mapstatics                        vars
     0000C11D  G$mapstaticscount$0$0              vars
     0000C11D  _mapstaticscount                   vars
     0000C11F  G$mapstaticsbank$0$0               vars
     0000C11F  _mapstaticsbank                    vars
     0000C120  G$musicbank$0$0                    vars
     0000C120  _musicbank                         vars
     0000C121  G$mapbank$0$0                      vars
     0000C121  _mapbank                           vars
     0000C122  G$playstagebank$0$0                vars
     0000C122  _playstagebank                     vars
     0000C123  G$numscrolls$0$0                   vars
     0000C123  _numscrolls                        vars
     0000C124  G$scrollactspeedy$0$0              vars
     0000C124  _scrollactspeedy                   vars
     0000C125  G$scrollactspeedx$0$0              vars
     0000C125  _scrollactspeedx                   vars
     0000C126  G$scrollact$0$0                    vars
     0000C126  _scrollact                         vars
     0000C127  G$scrolltimes$0$0                  vars
     0000C127  _scrolltimes                       vars
     0000C129  G$disablescroll$0$0                vars
     0000C129  _disablescroll                     vars
     0000C12A  G$scrolls$0$0                      vars
     0000C12A  _scrolls                           vars
     0000C12C  G$numscripts$0$0                   vars
     0000C12C  _numscripts                        vars
     0000C12D  G$scripts$0$0                      vars
     0000C12D  _scripts                           vars
     0000C14D  G$numtimeredlabels$0$0             vars
ASxxxx Linker V03.00 + NoICE + sdld,  page 118.
Hexadecimal  [32-Bits]

Area                                    Addr        Size        Decimal Bytes (Attributes)
--------------------------------        ----        ----        ------- ----- ------------
_DATA                               0000C000    00000252 =         594. bytes (REL,CON)

      Value  Global                              Global Defined In Module
      -----  --------------------------------   ------------------------
     0000C14D  _numtimeredlabels                  vars
     0000C14E  G$timeredlabels$0$0                vars
     0000C14E  _timeredlabels                     vars
     0000C154  G$introstageposx$0$0               vars
     0000C154  _introstageposx                    vars
     0000C156  G$introstagevelx$0$0               vars
     0000C156  _introstagevelx                    vars
     0000C158  G$dojukebox$0$0                    vars
     0000C158  _dojukebox                         vars
     0000C159  G$spawnedexplosionposx$0$0         vars
     0000C159  _spawnedexplosionposx              vars
     0000C15A  G$spawnedexplosionposy$0$0         vars
     0000C15A  _spawnedexplosionposy              vars
     0000C15B  G$spawnedexplosionwidth$0$0        vars
     0000C15B  _spawnedexplosionwidth             vars
     0000C15C  G$spawnedexplosionheight$0$0       vars
     0000C15C  _spawnedexplosionheight            vars
     0000C15D  G$spawnedexplosiontime$0$0         vars
     0000C15D  _spawnedexplosiontime              vars
     0000C15E  G$stage4playrays$0$0               vars
     0000C15E  _stage4playrays                    vars
     0000C15F  G$numinterrupts$0$0                vars
     0000C15F  _numinterrupts                     vars
     0000C160  G$powerupx$0$0                     vars
     0000C160  _powerupx                          vars
     0000C161  G$powerupy$0$0                     vars
     0000C161  _powerupy                          vars
     0000C162  G$powerupt$0$0                     vars
     0000C162  _powerupt                          vars
     0000C163  G$powerupv$0$0                     vars
     0000C163  _powerupv                          vars
     0000C164  G$powerupcounter$0$0               vars
     0000C164  _powerupcounter                    vars
     0000C166  G$stage8phase$0$0                  vars
     0000C166  _stage8phase                       vars
     0000C167  _VDPBlank                          SMSlib
     0000C168  _SMS_VDPFlags                      SMSlib
     0000C169  _PauseRequested                    SMSlib
     0000C16A  _VDPType                           SMSlib
     0000C16B  _KeysStatus                        SMSlib
     0000C16D  _PreviousKeysStatus                SMSlib
     0000C16F  _SMS_theLineInterruptHandler       SMSlib
     0000C171  _SpriteTableY                      SMSlib_sprite
     0000C1B1  _SpriteTableXN                     SMSlib_sprite
     0000C231  _SpriteNextFree                    SMSlib_sprite
     0000C232  _decompBuffer                      SMSlib_PSGaiden
ASxxxx Linker V03.00 + NoICE + sdld,  page 119.
Hexadecimal  [32-Bits]

Area                                    Addr        Size        Decimal Bytes (Attributes)
--------------------------------        ----        ----        ------- ----- ------------
_INITIALIZED                        0000C252    00000250 =         592. bytes (REL,CON)

      Value  Global                              Global Defined In Module
      -----  --------------------------------   ------------------------
     0000C252  G$jukebox_songs$0$0                fixedbank
     0000C252  _jukebox_songs                     fixedbank
     0000C27C  G$jukebox_names$0$0                fixedbank
     0000C27C  _jukebox_names                     fixedbank
     0000C2A6  G$selectornamestage$0$0            fixedbank
     0000C2A6  _selectornamestage                 fixedbank
     0000C2B0  G$intro1labels$0$0                 fixedbank
     0000C2B0  _intro1labels                      fixedbank
     0000C2BC  G$intro3labels$0$0                 fixedbank
     0000C2BC  _intro3labels                      fixedbank
     0000C2D2  G$finishlabels$0$0                 fixedbank
     0000C2D2  _finishlabels                      fixedbank
     0000C2FA  G$stageinitdata$0$0                fixedbank
     0000C2FA  _stageinitdata                     fixedbank
     0000C37A  G$ww2plane_patterns$0$0            fixedbank
     0000C37A  _ww2plane_patterns                 fixedbank
     0000C386  G$spawners$0$0                     fixedbank
     0000C386  _spawners                          fixedbank
     0000C3B2  G$imagepointers$0$0                fixedbank
     0000C3B2  _imagepointers                     fixedbank
     0000C45E  G$monsterheadshootdirecionsx$0$0   fixedbank
     0000C45E  _monsterheadshootdirecionsx        fixedbank
     0000C46E  G$monsterheadshootdirecionsy$0$0   fixedbank
     0000C46E  _monsterheadshootdirecionsy        fixedbank
     0000C47E  G$difficultlabels$0$0              fixedbank
     0000C47E  _difficultlabels                   fixedbank
     0000C482  G$barromx$0$0                      barrom
     0000C482  _barromx                           barrom
     0000C48E  G$barromy$0$0                      barrom
     0000C48E  _barromy                           barrom
     0000C49A  G$state$0$0                        funcs
     0000C49A  _state                             funcs
     0000C49E  _VDPReg                            SMSlib
     0000C4A0  _spritesHeight                     SMSlib
     0000C4A1  _spritesWidth                      SMSlib

ASxxxx Linker V03.00 + NoICE + sdld,  page 120.
Hexadecimal  [32-Bits]

Area                                    Addr        Size        Decimal Bytes (Attributes)
--------------------------------        ----        ----        ------- ----- ------------
_BANK2                              00008000    00003FB5 =       16309. bytes (REL,CON)

      Value  Global                              Global Defined In Module
      -----  --------------------------------   ------------------------
     00008000  G$bigexplosion_psgcompr$0$0        bank2
     00008000  _bigexplosion_psgcompr             bank2
     000080A7  G$ending_psg$0$0                   bank2
     000080A7  _ending_psg                        bank2
     0000A7F1  G$enemybomb_psg$0$0                bank2
     0000A7F1  _enemybomb_psg                     bank2
     0000A809  G$enemylaser_psg$0$0               bank2
     0000A809  _enemylaser_psg                    bank2
     0000A821  G$explosion_psg$0$0                bank2
     0000A821  _explosion_psg                     bank2
     0000A83A  G$font_psgcompr$0$0                bank2
     0000A83A  _font_psgcompr                     bank2
     0000AA09  G$fortressdoor_psgcompr$0$0        bank2
     0000AA09  _fortressdoor_psgcompr             bank2
     0000AA45  G$mikgamestilemap_bin$0$0          bank2
     0000AA45  _mikgamestilemap_bin               bank2
     0000AAC5  G$mikgamestiles_psgcompr$0$0       bank2
     0000AAC5  _mikgamestiles_psgcompr            bank2
     0000ABC3  G$pause_psg$0$0                    bank2
     0000ABC3  _pause_psg                         bank2
     0000ABE6  G$persons_bin$0$0                  bank2
     0000ABE6  _persons_bin                       bank2
     0000ADDE  G$persons_psgcompr$0$0             bank2
     0000ADDE  _persons_psgcompr                  bank2
     0000B849  G$personspalette_bin$0$0           bank2
     0000B849  _personspalette_bin                bank2
     0000B859  G$playershoot_psg$0$0              bank2
     0000B859  _playershoot_psg                   bank2
     0000B861  G$powerup_psg$0$0                  bank2
     0000B861  _powerup_psg                       bank2
     0000B88F  G$ray_psg$0$0                      bank2
     0000B88F  _ray_psg                           bank2
     0000B8B2  G$selectorpalette_bin$0$0          bank2
     0000B8B2  _selectorpalette_bin               bank2
     0000B8C2  G$selectortiles_psgcompr$0$0       bank2
     0000B8C2  _selectortiles_psgcompr            bank2
     0000BF84  G$silence_psg$0$0                  bank2
     0000BF84  _silence_psg                       bank2

ASxxxx Linker V03.00 + NoICE + sdld,  page 121.
Hexadecimal  [32-Bits]

Area                                    Addr        Size        Decimal Bytes (Attributes)
--------------------------------        ----        ----        ------- ----- ------------
_BANK3                              00008000    00003FED =       16365. bytes (REL,CON)

      Value  Global                              Global Defined In Module
      -----  --------------------------------   ------------------------
     00008000  G$fortresssearch_psgcompr$0$0      bank3
     00008000  _fortresssearch_psgcompr           bank3
     000082CF  G$logopalette_bin$0$0              bank3
     000082CF  _logopalette_bin                   bank3
     000082DF  G$logotilemap_l$0$0                bank3
     000082DF  _logotilemap_l                     bank3
     000082FB  G$logotilemap_m$0$0                bank3
     000082FB  _logotilemap_m                     bank3
     0000867B  G$logotiles_psgcompr$0$0           bank3
     0000867B  _logotiles_psgcompr                bank3
     000090ED  G$spacestation_psgcompr$0$0        bank3
     000090ED  _spacestation_psgcompr             bank3
     000091A8  G$stage2palette_bin$0$0            bank3
     000091A8  _stage2palette_bin                 bank3
     000091B8  G$stage2tilemap_l$0$0              bank3
     000091B8  _stage2tilemap_l                   bank3
     000093B8  G$stage2tilemap_m$0$0              bank3
     000093B8  _stage2tilemap_m                   bank3
     0000B538  G$stage2tiles_psgcompr$0$0         bank3
     0000B538  _stage2tiles_psgcompr              bank3
     0000BF8D  G$ww2ship_psgcompr$0$0             bank3
     0000BF8D  _ww2ship_psgcompr                  bank3

ASxxxx Linker V03.00 + NoICE + sdld,  page 122.
Hexadecimal  [32-Bits]

Area                                    Addr        Size        Decimal Bytes (Attributes)
--------------------------------        ----        ----        ------- ----- ------------
_BANK4                              00008000    00003FBD =       16317. bytes (REL,CON)

      Value  Global                              Global Defined In Module
      -----  --------------------------------   ------------------------
     00008000  G$endingstagetilemap_bin$0$0       bank4
     00008000  _endingstagetilemap_bin            bank4
     000082C0  G$endingstagetiles_psgcompr$0$0    bank4
     000082C0  _endingstagetiles_psgcompr         bank4
     000082DC  G$intro2_psg$0$0                   bank4
     000082DC  _intro2_psg                        bank4
     00008B69  G$introovni_psgcompr$0$0           bank4
     00008B69  _introovni_psgcompr                bank4
     00008CA2  G$introsideplayer_psgcompr$0$0     bank4
     00008CA2  _introsideplayer_psgcompr          bank4
     00008D1A  G$rectship_psgcompr$0$0            bank4
     00008D1A  _rectship_psgcompr                 bank4
     00008DBF  G$select_psg$0$0                   bank4
     00008DBF  _select_psg                        bank4
     00008F67  G$stage3_psg$0$0                   bank4
     00008F67  _stage3_psg                        bank4
     0000A683  G$stage4endboss_psgcompr$0$0       bank4
     0000A683  _stage4endboss_psgcompr            bank4
     0000A7F4  G$stage4endbossb_psgcompr$0$0      bank4
     0000A7F4  _stage4endbossb_psgcompr           bank4
     0000A824  G$stage4endbossc_psgcompr$0$0      bank4
     0000A824  _stage4endbossc_psgcompr           bank4
     0000A995  G$stage4middleboss_psgcompr$0$0    bank4
     0000A995  _stage4middleboss_psgcompr         bank4
     0000ABF0  G$stage4palette_bin$0$0            bank4
     0000ABF0  _stage4palette_bin                 bank4
     0000AC00  G$stage4tilemap_l$0$0              bank4
     0000AC00  _stage4tilemap_l                   bank4
     0000ACBD  G$stage4tilemap_m$0$0              bank4
     0000ACBD  _stage4tilemap_m                   bank4
     0000B4FD  G$stage4tiles_psgcompr$0$0         bank4
     0000B4FD  _stage4tiles_psgcompr              bank4
     0000BC63  G$vulcantank_psgcompr$0$0          bank4
     0000BC63  _vulcantank_psgcompr               bank4
     0000BE1B  G$warning_psgcompr$0$0             bank4
     0000BE1B  _warning_psgcompr                  bank4
     0000BE9C  G$waveship_psgcompr$0$0            bank4
     0000BE9C  _waveship_psgcompr                 bank4

ASxxxx Linker V03.00 + NoICE + sdld,  page 123.
Hexadecimal  [32-Bits]

Area                                    Addr        Size        Decimal Bytes (Attributes)
--------------------------------        ----        ----        ------- ----- ------------
_BANK5                              00008000    00003FDB =       16347. bytes (REL,CON)

      Value  Global                              Global Defined In Module
      -----  --------------------------------   ------------------------
     00008000  G$intro3_psg$0$0                   bank5
     00008000  _intro3_psg                        bank5
     00009310  G$littleexplosion_psgcompr$0$0     bank5
     00009310  _littleexplosion_psgcompr          bank5
     00009327  G$monsterhead_psgcompr$0$0         bank5
     00009327  _monsterhead_psgcompr              bank5
     000095AA  G$monstermissil_psgcompr$0$0       bank5
     000095AA  _monstermissil_psgcompr            bank5
     00009734  G$stage1_psg$0$0                   bank5
     00009734  _stage1_psg                        bank5
     0000BAAD  G$stage7endboss_psgcompr$0$0       bank5
     0000BAAD  _stage7endboss_psgcompr            bank5
     0000BC36  G$vulcanbird_psgcompr$0$0          bank5
     0000BC36  _vulcanbird_psgcompr               bank5
     0000BE16  G$vulcanlaser_psgcompr$0$0         bank5
     0000BE16  _vulcanlaser_psgcompr              bank5
     0000BE5C  G$vulcanlava_psgcompr$0$0          bank5
     0000BE5C  _vulcanlava_psgcompr               bank5
     0000BED7  G$vulcanvulcan_psgcompr$0$0        bank5
     0000BED7  _vulcanvulcan_psgcompr             bank5
     0000BEFC  G$ww2zeppelin_psgcompr$0$0         bank5
     0000BEFC  _ww2zeppelin_psgcompr              bank5

ASxxxx Linker V03.00 + NoICE + sdld,  page 124.
Hexadecimal  [32-Bits]

Area                                    Addr        Size        Decimal Bytes (Attributes)
--------------------------------        ----        ----        ------- ----- ------------
_BANK6                              00008000    00003FB1 =       16305. bytes (REL,CON)

      Value  Global                              Global Defined In Module
      -----  --------------------------------   ------------------------
     00008000  G$bombship_psgcompr$0$0            bank6
     00008000  _bombship_psgcompr                 bank6
     00008118  G$fortresscannon_psgcompr$0$0      bank6
     00008118  _fortresscannon_psgcompr           bank6
     00008286  G$logo_psg$0$0                     bank6
     00008286  _logo_psg                          bank6
     00009B52  G$spreadship_psgcompr$0$0          bank6
     00009B52  _spreadship_psgcompr               bank6
     00009BE5  G$stage5palette_bin$0$0            bank6
     00009BE5  _stage5palette_bin                 bank6
     00009BF5  G$stage5tilemap_l$0$0              bank6
     00009BF5  _stage5tilemap_l                   bank6
     00009DAD  G$stage5tilemap_m$0$0              bank6
     00009DAD  _stage5tilemap_m                   bank6
     0000AF6D  G$stage5tiles_psgcompr$0$0         bank6
     0000AF6D  _stage5tiles_psgcompr              bank6
     0000B20C  G$stage6palette_bin$0$0            bank6
     0000B20C  _stage6palette_bin                 bank6
     0000B21C  G$stage6tilemap_l$0$0              bank6
     0000B21C  _stage6tilemap_l                   bank6
     0000B24C  G$stage6tilemap_m$0$0              bank6
     0000B24C  _stage6tilemap_m                   bank6
     0000B54C  G$stage6tiles_psgcompr$0$0         bank6
     0000B54C  _stage6tiles_psgcompr              bank6
     0000BD16  G$turnship_psgcompr$0$0            bank6
     0000BD16  _turnship_psgcompr                 bank6
     0000BE74  G$watertiles_bin$0$0               bank6
     0000BE74  _watertiles_bin                    bank6
     0000BF74  G$ww2cloud_psgcompr$0$0            bank6
     0000BF74  _ww2cloud_psgcompr                 bank6
ASxxxx Linker V03.00 + NoICE + sdld,  page 125.
Hexadecimal  [32-Bits]

Area                                    Addr        Size        Decimal Bytes (Attributes)
--------------------------------        ----        ----        ------- ----- ------------
_BANK7                              00008000    00003FD0 =       16336. bytes (REL,CON)

      Value  Global                              Global Defined In Module
      -----  --------------------------------   ------------------------
     00008000  G$bone_psgcompr$0$0                bank7
     00008000  _bone_psgcompr                     bank7
     0000811A  G$cursors_psgcompr$0$0             bank7
     0000811A  _cursors_psgcompr                  bank7
     00008125  G$enemyshoot_psgcompr$0$0          bank7
     00008125  _enemyshoot_psgcompr               bank7
     0000817E  G$fortresswave_psgcompr$0$0        bank7
     0000817E  _fortresswave_psgcompr             bank7
     000081EA  G$stage3palette_bin$0$0            bank7
     000081EA  _stage3palette_bin                 bank7
     000081FA  G$stage3tilemap_l$0$0              bank7
     000081FA  _stage3tilemap_l                   bank7
     0000834E  G$stage3tilemap_m$0$0              bank7
     0000834E  _stage3tilemap_m                   bank7
     0000A9CE  G$stage3tiles_psgcompr$0$0         bank7
     0000A9CE  _stage3tiles_psgcompr              bank7
     0000AC3D  G$stage5endboss_psgcompr$0$0       bank7
     0000AC3D  _stage5endboss_psgcompr            bank7
     0000AF24  G$stage6_psg$0$0                   bank7
     0000AF24  _stage6_psg                        bank7
     0000B760  G$stage7animtiles_bin$0$0          bank7
     0000B760  _stage7animtiles_bin               bank7
     0000B860  G$stage7animtilesc_bin$0$0         bank7
     0000B860  _stage7animtilesc_bin              bank7
     0000B960  G$stage7animtilesd_bin$0$0         bank7
     0000B960  _stage7animtilesd_bin              bank7
     0000BA60  G$stage7animtilese_bin$0$0         bank7
     0000BA60  _stage7animtilese_bin              bank7
     0000BB60  G$ww2plane_psgcompr$0$0            bank7
     0000BB60  _ww2plane_psgcompr                 bank7
     0000BE7E  G$ww2tank_psgcompr$0$0             bank7
     0000BE7E  _ww2tank_psgcompr                  bank7

ASxxxx Linker V03.00 + NoICE + sdld,  page 126.
Hexadecimal  [32-Bits]

Area                                    Addr        Size        Decimal Bytes (Attributes)
--------------------------------        ----        ----        ------- ----- ------------
_BANK8                              00008000    00003FA9 =       16297. bytes (REL,CON)

      Value  Global                              Global Defined In Module
      -----  --------------------------------   ------------------------
     00008000  G$gameover_psg$0$0                 bank8
     00008000  _gameover_psg                      bank8
     00008240  G$introstage1tilemap_bin$0$0       bank8
     00008240  _introstage1tilemap_bin            bank8
     000084C0  G$introstage1tiles_psgcompr$0$0    bank8
     000084C0  _introstage1tiles_psgcompr         bank8
     00008E29  G$introstage2tilemap_bin$0$0       bank8
     00008E29  _introstage2tilemap_bin            bank8
     000090E9  G$introstage2tiles_psgcompr$0$0    bank8
     000090E9  _introstage2tiles_psgcompr         bank8
     0000921B  G$playershoot_psgcompr$0$0         bank8
     0000921B  _playershoot_psgcompr              bank8
     00009271  G$stage4_psg$0$0                   bank8
     00009271  _stage4_psg                        bank8
     0000B9D0  G$stage7a_psg$0$0                  bank8
     0000B9D0  _stage7a_psg                       bank8

ASxxxx Linker V03.00 + NoICE + sdld,  page 127.
Hexadecimal  [32-Bits]

Area                                    Addr        Size        Decimal Bytes (Attributes)
--------------------------------        ----        ----        ------- ----- ------------
_BANK9                              00008000    00003F7E =       16254. bytes (REL,CON)

      Value  Global                              Global Defined In Module
      -----  --------------------------------   ------------------------
     00008000  G$afterboss_psg$0$0                bank9
     00008000  _afterboss_psg                     bank9
     0000823B  G$firetiles_bin$0$0                bank9
     0000823B  _firetiles_bin                     bank9
     0000863B  G$fortressphantom_psgcompr$0$0     bank9
     0000863B  _fortressphantom_psgcompr          bank9
     000087BC  G$norefuge_psg$0$0                 bank9
     000087BC  _norefuge_psg                      bank9
     00008921  G$stage1endboss_psgcompr$0$0       bank9
     00008921  _stage1endboss_psgcompr            bank9
     00008C09  G$stage1middleboss_psgcompr$0$0    bank9
     00008C09  _stage1middleboss_psgcompr         bank9
     00008E6B  G$stage2endboss_psgcompr$0$0       bank9
     00008E6B  _stage2endboss_psgcompr            bank9
     00009191  G$stage7middleboss_psgcompr$0$0    bank9
     00009191  _stage7middleboss_psgcompr         bank9
     00009645  G$stage7palette_bin$0$0            bank9
     00009645  _stage7palette_bin                 bank9
     00009655  G$stage7tilemap_l$0$0              bank9
     00009655  _stage7tilemap_l                   bank9
     00009835  G$stage7tilemap_m$0$0              bank9
     00009835  _stage7tilemap_m                   bank9
     0000BAF5  G$stage7tiles_psgcompr$0$0         bank9
     0000BAF5  _stage7tiles_psgcompr              bank9
ASxxxx Linker V03.00 + NoICE + sdld,  page 128.
Hexadecimal  [32-Bits]

Area                                    Addr        Size        Decimal Bytes (Attributes)
--------------------------------        ----        ----        ------- ----- ------------
_BANK10                             00008000    00003FE2 =       16354. bytes (REL,CON)

      Value  Global                              Global Defined In Module
      -----  --------------------------------   ------------------------
     00008000  G$animtilestage1_bin$0$0           bank10
     00008000  _animtilestage1_bin                bank10
     00008080  G$introstar_psgcompr$0$0           bank10
     00008080  _introstar_psgcompr                bank10
     0000808E  G$powerup_psgcompr$0$0             bank10
     0000808E  _powerup_psgcompr                  bank10
     00008133  G$scrolltilestage1_bin$0$0         bank10
     00008133  _scrolltilestage1_bin              bank10
     000081F3  G$skull_psgcompr$0$0               bank10
     000081F3  _skull_psgcompr                    bank10
     000084DB  G$spaceanimtiles_bin$0$0           bank10
     000084DB  _spaceanimtiles_bin                bank10
     0000869B  G$spaceasteroidbig_psgcompr$0$0    bank10
     0000869B  _spaceasteroidbig_psgcompr         bank10
     0000876D  G$spaceasteroidlittle_psgcompr$0   bank10
     0000876D  _spaceasteroidlittle_psgcompr      bank10
     00008789  G$spaceasteroidmedium_psgcompr$0   bank10
     00008789  _spaceasteroidmedium_psgcompr      bank10
     000087F1  G$stage1palette_bin$0$0            bank10
     000087F1  _stage1palette_bin                 bank10
     000087FA  G$stage1tilemap_l$0$0              bank10
     000087FA  _stage1tilemap_l                   bank10
     000089FA  G$stage1tilemap_m$0$0              bank10
     000089FA  _stage1tilemap_m                   bank10
     00009BFA  G$stage1tiles_psgcompr$0$0         bank10
     00009BFA  _stage1tiles_psgcompr              bank10
     00009C7C  G$stage2_psg$0$0                   bank10
     00009C7C  _stage2_psg                        bank10
     0000BD04  G$stage3endboss_psgcompr$0$0       bank10
     0000BD04  _stage3endboss_psgcompr            bank10
     0000BEE0  G$stage8lateral_psgcompr$0$0       bank10
     0000BEE0  _stage8lateral_psgcompr            bank10

ASxxxx Linker V03.00 + NoICE + sdld,  page 129.
Hexadecimal  [32-Bits]

Area                                    Addr        Size        Decimal Bytes (Attributes)
--------------------------------        ----        ----        ------- ----- ------------
_BANK11                             00008000    00003C2B =       15403. bytes (REL,CON)

      Value  Global                              Global Defined In Module
      -----  --------------------------------   ------------------------
     00008000  G$spaceshooter_psgcompr$0$0        bank11
     00008000  _spaceshooter_psgcompr             bank11
     00008144  G$stage5_psg$0$0                   bank11
     00008144  _stage5_psg                        bank11
     00009E0B  G$stage7_psg$0$0                   bank11
     00009E0B  _stage7_psg                        bank11
ASxxxx Linker V03.00 + NoICE + sdld,  page 130.
Hexadecimal  [32-Bits]

Area                                    Addr        Size        Decimal Bytes (Attributes)
--------------------------------        ----        ----        ------- ----- ------------
_BANK12                             00008000    00003F51 =       16209. bytes (REL,CON)

      Value  Global                              Global Defined In Module
      -----  --------------------------------   ------------------------
     00008000  G$boss_psg$0$0                     bank12
     00008000  _boss_psg                          bank12
     00009ABC  G$escape_psg$0$0                   bank12
     00009ABC  _escape_psg                        bank12
     0000A616  G$flight_psg$0$0                   bank12
     0000A616  _flight_psg                        bank12
     0000B99E  G$introstage3tilemap_bin$0$0       bank12
     0000B99E  _introstage3tilemap_bin            bank12
     0000BC9E  G$introstage3tiles_psgcompr$0$0    bank12
     0000BC9E  _introstage3tiles_psgcompr         bank12

ASxxxx Linker V03.00 + NoICE + sdld,  page 131.
Hexadecimal  [32-Bits]

Area                                    Addr        Size        Decimal Bytes (Attributes)
--------------------------------        ----        ----        ------- ----- ------------
_BANK13                             00008000    00003FEA =       16362. bytes (REL,CON)

      Value  Global                              Global Defined In Module
      -----  --------------------------------   ------------------------
     00008000  G$monsterblob_psgcompr$0$0         bank13
     00008000  _monsterblob_psgcompr              bank13
     00008120  G$skullb_psgcompr$0$0              bank13
     00008120  _skullb_psgcompr                   bank13
     00008428  G$stage8_psg$0$0                   bank13
     00008428  _stage8_psg                        bank13
     0000A98C  G$stage8animtilesamov_bin$0$0      bank13
     0000A98C  _stage8animtilesamov_bin           bank13
     0000B08C  G$stage8animtilesbmov_bin$0$0      bank13
     0000B08C  _stage8animtilesbmov_bin           bank13
     0000B78C  G$stage8animtilescloudsmov_bin$0   bank13
     0000B78C  _stage8animtilescloudsmov_bin      bank13
     0000B88C  G$stage8bossb_psgcompr$0$0         bank13
     0000B88C  _stage8bossb_psgcompr              bank13
     0000BECA  G$stage8bossc_psgcompr$0$0         bank13
     0000BECA  _stage8bossc_psgcompr              bank13

ASxxxx Linker V03.00 + NoICE + sdld,  page 132.
Hexadecimal  [32-Bits]

Area                                    Addr        Size        Decimal Bytes (Attributes)
--------------------------------        ----        ----        ------- ----- ------------
_BANK14                             00008000    00003FB3 =       16307. bytes (REL,CON)

      Value  Global                              Global Defined In Module
      -----  --------------------------------   ------------------------
     00008000  G$boss2_psg$0$0                    bank14
     00008000  _boss2_psg                         bank14
     00009930  G$player_psgcompr$0$0              bank14
     00009930  _player_psgcompr                   bank14
     00009AA2  G$stage8palette_bin$0$0            bank14
     00009AA2  _stage8palette_bin                 bank14
     00009AB2  G$stage8tilemap_l$0$0              bank14
     00009AB2  _stage8tilemap_l                   bank14
     00009CA6  G$stage8tilemap_m$0$0              bank14
     00009CA6  _stage8tilemap_m                   bank14
     0000B766  G$stage8tiles_psgcompr$0$0         bank14
     0000B766  _stage8tiles_psgcompr              bank14
     0000BD91  G$vulcanstation_psgcompr$0$0       bank14
     0000BD91  _vulcanstation_psgcompr            bank14

ASxxxx Linker V03.00 + NoICE + sdld,  page 133.
Hexadecimal  [32-Bits]

Area                                    Addr        Size        Decimal Bytes (Attributes)
--------------------------------        ----        ----        ------- ----- ------------
_BANK15                             00008000    000036E5 =       14053. bytes (REL,CON)

      Value  Global                              Global Defined In Module
      -----  --------------------------------   ------------------------
     00008000  G$playershootspeedsx$0$0           fixedbank
     00008000  _playershootspeedsx                fixedbank
     00008004  G$playershootspeedsy$0$0           fixedbank
     00008004  _playershootspeedsy                fixedbank
     00008008  G$stage6_fade_pink$0$0             fixedbank
     00008008  _stage6_fade_pink                  fixedbank
     00008010  G$stage6_fade_blue$0$0             fixedbank
     00008010  _stage6_fade_blue                  fixedbank
     00008018  G$skullshootvelx$0$0               fixedbank
     00008018  _skullshootvelx                    fixedbank
     0000801F  G$skullshootvely$0$0               fixedbank
     0000801F  _skullshootvely                    fixedbank
     00008026  G$skullbshootvelx$0$0              fixedbank
     00008026  _skullbshootvelx                   fixedbank
     00008036  G$skullbshootvely$0$0              fixedbank
     00008036  _skullbshootvely                   fixedbank
     00008046  G$palette_bin$0$0                  fixedbank
     00008046  _palette_bin                       fixedbank
     00008056  G$stage4_stormpalette$0$0          fixedbank
     00008056  _stage4_stormpalette               fixedbank
     00008066  G$stage4_seapalette$0$0            fixedbank
     00008066  _stage4_seapalette                 fixedbank
     0000806A  G$stage1_flashpalette$0$0          fixedbank
     0000806A  _stage1_flashpalette               fixedbank
     00008072  G$aracmovingx$0$0                  fixedbank
     00008072  _aracmovingx                       fixedbank
     0000807A  G$aracmovingy$0$0                  fixedbank
     0000807A  _aracmovingy                       fixedbank
     00008082  G$aracmovingt$0$0                  fixedbank
     00008082  _aracmovingt                       fixedbank
     00008092  G$crossamovingx$0$0                fixedbank
     00008092  _crossamovingx                     fixedbank
     0000809A  G$crossamovingy$0$0                fixedbank
     0000809A  _crossamovingy                     fixedbank
     000080A2  G$crossamovingt$0$0                fixedbank
     000080A2  _crossamovingt                     fixedbank
     000080B2  G$crossbmovingx$0$0                fixedbank
     000080B2  _crossbmovingx                     fixedbank
     000080BA  G$crossbmovingy$0$0                fixedbank
     000080BA  _crossbmovingy                     fixedbank
     000080C2  G$crossbmovingt$0$0                fixedbank
     000080C2  _crossbmovingt                     fixedbank
     000080D2  G$stage2endbossshootpatternx$0$0   fixedbank
     000080D2  _stage2endbossshootpatternx        fixedbank
     000080D8  G$stage2endbossshootpatterny$0$0   fixedbank
     000080D8  _stage2endbossshootpatterny        fixedbank
     000080DE  G$stage3enemylaserposx$0$0         fixedbank
     000080DE  _stage3enemylaserposx              fixedbank
     000080E6  G$stage3enemylaserposy$0$0         fixedbank
     000080E6  _stage3enemylaserposy              fixedbank
ASxxxx Linker V03.00 + NoICE + sdld,  page 134.
Hexadecimal  [32-Bits]

Area                                    Addr        Size        Decimal Bytes (Attributes)
--------------------------------        ----        ----        ------- ----- ------------
_BANK15                             00008000    000036E5 =       14053. bytes (REL,CON)

      Value  Global                              Global Defined In Module
      -----  --------------------------------   ------------------------
     000080EE  G$stage3laservelx$0$0              fixedbank
     000080EE  _stage3laservelx                   fixedbank
     000080F6  G$stage3laservely$0$0              fixedbank
     000080F6  _stage3laservely                   fixedbank
     000080FE  G$Stage1MiddleBossBPatternX$0$0    fixedbank
     000080FE  _Stage1MiddleBossBPatternX         fixedbank
     00008106  G$Stage1MiddleBossBPatternY$0$0    fixedbank
     00008106  _Stage1MiddleBossBPatternY         fixedbank
     0000810E  G$sinustable$0$0                   fixedbank
     0000810E  _sinustable                        fixedbank
     0000820E  G$jukebox_repeat$0$0               fixedbank
     0000820E  _jukebox_repeat                    fixedbank
     00008223  G$jukebox_banks$0$0                fixedbank
     00008223  _jukebox_banks                     fixedbank
     00008238  G$selectorstatebasetiles$0$0       fixedbank
     00008238  _selectorstatebasetiles            fixedbank
     0000823D  G$selectormarkx$0$0                fixedbank
     0000823D  _selectormarkx                     fixedbank
     00008241  G$selectormarky$0$0                fixedbank
     00008241  _selectormarky                     fixedbank
     00008245  G$selectormarkt$0$0                fixedbank
     00008245  _selectormarkt                     fixedbank
     00008249  G$intro4script$0$0                 fixedbank
     00008249  _intro4script                      fixedbank
     00008375  G$intro1script$0$0                 fixedbank
     00008375  _intro1script                      fixedbank
     0000846F  G$intro2script$0$0                 fixedbank
     0000846F  _intro2script                      fixedbank
     0000850A  G$intro3script$0$0                 fixedbank
     0000850A  _intro3script                      fixedbank
     00008550  G$finishscript$0$0                 fixedbank
     00008550  _finishscript                      fixedbank
     00008654  G$stagedatamarks$0$0               fixedbank
     00008654  _stagedatamarks                    fixedbank
     0000865C  G$ww2planemovementy$0$0            fixedbank
     0000865C  _ww2planemovementy                 fixedbank
     00008664  G$ww2planemovementx$0$0            fixedbank
     00008664  _ww2planemovementx                 fixedbank
     0000866C  G$ww2plane_pattern_a$0$0           fixedbank
     0000866C  _ww2plane_pattern_a                fixedbank
     0000867A  G$ww2plane_pattern_b$0$0           fixedbank
     0000867A  _ww2plane_pattern_b                fixedbank
     00008688  G$ww2plane_pattern_c$0$0           fixedbank
     00008688  _ww2plane_pattern_c                fixedbank
     0000869A  G$ww2plane_pattern_d$0$0           fixedbank
     0000869A  _ww2plane_pattern_d                fixedbank
     000086AC  G$ww2plane_pattern_e$0$0           fixedbank
     000086AC  _ww2plane_pattern_e                fixedbank
     000086CA  G$ww2plane_pattern_f$0$0           fixedbank
     000086CA  _ww2plane_pattern_f                fixedbank
     000086E8  G$span_waveship80_script$0$0       fixedbank
ASxxxx Linker V03.00 + NoICE + sdld,  page 135.
Hexadecimal  [32-Bits]

Area                                    Addr        Size        Decimal Bytes (Attributes)
--------------------------------        ----        ----        ------- ----- ------------
_BANK15                             00008000    000036E5 =       14053. bytes (REL,CON)

      Value  Global                              Global Defined In Module
      -----  --------------------------------   ------------------------
     000086E8  _span_waveship80_script            fixedbank
     000086F7  G$span_waveship160_script$0$0      fixedbank
     000086F7  _span_waveship160_script           fixedbank
     00008706  G$span_randomrectship_script$0$0   fixedbank
     00008706  _span_randomrectship_script        fixedbank
     00008728  G$span_rectshiplateral_script$0$   fixedbank
     00008728  _span_rectshiplateral_script       fixedbank
     0000874A  G$span_bombships_script$0$0        fixedbank
     0000874A  _span_bombships_script             fixedbank
     0000875D  G$span_randomwaveship_script$0$0   fixedbank
     0000875D  _span_randomwaveship_script        fixedbank
     00008775  G$span_turnships_script$0$0        fixedbank
     00008775  _span_turnships_script             fixedbank
     000087A6  G$span_spreadships_script$0$0      fixedbank
     000087A6  _span_spreadships_script           fixedbank
     000087B4  G$stage4scriptc$0$0                fixedbank
     000087B4  _stage4scriptc                     fixedbank
     000087C8  G$stage4scriptb$0$0                fixedbank
     000087C8  _stage4scriptb                     fixedbank
     00008813  G$stage4script$0$0                 fixedbank
     00008813  _stage4script                      fixedbank
     0000884A  G$span_ww2planea_script$0$0        fixedbank
     0000884A  _span_ww2planea_script             fixedbank
     0000886C  G$span_ww2planeb_script$0$0        fixedbank
     0000886C  _span_ww2planeb_script             fixedbank
     0000888E  G$span_ww2planec_script$0$0        fixedbank
     0000888E  _span_ww2planec_script             fixedbank
     000088B0  G$span_ww2zeppelina_script$0$0     fixedbank
     000088B0  _span_ww2zeppelina_script          fixedbank
     000088C3  G$stage5scriptc$0$0                fixedbank
     000088C3  _stage5scriptc                     fixedbank
     000088D2  G$stage5scriptb$0$0                fixedbank
     000088D2  _stage5scriptb                     fixedbank
     000089B8  G$stage5script$0$0                 fixedbank
     000089B8  _stage5script                      fixedbank
     00008ABB  G$stage5_statics$0$0               fixedbank
     00008ABB  _stage5_statics                    fixedbank
     00008BF5  G$stage1_statics$0$0               fixedbank
     00008BF5  _stage1_statics                    fixedbank
     00009227  G$stage2_statics$0$0               fixedbank
     00009227  _stage2_statics                    fixedbank
     00009827  G$span_asteroids_full_script$0$0   fixedbank
     00009827  _span_asteroids_full_script        fixedbank
     00009858  G$span_asteroids_little_script$0   fixedbank
     00009858  _span_asteroids_little_script      fixedbank
     0000987A  G$stage3scriptb$0$0                fixedbank
     0000987A  _stage3scriptb                     fixedbank
     00009893  G$stage3script$0$0                 fixedbank
     00009893  _stage3script                      fixedbank
     000098C0  G$stage3_statics$0$0               fixedbank
     000098C0  _stage3_statics                    fixedbank
ASxxxx Linker V03.00 + NoICE + sdld,  page 136.
Hexadecimal  [32-Bits]

Area                                    Addr        Size        Decimal Bytes (Attributes)
--------------------------------        ----        ----        ------- ----- ------------
_BANK15                             00008000    000036E5 =       14053. bytes (REL,CON)

      Value  Global                              Global Defined In Module
      -----  --------------------------------   ------------------------
     00009B38  G$stage7_statics$0$0               fixedbank
     00009B38  _stage7_statics                    fixedbank
     00009EF8  G$initenemyfunctions$0$0           fixedbank
     00009EF8  _initenemyfunctions                fixedbank
     00009EFC  G$updateenemyfunctions$0$0         fixedbank
     00009EFC  _updateenemyfunctions              fixedbank
     00009F00  G$updatestagefunctions$0$0         fixedbank
     00009F00  _updatestagefunctions              fixedbank
     00009F02  G$stage4_scrollers$0$0             fixedbank
     00009F02  _stage4_scrollers                  fixedbank
     00009FA2  G$stage1_scrollers$0$0             fixedbank
     00009FA2  _stage1_scrollers                  fixedbank
     00009FCA  G$stage2_scrollers$0$0             fixedbank
     00009FCA  _stage2_scrollers                  fixedbank
     00009FE8  G$stage5_scrollers$0$0             fixedbank
     00009FE8  _stage5_scrollers                  fixedbank
     0000A010  G$stage3_scrollers$0$0             fixedbank
     0000A010  _stage3_scrollers                  fixedbank
     0000A024  G$stage7_scrollers$0$0             fixedbank
     0000A024  _stage7_scrollers                  fixedbank
     0000A038  G$stage6_scrollers$0$0             fixedbank
     0000A038  _stage6_scrollers                  fixedbank
     0000A04C  G$imagebases$0$0                   fixedbank
     0000A04C  _imagebases                        fixedbank
     0000A0F8  G$imagebanks$0$0                   fixedbank
     0000A0F8  _imagebanks                        fixedbank
     0000A14E  G$stage3spriteslist$0$0            fixedbank
     0000A14E  _stage3spriteslist                 fixedbank
     0000A15A  G$stage1spriteslist$0$0            fixedbank
     0000A15A  _stage1spriteslist                 fixedbank
     0000A162  G$stage2spriteslist$0$0            fixedbank
     0000A162  _stage2spriteslist                 fixedbank
     0000A16A  G$stage7spriteslist$0$0            fixedbank
     0000A16A  _stage7spriteslist                 fixedbank
     0000A170  G$stage5spriteslist$0$0            fixedbank
     0000A170  _stage5spriteslist                 fixedbank
     0000A176  G$stage4spriteslist$0$0            fixedbank
     0000A176  _stage4spriteslist                 fixedbank
     0000A180  G$stage6spriteslist$0$0            fixedbank
     0000A180  _stage6spriteslist                 fixedbank
     0000A183  G$stage6script$0$0                 fixedbank
     0000A183  _stage6script                      fixedbank
     0000A18D  G$stage6scriptb$0$0                fixedbank
     0000A18D  _stage6scriptb                     fixedbank
     0000A197  G$vulcantankshootspeedx$0$0        fixedbank
     0000A197  _vulcantankshootspeedx             fixedbank
     0000A19A  G$vulcantankshootspeedy$0$0        fixedbank
     0000A19A  _vulcantankshootspeedy             fixedbank
     0000A19D  G$vulcanstationshootspeedx$0$0     fixedbank
     0000A19D  _vulcanstationshootspeedx          fixedbank
     0000A1A0  G$vulcanstationshootspeedy$0$0     fixedbank
ASxxxx Linker V03.00 + NoICE + sdld,  page 137.
Hexadecimal  [32-Bits]

Area                                    Addr        Size        Decimal Bytes (Attributes)
--------------------------------        ----        ----        ------- ----- ------------
_BANK15                             00008000    000036E5 =       14053. bytes (REL,CON)

      Value  Global                              Global Defined In Module
      -----  --------------------------------   ------------------------
     0000A1A0  _vulcanstationshootspeedy          fixedbank
     0000A1A3  G$stage8bosscshootspeedx$0$0       fixedbank
     0000A1A3  _stage8bosscshootspeedx            fixedbank
     0000A1B3  G$stage8bosscshootspeedy$0$0       fixedbank
     0000A1B3  _stage8bosscshootspeedy            fixedbank
     0000A1C2  G$stage8bossbshootspeedx$0$0       fixedbank
     0000A1C2  _stage8bossbshootspeedx            fixedbank
     0000A1D2  G$stage8bossbshootspeedy$0$0       fixedbank
     0000A1D2  _stage8bossbshootspeedy            fixedbank
     0000A1E2  G$stage8spriteslist$0$0            fixedbank
     0000A1E2  _stage8spriteslist                 fixedbank
     0000A1E9  G$stage8_statics$0$0               fixedbank
     0000A1E9  _stage8_statics                    fixedbank
     0000A823  G$stage8_scrollers$0$0             fixedbank
     0000A823  _stage8_scrollers                  fixedbank
     0000A82D  G$stage8animpalette$0$0            fixedbank
     0000A82D  _stage8animpalette                 fixedbank
     0000A83B  G$enemieswidth$0$0                 fixedbank
     0000A83B  _enemieswidth                      fixedbank
     0000A891  G$enemiesheight$0$0                fixedbank
     0000A891  _enemiesheight                     fixedbank
     0000A8E7  G$enemiesenergy$0$0                fixedbank
     0000A8E7  _enemiesenergy                     fixedbank
     0000A93D  G$intro1_psg$0$0                   fixedbank
     0000A93D  _intro1_psg                        fixedbank
     0000B27E  Ffixedbank$__str_0$0$0             fixedbank
     0000B28C  Ffixedbank$__str_1$0$0             fixedbank
     0000B29A  Ffixedbank$__str_2$0$0             fixedbank
     0000B2A8  Ffixedbank$__str_3$0$0             fixedbank
     0000B2B6  Ffixedbank$__str_4$0$0             fixedbank
     0000B2C4  Ffixedbank$__str_5$0$0             fixedbank
     0000B2D2  Ffixedbank$__str_6$0$0             fixedbank
     0000B2E0  Ffixedbank$__str_7$0$0             fixedbank
     0000B2EE  Ffixedbank$__str_8$0$0             fixedbank
     0000B2FC  Ffixedbank$__str_9$0$0             fixedbank
     0000B30A  Ffixedbank$__str_10$0$0            fixedbank
     0000B318  Ffixedbank$__str_11$0$0            fixedbank
     0000B326  Ffixedbank$__str_12$0$0            fixedbank
     0000B334  Ffixedbank$__str_13$0$0            fixedbank
     0000B342  Ffixedbank$__str_14$0$0            fixedbank
     0000B350  Ffixedbank$__str_15$0$0            fixedbank
     0000B35E  Ffixedbank$__str_16$0$0            fixedbank
     0000B36C  Ffixedbank$__str_17$0$0            fixedbank
     0000B37A  Ffixedbank$__str_18$0$0            fixedbank
     0000B388  Ffixedbank$__str_19$0$0            fixedbank
     0000B396  Ffixedbank$__str_20$0$0            fixedbank
     0000B3A4  Ffixedbank$__str_21$0$0            fixedbank
     0000B3AD  Ffixedbank$__str_22$0$0            fixedbank
     0000B3B6  Ffixedbank$__str_23$0$0            fixedbank
     0000B3BF  Ffixedbank$__str_24$0$0            fixedbank
     0000B3C7  Ffixedbank$__str_25$0$0            fixedbank
ASxxxx Linker V03.00 + NoICE + sdld,  page 138.
Hexadecimal  [32-Bits]

Area                                    Addr        Size        Decimal Bytes (Attributes)
--------------------------------        ----        ----        ------- ----- ------------
_BANK15                             00008000    000036E5 =       14053. bytes (REL,CON)

      Value  Global                              Global Defined In Module
      -----  --------------------------------   ------------------------
     0000B3D0  Ffixedbank$__str_26$0$0            fixedbank
     0000B3DD  Ffixedbank$__str_27$0$0            fixedbank
     0000B3F1  Ffixedbank$__str_28$0$0            fixedbank
     0000B408  Ffixedbank$__str_29$0$0            fixedbank
     0000B419  Ffixedbank$__str_30$0$0            fixedbank
     0000B42E  Ffixedbank$__str_31$0$0            fixedbank
     0000B444  Ffixedbank$__str_32$0$0            fixedbank
     0000B459  Ffixedbank$__str_33$0$0            fixedbank
     0000B473  Ffixedbank$__str_34$0$0            fixedbank
     0000B489  Ffixedbank$__str_35$0$0            fixedbank
     0000B49C  Ffixedbank$__str_36$0$0            fixedbank
     0000B4AC  Ffixedbank$__str_37$0$0            fixedbank
     0000B4BF  Ffixedbank$__str_38$0$0            fixedbank
     0000B4D3  Ffixedbank$__str_39$0$0            fixedbank
     0000B4ED  Ffixedbank$__str_40$0$0            fixedbank
     0000B503  Ffixedbank$__str_41$0$0            fixedbank
     0000B521  Ffixedbank$__str_42$0$0            fixedbank
     0000B52B  Ffixedbank$__str_43$0$0            fixedbank
     0000B535  Ffixedbank$__str_44$0$0            fixedbank
     0000B547  Ffixedbank$__str_45$0$0            fixedbank
     0000B554  Ffixedbank$__str_46$0$0            fixedbank
     0000B56A  Ffixedbank$__str_47$0$0            fixedbank
     0000B57E  Ffixedbank$__str_48$0$0            fixedbank
     0000B598  Ffixedbank$__str_49$0$0            fixedbank
     0000B5AF  Ffixedbank$__str_50$0$0            fixedbank
     0000B5CD  Ffixedbank$__str_51$0$0            fixedbank
     0000B5E5  Ffixedbank$__str_52$0$0            fixedbank
     0000B600  Ffixedbank$__str_53$0$0            fixedbank
     0000B615  Ffixedbank$__str_54$0$0            fixedbank
     0000B61D  Ffixedbank$__str_55$0$0            fixedbank
     0000B635  Ffixedbank$__str_56$0$0            fixedbank
     0000B64F  Ffixedbank$__str_57$0$0            fixedbank
     0000B66C  Ffixedbank$__str_58$0$0            fixedbank
     0000B682  Ffixedbank$__str_59$0$0            fixedbank
     0000B696  Ffixedbank$__str_60$0$0            fixedbank
     0000B6B3  Ffixedbank$__str_61$0$0            fixedbank
     0000B6C8  Ffixedbank$__str_62$0$0            fixedbank
     0000B6DB  Ffixedbank$__str_63$0$0            fixedbank
     0000B6E0  Ffixedbank$__str_64$0$0            fixedbank

ASxxxx Linker V03.00 + NoICE + sdld,  page 139.
Hexadecimal  [32-Bits]

Area                                    Addr        Size        Decimal Bytes (Attributes)
--------------------------------        ----        ----        ------- ----- ------------
_CABS0                              00000000    00000010 =          16. bytes (ABS,CON)

      Value  Global                              Global Defined In Module
      -----  --------------------------------   ------------------------
     00007FF0  G$__SMS__SEGA_signature$0$0        _sms_manager
     00007FF0  ___SMS__SEGA_signature             _sms_manager

ASxxxx Linker V03.00 + NoICE + sdld,  page 140.
Hexadecimal  [32-Bits]

Area                                    Addr        Size        Decimal Bytes (Attributes)
--------------------------------        ----        ----        ------- ----- ------------
_CABS1                              00000000    0000000E =          14. bytes (ABS,CON)

      Value  Global                              Global Defined In Module
      -----  --------------------------------   ------------------------
     00007FD2  G$__SMS__SDSC_author$0$0           _sms_manager
     00007FD2  ___SMS__SDSC_author                _sms_manager

ASxxxx Linker V03.00 + NoICE + sdld,  page 141.
Hexadecimal  [32-Bits]

Area                                    Addr        Size        Decimal Bytes (Attributes)
--------------------------------        ----        ----        ------- ----- ------------
_CABS2                              00000000    0000000B =          11. bytes (ABS,CON)

      Value  Global                              Global Defined In Module
      -----  --------------------------------   ------------------------
     00007FC7  G$__SMS__SDSC_name$0$0             _sms_manager
     00007FC7  ___SMS__SDSC_name                  _sms_manager

ASxxxx Linker V03.00 + NoICE + sdld,  page 142.
Hexadecimal  [32-Bits]

Area                                    Addr        Size        Decimal Bytes (Attributes)
--------------------------------        ----        ----        ------- ----- ------------
_CABS3                              00000000    00000028 =          40. bytes (ABS,CON)

      Value  Global                              Global Defined In Module
      -----  --------------------------------   ------------------------
     00007F9F  G$__SMS__SDSC_descr$0$0            _sms_manager
     00007F9F  ___SMS__SDSC_descr                 _sms_manager

ASxxxx Linker V03.00 + NoICE + sdld,  page 143.
Hexadecimal  [32-Bits]

Area                                    Addr        Size        Decimal Bytes (Attributes)
--------------------------------        ----        ----        ------- ----- ------------
_CABS4                              00000000    00000010 =          16. bytes (ABS,CON)

      Value  Global                              Global Defined In Module
      -----  --------------------------------   ------------------------
     00007FE0  G$__SMS__SDSC_signature$0$0        _sms_manager
     00007FE0  ___SMS__SDSC_signature             _sms_manager

ASxxxx Linker V03.00 + NoICE + sdld,  page 144.

Files Linked                              [ module(s) ]

../crt0/crt0_sms.rel                      [ crt0 ]
main.rel                                  [ main ]
../lib/PSGlib.rel                         [ PSGlib ]
banks/bank2.rel                           [ bank2 ]
banks/bank3.rel                           [ bank3 ]
banks/bank4.rel                           [ bank4 ]
banks/bank5.rel                           [ bank5 ]
banks/bank6.rel                           [ bank6 ]
banks/bank7.rel                           [ bank7 ]
banks/bank8.rel                           [ bank8 ]
banks/bank9.rel                           [ bank9 ]
banks/bank10.rel                          [ bank10 ]
banks/bank11.rel                          [ bank11 ]
banks/bank12.rel                          [ bank12 ]
banks/bank13.rel                          [ bank13 ]
banks/bank14.rel                          [ bank14 ]
banks/fixedbank.rel                       [ fixedbank ]
devkit/_sms_manager.rel                   [ _sms_manager ]
devkit/_snd_manager.rel                   [ _snd_manager ]
Enemies/enemy.rel                         [ enemy ]
Enemies/enemyshoot.rel                    [ enemyshoot ]
Fortresses/fortresscannon.rel             [ fortresscannon ]
Fortresses/fortressdoor.rel               [ fortressdoor ]
Fortresses/fortressphantom.rel            [ fortressphantom ]
Fortresses/fortresssearcher.rel           [ fortresssearcher ]
Fortresses/fortresswave.rel               [ fortresswave ]
General/barrom.rel                        [ barrom ]
General/bombship.rel                      [ bombship ]
General/explosion.rel                     [ explosion ]
General/finishstage.rel                   [ finishstage ]
General/gameoverstage.rel                 [ gameoverstage ]
General/jukeboxstage.rel                  [ jukeboxstage ]
General/logostage.rel                     [ logostage ]
General/map.rel                           [ map ]
General/mikgamesstage.rel                 [ mikgamesstage ]
General/powerup.rel                       [ powerup ]
General/rectship.rel                      [ rectship ]
General/rsgthing.rel                      [ rsgthing ]
General/scripter.rel                      [ scripter ]
General/scroller.rel                      [ scroller ]
General/selectorstage.rel                 [ selectorstage ]
General/skullbone.rel                     [ skullbone ]
General/spreadship.rel                    [ spreadship ]
General/timeredlabel.rel                  [ timeredlabel ]
General/turnship.rel                      [ turnship ]
General/warning.rel                       [ warning ]
General/waveship.rel                      [ waveship ]
Intros/intro1stage.rel                    [ intro1stage ]
Intros/intro2stage.rel                    [ intro2stage ]
Intros/intro3object.rel                   [ intro3object ]
Intros/intro3stage.rel                    [ intro3stage ]
Intros/intro4stage.rel                    [ intro4stage ]
Intros/introovni.rel                      [ introovni ]
Intros/introsideplayer.rel                [ introsideplayer ]
Intros/introstage.rel                     [ introstage ]
Intros/introstar.rel                      [ introstar ]
Monsters/monsterblob.rel                  [ monsterblob ]
Monsters/monsterhead.rel                  [ monsterhead ]
Monsters/monstermissil.rel                [ monstermissil ]
Players/player.rel                        [ player ]
Players/playershoot.rel                   [ playershoot ]
Players/playstage.rel                     [ playstage ]
Spaces/spaceasteroid.rel                  [ spaceasteroid ]
Spaces/spaceshooter.rel                   [ spaceshooter ]
Spaces/spacestation.rel                   [ spacestation ]
Stages/stage1.rel                         [ stage1 ]
Stages/stage1endboss.rel                  [ stage1endboss ]
Stages/stage1middleboss.rel               [ stage1middleboss ]
Stages/stage1middlebossb.rel              [ stage1middlebossb ]
Stages/stage1middlebossc.rel              [ stage1middlebossc ]
Stages/stage2.rel                         [ stage2 ]
Stages/stage2endboss.rel                  [ stage2endboss ]
Stages/stage2object.rel                   [ stage2object ]
Stages/stage3.rel                         [ stage3 ]
Stages/stage3endboss.rel                  [ stage3endboss ]
Stages/stage3laser.rel                    [ stage3laser ]
Stages/stage3star.rel                     [ stage3star ]
Stages/stage4.rel                         [ stage4 ]
Stages/stage4endboss.rel                  [ stage4endboss ]
Stages/stage4endbossb.rel                 [ stage4endbossb ]
Stages/stage4middleboss.rel               [ stage4middleboss ]
Stages/stage4object.rel                   [ stage4object ]
Stages/stage5.rel                         [ stage5 ]
Stages/stage5endboss.rel                  [ stage5endboss ]
Stages/stage5missile.rel                  [ stage5missile ]
Stages/stage6.rel                         [ stage6 ]
Stages/stage6endboss.rel                  [ stage6endboss ]
Stages/stage6endbossb.rel                 [ stage6endbossb ]
Stages/stage6object.rel                   [ stage6object ]
Stages/stage7.rel                         [ stage7 ]
Stages/stage7endboss.rel                  [ stage7endboss ]
Stages/stage7middleboss.rel               [ stage7middleboss ]
Stages/stage7object.rel                   [ stage7object ]
Stages/stage8.rel                         [ stage8 ]
Stages/stage8bossa.rel                    [ stage8bossa ]
Stages/stage8bossb.rel                    [ stage8bossb ]
Stages/stage8bossc.rel                    [ stage8bossc ]
Stages/stage8lateral.rel                  [ stage8lateral ]
Vulcans/vulcanbird.rel                    [ vulcanbird ]
Vulcans/vulcanlaser.rel                   [ vulcanlaser ]
Vulcans/vulcanlava.rel                    [ vulcanlava ]
Vulcans/vulcanstation.rel                 [ vulcanstation ]
Vulcans/vulcantank.rel                    [ vulcantank ]
Vulcans/vulcanvulcan.rel                  [ vulcanvulcan ]
Wars/ww2plane.rel                         [ ww2plane ]
Wars/ww2planeb.rel                        [ ww2planeb ]
Wars/ww2ship.rel                          [ ww2ship ]
Wars/ww2zeppelin.rel                      [ ww2zeppelin ]
defines.rel                               [ defines ]
funcs.rel                                 [ funcs ]
vars.rel                                  [ vars ]


Libraries Linked                          [ object file ]

C:\Program Files\SDCC\bin\..\lib\z80/z80.lib
                                          [ divunsigned.rel ]
../lib/SMSlib.lib                         [ SMSlib_UNSAFE.rel ]
../lib/SMSlib.lib                         [ SMSlib.rel ]
../lib/SMSlib.lib                         [ SMSlib_VRAMmemset.rel ]
../lib/SMSlib.lib                         [ SMSlib_sprite.rel ]
C:\Program Files\SDCC\bin\..\lib\z80/z80.lib
                                          [ modunsigned.rel ]
../lib/SMSlib.lib                         [ SMSlib_VRAMmemcpy.rel ]
../lib/SMSlib.lib                         [ SMSlib_STMcomp.rel ]
C:\Program Files\SDCC\bin\..\lib\z80/z80.lib
                                          [ __sdcc_call_hl.rel ]
../lib/SMSlib.lib                         [ SMSlib_PSGaiden.rel ]
C:\Program Files\SDCC\bin\..\lib\z80/z80.lib
                                          [ strlen.rel ]
C:\Program Files\SDCC\bin\..\lib\z80/z80.lib
                                          [ _mullong.rel ]
C:\Program Files\SDCC\bin\..\lib\z80/z80.lib
                                          [ modsigned.rel ]
C:\Program Files\SDCC\bin\..\lib\z80/z80.lib
                                          [ divsigned.rel ]
C:\Program Files\SDCC\bin\..\lib\z80/z80.lib
                                          [ mul.rel ]

ASxxxx Linker V03.00 + NoICE + sdld,  page 145.

User Base Address Definitions

_CODE = 0x0200
_DATA = 0xc000
_BANK2=0x8000
_BANK3=0x8000
_BANK4=0x8000
_BANK5=0x8000
_BANK6=0x8000
_BANK7=0x8000
_BANK8=0x8000
_BANK9=0x8000
_BANK10=0x8000
_BANK11=0x8000
_BANK12=0x8000
_BANK13=0x8000
_BANK14=0x8000
_BANK15=0x8000

